
libxl_thunder_sdk.so：     文件格式 elf32-little

SYMBOL TABLE:
no symbols


DYNAMIC SYMBOL TABLE:
00000000      DF *UND*	00000000 __cxa_finalize
00000000      DF *UND*	00000000 __cxa_atexit
000af3cc g    DF .text	00000010 _ZN11DownloadLibC2Ev
000af3cc g    DF .text	00000010 _ZN11DownloadLibC1Ev
000af3dc g    DF .text	00000004 _ZN11DownloadLibD2Ev
000af3dc g    DF .text	00000004 _ZN11DownloadLibD1Ev
000af3e0 g    DF .text	000002f8 _ZN11DownloadLib6DoInitEP30TAG_XL_DOWNLOAD_LIB_INIT_PARAM
00000000      DF *UND*	00000000 _Znwj
000c7d64 g    DF .text	0000003c _ZN11CommandListC1Ev
00170b4c g    DF .text	00000028 _ZN5SdDirC1EPKc
00000000      DF *UND*	00000000 __cxa_guard_acquire
00172d20 g    DF .text	0000006c _ZN10GlobalInfoC1Ev
00000000      DF *UND*	00000000 __cxa_guard_release
001706f0 g    DF .text	00000050 _ZN5SdDir8fullPathEPKc
00170bac g    DF .text	00000014 _ZN5SdDir6LengthEv
00172e34 g    DF .text	00000134 _ZN10GlobalInfo13SetSystemInfoEPKcjS1_jS1_jS1_jS1_jS1_jS1_j11NetWorkType
0015ebbc g    DF .text	00000054 _ZN14PermissionCtrlC1Ev
0015ea34 g    DF .text	00000010 _ZN14PermissionCtrl18SetPermissionLevelE16_PermissionLevel
000b486c g    DF .text	000000e8 _Z13download_initv
00000000      DF *UND*	00000000 __cxa_guard_abort
00000000      DF *UND*	00000000 __cxa_end_cleanup
000c7da0 g    DF .text	00000034 _ZN11CommandListD1Ev
00000000      DF *UND*	00000000 _ZdlPv
002f02f4  w   DO .bss	00000004 _ZGVZN9SingletonI10GlobalInfoE11GetInstanceEvE8instance
002f02a8  w   DO .bss	00000048 _ZZN9SingletonI10GlobalInfoE11GetInstanceEvE8instance
00172d8c g    DF .text	000000a8 _ZN10GlobalInfoD1Ev
002f02f0  w   DO .bss	00000004 _ZGVZN9SingletonI14PermissionCtrlE11GetInstanceEvE8instance
002f028c  w   DO .bss	0000001c _ZZN9SingletonI14PermissionCtrlE11GetInstanceEvE8instance
0015ea74 g    DF .text	0000001c _ZN14PermissionCtrlD1Ev
000af6d8 g    DF .text	00000038 _ZN11DownloadLib4InitEP30TAG_XL_DOWNLOAD_LIB_INIT_PARAM
00000000      DF *UND*	00000000 __aeabi_unwind_cpp_pr0
000af710 g    DF .text	00000014 _ZN11DownloadLib15GetThunderzInfoEPKcjP17TAG_THUNDERZ_INFO
000da36c g    DF .text	00000010 _ZN11TaskManager15GetThunderzInfoEPKcjP17TAG_THUNDERZ_INFO
002f0288  w   DO .bss	00000004 _ZZN11SingletonExI11TaskManagerE9_instanceEvE1p
000af724 g    DF .text	00000014 _ZN11DownloadLib16ParserThunderUrlEPKcjP20TAG_THUNDER_URL_INFO
000da7a0 g    DF .text	00000010 _ZN11TaskManager16ParserThunderUrlEPKcjP20TAG_THUNDER_URL_INFO
000af738 g    DF .text	00000014 _ZN11DownloadLib18GetFileNameFromUrlEPKcjPcj
000da7b0 g    DF .text	00000014 _ZN11TaskManager18GetFileNameFromUrlEPKcjPcj
000af74c g    DF .text	0000005c _Z15get_downloadlibv
000b1b2c  w   DF .text	00000024 _ZN5RCPtrI7CommandEC2EPS0_
001733cc g    DF .text	00000034 _ZN7RefBase12addReferenceEv
000b1b2c  w   DF .text	00000024 _ZN5RCPtrI7CommandEC1EPS0_
000b1b50  w   DF .text	00000028 _ZN5RCPtrI7CommandE10AbandonObjEv
00173400 g    DF .text	0000005c _ZN7RefBase15removeReferenceEv
000af7a8 g    DF .text	00000090 _ZN11DownloadLib8DoUnInitEv
000d3588 g    DF .text	00000028 _ZN18StopAllTaskCommandC1Ev
000c7bf8 g    DF .text	00000100 _ZN11CommandList4ExitER5RCPtrI7CommandE
000b4954 g    DF .text	0000003c _Z15download_uninitv
000af838 g    DF .text	00000038 _ZN11DownloadLib6UnInitEv
000af870 g    DF .text	0000008c _ZN11DownloadLib17NotifyNetWorkTypeE11NetWorkType
000d38e4 g    DF .text	00000030 _ZN27NotifyNetWorkChangedCommandC1E11NetWorkType
000c7a48 g    DF .text	000000a8 _ZN11CommandList11PostCommandER5RCPtrI7CommandE
000af8fc g    DF .text	0000008c _ZN11DownloadLib20NotifyNetWorkCarrierE14NetWorkCarrier
000d3914 g    DF .text	00000030 _ZN34NotifyNetWorkCarrierChangedCommandC1E14NetWorkCarrier
000af988 g    DF .text	00000094 _ZN11DownloadLib15NotifyWifiBSSIDEPKcj
000d3944 g    DF .text	0000006c _ZN29NotifyWifiBSSIDChangedCommandC1EPKcj
000afa1c g    DF .text	000000a8 _ZN11DownloadLib14CreateP2spTaskEP14TAG_TASK_PARAMPy
000d35b0 g    DF .text	00000038 _ZN21CreateP2SPTaskCommandC1EP14TAG_TASK_PARAMPy
000c7af0 g    DF .text	00000108 _ZN11CommandList11SendCommandER5RCPtrI7CommandE
000afac4 g    DF .text	000000a8 _ZN11DownloadLib11ReleaseTaskEy
000d35e8 g    DF .text	00000034 _ZN18ReleaseTaskCommandC1Ey
000afb6c g    DF .text	000000a8 _ZN11DownloadLib9StartTaskEy
000d361c g    DF .text	00000034 _ZN16StartTaskCommandC1Ey
000afc14 g    DF .text	000000b0 _ZN11DownloadLib8StopTaskEyj
000d3650 g    DF .text	0000003c _ZN15StopTaskCommandC1Eyj
000afcc4 g    DF .text	000000a8 _ZN11DownloadLib13RemoveTaskCfgEy
000d3f7c g    DF .text	00000034 _ZN20RemoveTaskCfgCommandC1Ey
000afd6c g    DF .text	000000dc _ZN11DownloadLib17AddServerResourceEyiRKSsS1_S1_j16RES_USE_STRATEGY
000d368c g    DF .text	0000009c _ZN19AddServerResCommandC1EyiRKSsS1_S1_j16RES_USE_STRATEGY
000afe48 g    DF .text	0000010c _ZN11DownloadLib15AddPeerResourceEyiRKSsyS1_S1_jtthhjj
000d3728 g    DF .text	000000cc _ZN17AddPeerResCommandC1EyiRKSsyS1_S1_jtthhjj
000aff54 g    DF .text	000000b8 _ZN11DownloadLib19RemoveAddedResourceEyij
000d37f4 g    DF .text	00000044 _ZN29RemvoeSpecialResourcesCommandC1Eyij
000b000c g    DF .text	000000b0 _ZN11DownloadLib11GetTaskInfoEyP19TAG_XL_TASK_INFO_EX
000d3838 g    DF .text	0000003c _ZN18GetTaskInfoCommandC1EyP19TAG_XL_TASK_INFO_EX
000b00bc g    DF .text	000000b0 _ZN11DownloadLib13GetTaskInfoExEyP20TAG_XL_TASK_INFO_EEX
000d3874 g    DF .text	0000003c _ZN20GetTaskInfoCommandExC1EyP20TAG_XL_TASK_INFO_EEX
000b016c g    DF .text	000000b8 _ZN11DownloadLib11GetLocalUrlEPKciPci
000d411c g    DF .text	00000058 _ZN18GetLocalUrlCommandC1EPKciPci
000b0224 g    DF .text	000000a8 _ZN11DownloadLib12RequeryIndexEy
000d38b0 g    DF .text	00000034 _ZN19RequeryIndexCommandC1Ey
000b02cc g    DF .text	000000b0 _ZN11DownloadLib23SetTaskAllowUseResourceEy26_DOWNLOADLIB_RESOURCE_TYPE
000d39b0 g    DF .text	0000003c _ZN26SetAllowUseResourceCommandC1Ey26_DOWNLOADLIB_RESOURCE_TYPE
000b037c g    DF .text	000000b0 _ZN11DownloadLib10SetTaskUidEyj
000d39ec g    DF .text	0000003c _ZN17SetTaskUidCommandC1Eyj
000b042c g    DF .text	000000a8 _ZN11DownloadLib28SwitchOriginToAllResDownloadEy
000d3a28 g    DF .text	00000034 _ZN35SwitchOriginToAllResDownloadCommandC1Ey
000b04d4 g    DF .text	000000b8 _ZN11DownloadLib18SetOriginUserAgentEyPKcj
000d3a5c g    DF .text	00000080 _ZN25SetOriginUserAgentCommandC1EyPKcj
000b058c g    DF .text	000000cc _ZN11DownloadLib21SetHttpHeaderPropertyEyPKcjS1_j
000d3adc g    DF .text	000000dc _ZN28SetHttpHeaderPropertyCommandC1EyPKcjS1_j
000b0658 g    DF .text	000000a8 _ZN11DownloadLib13SetReleaseLogEjP25TAG_SET_RELEASE_LOG_PARAM
000d3bb8 g    DF .text	00000038 _ZN20SetReleaseLogCommandC1EjP25TAG_SET_RELEASE_LOG_PARAM
000b0700 g    DF .text	000000a0 _ZN11DownloadLib11IsLogTurnOnEPj
000d3bf0 g    DF .text	00000030 _ZN18IsLogTurnOnCommandC1EPj
000b07a0 g    DF .text	000000a8 _ZN11DownloadLib9SetUserIdEPKcj
000d3c20 g    DF .text	00000034 _ZN16SetUserIdCommandC1Ev
000d3c54 g    DF .text	0000002c _ZN16SetUserIdCommand4InitEPKcj
000b0848 g    DF .text	000000a8 _ZN11DownloadLib14SetMiUiVersionEPKcj
000d3c80 g    DF .text	00000034 _ZN21SetMiUiVersionCommandC1Ev
000d3cb4 g    DF .text	0000002c _ZN21SetMiUiVersionCommand4InitEPKcj
000b08f0 g    DF .text	000000a0 _ZN11DownloadLib19SetStatReportSwitchEb
000d3ce0 g    DF .text	00000030 _ZN26SetStatReportSwitchCommandC1Ev
000d3d10 g    DF .text	0000000c _ZN26SetStatReportSwitchCommand4InitEb
000b0990 g    DF .text	000000b8 _ZN11DownloadLib16SetLocalPropertyEPKcjS1_j
000d3ed4 g    DF .text	00000040 _ZN23SetLocalPropertyCommandC1Ev
000d3f14 g    DF .text	00000068 _ZN23SetLocalPropertyCommand4InitEPKcjS1_j
000b0a48 g    DF .text	000000a8 _ZN11DownloadLib6SetMacEPKcj
000d3d1c g    DF .text	00000034 _ZN13SetMacCommandC1Ev
000d3d50 g    DF .text	0000002c _ZN13SetMacCommand4InitEPKcj
000b0af0 g    DF .text	000000a8 _ZN11DownloadLib7SetImeiEPKcj
000d3d7c g    DF .text	00000034 _ZN14SetImeiCommandC1Ev
000d3db0 g    DF .text	0000002c _ZN14SetImeiCommand4InitEPKcj
000b0b98 g    DF .text	000000b8 _ZN11DownloadLib11SetFileNameEyPKcj
000d3ddc g    DF .text	00000044 _ZN18SetFileNameCommandC1EyPKcj
000b0c50 g    DF .text	000000b8 _ZN11DownloadLib21SetDownloadTaskOriginEyPKcj
000d3e20 g    DF .text	00000070 _ZN27SeDownloadTaskOriginCommandC1EyPKcj
000b0d08 g    DF .text	000000b8 _ZN11DownloadLib18GetHttpHeadersInfoEyjP19TAG_DOWNLOAD_HEADER
000d3e90 g    DF .text	00000044 _ZN24GetHttpHeaderInfoCommandC1EyjP19TAG_DOWNLOAD_HEADER
000b0dc0 g    DF .text	000000b8 _ZN11DownloadLib14SetTaskLxStateEyij
000d3fb0 g    DF .text	00000044 _ZN21SetTaskLxStateCommandC1Eyij
000b0e78 g    DF .text	000000b8 _ZN11DownloadLib14SetTaskGsStateEyi25_HIGH_SPEED_CHANNEL_STATE
000d3ff4 g    DF .text	00000044 _ZN21SetTaskGsStateCommandC1Eyi25_HIGH_SPEED_CHANNEL_STATE
000b0f30 g    DF .text	000000a8 _ZN11DownloadLib17EnterPrefetchModeEy
000d4038 g    DF .text	00000034 _ZN24EnterPrefetchModeCommandC1Ey
000b0fd8 g    DF .text	000000bc _ZN11DownloadLib20CreateXtThundermTaskEP23TAG_TASK_PARAM_THUNDERMPy
000d3260 g    DF .text	0000002c _ZN7CommandC2Ev
002dedd0 g    DO .data.rel.ro	00000018 _ZTV27CreateXtThundermTaskCommand
000b1094 g    DF .text	000000a8 _ZN11DownloadLib13CreateCIDTaskEP18TAG_TASK_PARAM_CIDPy
000d406c g    DF .text	00000038 _ZN20CreateCIDTaskCommandC1EP18TAG_TASK_PARAM_CIDPy
000b113c g    DF .text	000000bc _ZN11DownloadLib18CreateThundereTaskEP23TAG_TASK_PARAM_THUNDEREPy
002dee00 g    DO .data.rel.ro	00000018 _ZTV25CreateThundereTaskCommand
000b11f8 g    DF .text	000000bc _ZN11DownloadLib12CreateXtTaskEP17TAG_TASK_PARAM_XTPy
002dee18 g    DO .data.rel.ro	00000018 _ZTV19CreateXtTaskCommand
000b12b4 g    DF .text	000000d0 _ZN11DownloadLib18GetXtSubTaskStatusEyP18TAG_XT_TASK_STATUSjj
002dee30 g    DO .data.rel.ro	00000018 _ZTV25GetXtSubTaskStatusCommand
000b1384 g    DF .text	000000c8 _ZN11DownloadLib16GetXtSubTaskInfoEyiP21TAG_XT_SUBTASK_DETAIL
002dee48 g    DO .data.rel.ro	00000018 _ZTV23GetXtSubTaskInfoCommand
000b144c g    DF .text	000000d0 _ZN11DownloadLib15XtSelectSubTaskEyPjj
002dee60 g    DO .data.rel.ro	00000018 _ZTV24XtSubTaskDoSelectCommand
000b151c g    DF .text	000000d0 _ZN11DownloadLib17XtDeselectSubTaskEyPjj
000b15ec g    DF .text	000000b0 _ZN11DownloadLib13SetSpeedLimitExx
000d4174 g    DF .text	0000003c _ZN20SetSpeedLimitCommandC1Exx
000b169c g    DF .text	000000a0 _ZN11DownloadLib19GetMaxDownloadSpeedEPx
000d41b0 g    DF .text	00000030 _ZN26GetMaxDownloadSpeedCommandC1EPx
000b173c g    DF .text	000000c0 _ZN11DownloadLib17SetXtPriorSubTaskEyi
002deec0 g    DO .data.rel.ro	00000018 _ZTV24SetXtPriorSubTaskCommand
000b17fc g    DF .text	000000b0 _ZN11DownloadLib15GetUrlQuickInfoEyP18TAG_URL_QUICK_INFO
000d40a4 g    DF .text	0000003c _ZN22GetUrlQuickInfoCommandC1EyP18TAG_URL_QUICK_INFO
000b18ac g    DF .text	000000b0 _ZN11DownloadLib16GetTaskCheckInfoEyP22TAG_XL_TASK_CHECK_INFO
000d40e0 g    DF .text	0000003c _ZN23GetTaskCheckInfoCommandC1EyP22TAG_XL_TASK_CHECK_INFO
000b195c g    DF .text	000000c0 _ZN11DownloadLib16StatExternalInfoEtiPKcS1_
000d41e0 g    DF .text	00000040 _ZN23StatExternalInfoCommandC1Ev
000d4220 g    DF .text	00000090 _ZN23StatExternalInfoCommand4InitEyiPKcS1_
000b1a1c g    DF .text	00000110 _ZN11DownloadLib16HandleSdkCommandEv
000c7d2c g    DF .text	00000038 _ZN11CommandList4SwapERSt4listI5RCPtrI7CommandESaIS3_EE
0015e8d8 g    DF .text	00000004 sd_task_lock
0015e970 g    DF .text	00000004 sd_task_cond_signal
0015e8e0 g    DF .text	00000004 sd_task_unlock
000b2938  w   DF .text	0000000c _ZN18IDataMemoryManager23RegisterDataMemoryEventEP16IDataMemoryEvent
000b2944  w   DF .text	0000000c _ZN18IDataMemoryManager25UnregisterDataMemoryEventEP16IDataMemoryEvent
000b2950  w   DF .text	00000008 _ZN21IDataManagerWriteData18OutputThunderzFileEP9IResourcePPcyjPKc
000b2958  w   DF .text	00000008 _ZN17IDataManagerEvent13GetRscRunModeEv
000b2960  w   DF .text	00000008 _ZN4Task13GetTaskStatusEv
000b2968  w   DF .text	00000038 _ZN4Task17EnterPrefetchModeEv
000b29a0  w   DF .text	0000001c _ZN4Task13SetCreateModeE20_XL_CREATE_TASK_MODE
000b29bc  w   DF .text	00000008 _ZN4Task11GetReportIdEv
000b29c4  w   DF .text	00000010 _ZN4Task16RecordLimitSpeedEv
000b29d4  w   DF .text	00000008 _ZN8P2spTask6GetUrlEv
000b1b78 g    DF .text	0000003c _ZN12ThundereTask8StopTaskEj
000c37c4 g    DF .text	00000be0 _ZN8P2spTask8StopTaskEj
000b29dc  w   DF .text	000000a4 _ZNK4Task17MaxDataBufferSizeEv
0010fa90 g    DF .text	0000003c _ZN7Setting8GetInt32ERKSsS1_Rii
002f0300  w   DO .bss	00000004 _ZZN11SingletonExI7SettingE9_instanceEvE1p
000b2a80  w   DF .text	000000a0 _ZNK4Task18MaxDataBufferCountEv
000b1bb4 g    DF .text	00000070 _ZN12ThundereTask16NotifyTaskFinishEiSs
000c17a8 g    DF .text	00000428 _ZN8P2spTask16NotifyTaskFinishEiSs
000b1c24 g    DF .text	00000008 _ZThn388_N12ThundereTask16NotifyTaskFinishEiSs
000b1c2c g    DF .text	00000008 _ZThn380_N12ThundereTask16NotifyTaskFinishEiSs
000b1c34 g    DF .text	0000007c _ZN12ThundereTask15GetUrlQuickInfoERSsS0_Rx
000f64c0 g    DF .text	00000088 _ZN17http_content_type24get_content_type_by_nameERKSs
000b1cb0 g    DF .text	00000080 _ZN12ThundereTaskC2Ev
000c47b8 g    DF .text	00000274 _ZN8P2spTaskC2E13_XL_TASK_TYPE
002de068 g    DO .data.rel.ro	000001d4 _ZTV12ThundereTask
000b1cb0 g    DF .text	00000080 _ZN12ThundereTaskC1Ev
000b1d30 g    DF .text	00000110 _ZN12ThundereTask13SetTaskFinishEi
0013580c g    DF .text	00000020 _ZN14TaskStatModule15AddTaskStatInfoEiRKSsyi
00135788 g    DF .text	00000014 _ZN14TaskStatModule15AddTaskStatInfoEiRKSsS1_
002f02fc  w   DO .bss	00000004 _ZZN11SingletonExI14TaskStatModuleE9_instanceEvE1p
002e8004  w   DO .data	00000064 _ZZN4Task17GetTaskStatusNameE15_XL_TASK_STATUSE12szStatusName
000b2b20  w   DF .text	00000038 _ZN3UriD2Ev
000b2b20  w   DF .text	00000038 _ZN3UriD1Ev
000b1e40 g    DF .text	000000b0 _ZN12ThundereTask18IsUriSchemaSupportESs
000f793c g    DF .text	00000030 _ZN3UriC1Ev
000f85fc g    DF .text	00000404 _ZN3Uri8ParseUrlERKSsRS_
00169550 g    DF .text	00000074 _ZN19BasicTypeConversion7ToLowerERSs
00167a0c g    DF .text	00000044 _ZN10CheckConst14getthunderekssEv
00000000      DF *UND*	00000000 memcmp
000b2b58  w   DF .text	0000003c _ZNSt6vectorISsSaISsEED2Ev
000b2b58  w   DF .text	0000003c _ZNSt6vectorISsSaISsEED1Ev
000b2b94  w   DF .text	00000030 _ZStplIcSt11char_traitsIcESaIcEESbIT_T0_T1_ERKS6_PKS3_
000b2bc4  w   DF .text	00000044 _ZNSt6vectorI8KeyValueISsSsESaIS1_EED2Ev
000b2bc4  w   DF .text	00000044 _ZNSt6vectorI8KeyValueISsSsESaIS1_EED1Ev
00000000      DF *UND*	00000000 strlen
000b1ef0 g    DF .text	000002e4 _ZN12ThundereTask16InitTaskStatDataEv
001677a8 g    DF .text	00000070 _ZN10CheckConst11getthunderEEv
000bb9fc g    DF .text	00005d24 _ZN8P2spTask16InitTaskStatDataEv
000b21d4 g    DF .text	00000158 _ZN12ThundereTask13OnQueryFailedEP12IHubProtocoli
001101fc g    DF .text	0000002c _ZNK13TaskIndexInfo18GetIndexQueryStateEv
000b80a0 g    DF .text	000001bc _ZN8P2spTask13OnQueryFailedEP12IHubProtocoli
000b232c g    DF .text	00000008 _ZThn384_N12ThundereTask13OnQueryFailedEP12IHubProtocoli
000b2334 g    DF .text	00000160 _ZN12ThundereTask18DoQueryThundereHubEv
001369b4 g    DF .text	00000048 _ZN25ProtocolQueryThundereInfoC1EP14IQueryHubEvent
001369fc g    DF .text	0000012c _ZN25ProtocolQueryThundereInfo12QueryResInfoERKSsyS1_
000b2494 g    DF .text	0000013c _ZN12ThundereTask9StartTaskEv
00000000      DF *UND*	00000000 memset
000d9510 g    DF .text	00000678 _Z21thundere_extract_linkPcP21tagTHUNDERE_LINK_INFO
000c256c g    DF .text	000003dc _ZN8P2spTask9StartTaskEv
00176b2c g    DF .text	00000044 sd_time_ms
000b95b4 g    DF .text	0000001c _ZN8P2spTask15IsOnlyUseOriginEv
000b25d0 g    DF .text	000000ac _ZN12ThundereTask13NotifyLoadCfgEib
00110278 g    DF .text	00000040 _ZNK13TaskIndexInfo8FileSizeERy
00110d4c g    DF .text	00000094 _ZN13TaskIndexInfo5ResetEv
000b961c g    DF .text	00000124 _ZN8P2spTask13NotifyLoadCfgEib
000b267c g    DF .text	00000008 _ZThn380_N12ThundereTask13NotifyLoadCfgEib
000b2684 g    DF .text	00000204 _ZN12ThundereTask14OnQuerySuccessEP12IHubProtocolP16ProtocolResponse
000c2178 g    DF .text	0000022c _ZN8P2spTask19SetDownloadStrategyEj
000b7cc8 g    DF .text	000003ac _ZN8P2spTask14OnQuerySuccessEP12IHubProtocolP16ProtocolResponse
00134d5c g    DF .text	00000008 _ZN14TaskStatModule20GetTaskEnduranceTimeEi
000b90f8 g    DF .text	00000088 _ZN8P2spTask14SetIndexDirectERKSsS1_S1_byj
00110b2c g    DF .text	0000016c _ZN13TaskIndexInfo15TryDoIndexQueryEv
000b2888 g    DF .text	00000008 _ZThn384_N12ThundereTask14OnQuerySuccessEP12IHubProtocolP16ProtocolResponse
000b2c7c  w   DF .text	00000038 _ZNSt8_Rb_treeIP13P2pUploadPipeS1_St9_IdentityIS1_ESt4lessIS1_ESaIS1_EE8_M_eraseEPSt13_Rb_tree_nodeIS1_E
000b2cb4  w   DF .text	00000040 _ZNSt8_Rb_treeISsSsSt9_IdentityISsESt4lessISsESaISsEE8_M_eraseEPSt13_Rb_tree_nodeISsE
000b2cf4  w   DF .text	000000b4 _ZN4TaskD2Ev
00110de0 g    DF .text	000000f4 _ZN13TaskIndexInfoD1Ev
002de338 g    DO .data.rel.ro	000000b0 _ZTV4Task
000b2cf4  w   DF .text	000000b4 _ZN4TaskD1Ev
000b2da8  w   DF .text	0000001c _ZN4TaskD0Ev
000b2dc4  w   DF .text	00000178 _ZN8P2spTaskD2Ev
00156614 g    DF .text	00000034 _ZN10RangeQueueD1Ev
002de4c8 g    DO .data.rel.ro	000001d4 _ZTV8P2spTask
000b2dc4  w   DF .text	00000178 _ZN8P2spTaskD1Ev
000b2f3c  w   DF .text	00000008 _ZThn380_N8P2spTaskD1Ev
000b2f44  w   DF .text	00000008 _ZThn376_N8P2spTaskD1Ev
000b2f4c  w   DF .text	0000001c _ZN8P2spTaskD0Ev
000b2f68  w   DF .text	00000008 _ZThn380_N8P2spTaskD0Ev
000b2f70  w   DF .text	00000008 _ZThn376_N8P2spTaskD0Ev
000b2890 g    DF .text	0000006c _ZN12ThundereTaskD2Ev
000b2890 g    DF .text	0000006c _ZN12ThundereTaskD1Ev
000b28fc g    DF .text	00000008 _ZThn380_N12ThundereTaskD1Ev
000b2904 g    DF .text	00000008 _ZThn376_N12ThundereTaskD1Ev
000b290c g    DF .text	0000001c _ZN12ThundereTaskD0Ev
000b2928 g    DF .text	00000008 _ZThn380_N12ThundereTaskD0Ev
000b2930 g    DF .text	00000008 _ZThn376_N12ThundereTaskD0Ev
002de000  w   DO .data.rel.ro	00000008 _ZTI21IDataManagerWriteData
00000000      DO *UND*	00000000 _ZTVN10__cxxabiv117__class_type_infoE
0028d808  w   DO .rodata	00000018 _ZTS21IDataManagerWriteData
002de008  w   DO .data.rel.ro	00000008 _ZTI17IDataManagerEvent
0028d820  w   DO .rodata	00000014 _ZTS17IDataManagerEvent
0028d834 g    DO .rodata	0000000f _ZTS12ThundereTask
002de058 g    DO .data.rel.ro	0000000c _ZTI12ThundereTask
002de010  w   DO .data.rel.ro	00000018 _ZTV21IDataManagerWriteData
00000000      DF *UND*	00000000 __cxa_pure_virtual
002de028  w   DO .data.rel.ro	00000030 _ZTV17IDataManagerEvent
00000000      DO *UND*	00000000 _ZTVN10__cxxabiv120__si_class_type_infoE
002de480 g    DO .data.rel.ro	00000048 _ZTI8P2spTask
000b6610 g    DF .text	00000144 _ZN4Task15AllocDataBufferEPPcjiPKci
000b6b50 g    DF .text	00000084 _ZN8P2spTask21SetDownloadTaskOriginERKSs
000b782c g    DF .text	000000a0 _ZN8P2spTask16SetFileNameLaterEPKcj
000c5fc8 g    DF .text	000000cc _ZN8P2spTask14SetTaskLxStateEji
000c6094 g    DF .text	00000130 _ZN8P2spTask14SetTaskGsStateE25_HIGH_SPEED_CHANNEL_STATEi
000b6c74 g    DF .text	000000f4 _ZN8P2spTask28SwitchOriginToAllResDownloadEv
000c4a2c g    DF .text	00000384 _ZN8P2spTask17AddServerResourceERKSsS1_S1_j16RES_USE_STRATEGYi
000c4db0 g    DF .text	000003d0 _ZN8P2spTask15AddPeerResourceEP15P2PResourceInfojyRKSsS3_i
000ba6e4 g    DF .text	0000002c _ZN8P2spTask22RemoveSpecialResourcesEji
000b7524 g    DF .text	00000300 _ZN8P2spTask11GetTaskInfoEP19TAG_XL_TASK_INFO_EX
000b7824 g    DF .text	00000008 _ZN8P2spTask13GetTaskInfoExEP20TAG_XL_TASK_INFO_EEX
000ba710 g    DF .text	00000148 _ZN8P2spTask16GetTaskCheckInfoEP22TAG_XL_TASK_CHECK_INFO
000b6a80 g    DF .text	00000008 _ZN8P2spTask20GetTaskDownLoadSpeedEv
000b95d0 g    DF .text	0000004c _ZN8P2spTask12RequeryIndexEv
000ba858 g    DF .text	000000b8 _ZN8P2spTask13RemoveTaskCfgEv
000b78cc g    DF .text	00000120 _ZN8P2spTask11InitManagerEv
000b6ae8 g    DF .text	00000068 _ZN8P2spTask13UnInitManagerEv
000b79ec g    DF .text	0000014c _ZN8P2spTask18GetHttpHeadersInfoEjP19TAG_DOWNLOAD_HEADER
000b6bd4 g    DF .text	00000024 _ZN8P2spTask7GetGcidERSs
000b6a88 g    DF .text	00000020 _ZN8P2spTask16GetDataWithRangeEP15GetDataListenerRK5rangePPc
000b6aa8 g    DF .text	00000018 _ZN8P2spTask21CancelReadFileDataMsgEP15GetDataListener
000b6ac0 g    DF .text	00000010 _ZNK8P2spTask20GetCheckedRangeQueueER10RangeQueue
000b742c g    DF .text	000000f0 _ZN8P2spTask17DoSessionDownloadEP16ISessionListener
000b6ad0 g    DF .text	00000010 _ZN8P2spTask15OnSessionUninitEP16ISessionListener
000b6a14 g    DF .text	00000008 _ZN8P2spTask21NotifyTaskInfoChangedEi
000c1be0 g    DF .text	000000ac _ZN8P2spTask27NotifyWholeOriginBlockErrorEv
000b7c88 g    DF .text	00000038 _ZN8P2spTask16NotifyErrorBlockEP9IResourceRK5range
000ba168 g    DF .text	00000004 _ZN8P2spTask19NotifyHasErrorBlockEv
000b6d68 g    DF .text	00000038 _ZN8P2spTask24NotifyOriginErrorTooMuchEv
000c5d50 g    DF .text	00000248 _ZN8P2spTask21NotifyIndexInfoChangeE15IndexChangeType
000ba174 g    DF .text	0000004c _ZN8P2spTask23NotifyLoseFaithInOriginEv
000c23a4 g    DF .text	00000178 _ZN8P2spTask18OnIndexInfoFromHubERKSsjjj16IndexQueryByWhat
000b939c g    DF .text	000000c0 _ZN8P2spTask22OnIndexInfoFromHubFailE20QueryIndexFailReason
000b69e8 g    DF .text	00000024 _ZN8P2spTask23OnUrlHubIndexIncompleteEi
000c43a4 g    DF .text	00000414 _ZN8P2spTask27QueryServerResourceCallBackEiRSt6vectorIP14ServerResourceSaIS2_EE
000b8264 g    DF .text	0000050c _ZN8P2spTask20QueryTrackerCallBackEiRSt6vectorIP12PeerResourceSaIS2_EE
000b6da8 g    DF .text	0000037c _ZN8P2spTask24QueryP2pResourceCallBackEiRSt6vectorIP15P2PResourceInfoSaIS2_EE
000b7124 g    DF .text	00000308 _ZN8P2spTask26QueryDPhubResourceCallBackEiRSt6vectorIP15DPhubPeerRcInfoSaIS2_EE
000ba910 g    DF .text	000007f0 _ZN8P2spTask25QueryAntiResourceCallBackEiRSt6vectorIP7CdnInfoSaIS2_EE
000b6a24 g    DF .text	0000003c _ZN8P2spTask26OutputDataAndReleaseBufferEP9IResourcePPcyj
000c1c94 g    DF .text	00000440 _ZN8P2spTask21OnOriginFirstResponseEP9IResourcebyb
000b807c g    DF .text	0000001c _ZN8P2spTask21OnOriginPipeConnStateEb
000b7b38 g    DF .text	000000a8 _ZN8P2spTask11OnRecvBytesEP9IResource5range
000b6bf8 g    DF .text	00000074 _ZN8P2spTask18OnNeedMoreResourceEv
000c20dc g    DF .text	00000094 _ZN8P2spTask27AbandonResourceExpectOriginEv
000b6a68 g    DF .text	00000010 _ZN8P2spTask23ResetFilesizeByCompressEy
000c5fa0 g    DF .text	00000004 _ZN8P2spTask22RetryQueryDcdnResourceEv
000c5180 g    DF .text	000006ec _ZN8P2spTask17QueryDcdnCallBackEiRSt6vectorIP15P2PResourceInfoSaIS2_EERSsyy
000bb674 g    DF .text	0000017c _ZN8P2spTask24PeriodGetDownloadingInfoEv
000b751c g    DF .text	00000008 _ZThn4_N8P2spTask17DoSessionDownloadEP16ISessionListener
000b6ae0 g    DF .text	00000008 _ZThn4_N8P2spTask15OnSessionUninitEP16ISessionListener
000b6a60 g    DF .text	00000008 _ZThn376_N8P2spTask26OutputDataAndReleaseBufferEP9IResourcePPcyj
000b6a1c g    DF .text	00000008 _ZThn380_N8P2spTask21NotifyTaskInfoChangedEi
000b7cc0 g    DF .text	00000008 _ZThn380_N8P2spTask16NotifyErrorBlockEP9IResourceRK5range
000c1c8c g    DF .text	00000008 _ZThn380_N8P2spTask27NotifyWholeOriginBlockErrorEv
000ba16c g    DF .text	00000008 _ZThn380_N8P2spTask19NotifyHasErrorBlockEv
000b6da0 g    DF .text	00000008 _ZThn380_N8P2spTask24NotifyOriginErrorTooMuchEv
000c20d4 g    DF .text	00000008 _ZThn388_N8P2spTask21OnOriginFirstResponseEP9IResourcebyb
000b8098 g    DF .text	00000008 _ZThn388_N8P2spTask21OnOriginPipeConnStateEb
000b7be0 g    DF .text	00000008 _ZThn388_N8P2spTask11OnRecvBytesEP9IResource5range
000b6c6c g    DF .text	00000008 _ZThn388_N8P2spTask18OnNeedMoreResourceEv
000c2170 g    DF .text	00000008 _ZThn388_N8P2spTask27AbandonResourceExpectOriginEv
000b6a78 g    DF .text	00000008 _ZThn388_N8P2spTask23ResetFilesizeByCompressEy
000c5fa4 g    DF .text	00000008 _ZThn388_N8P2spTask22RetryQueryDcdnResourceEv
000c5f98 g    DF .text	00000008 _ZThn392_N8P2spTask21NotifyIndexInfoChangeE15IndexChangeType
000ba1c0 g    DF .text	00000008 _ZThn392_N8P2spTask23NotifyLoseFaithInOriginEv
000c251c g    DF .text	00000008 _ZThn392_N8P2spTask18OnIndexInfoFromHubERKSsjjj16IndexQueryByWhat
000b945c g    DF .text	00000008 _ZThn392_N8P2spTask22OnIndexInfoFromHubFailE20QueryIndexFailReason
000b6a0c g    DF .text	00000008 _ZThn392_N8P2spTask23OnUrlHubIndexIncompleteEi
000c586c g    DF .text	00000008 _ZThn396_N8P2spTask17QueryDcdnCallBackEiRSt6vectorIP15P2PResourceInfoSaIS2_EERSsyy
000b2f78 g    DF .text	00000064 _Z19ContvertNetWorkType11NetWorkType14NetWorkCarrier
000b2fdc g    DF .text	000000c4 _Z10GetNetTypeRKSsR8NetParam
000b30a0 g    DF .text	000000a4 _Z14GetControlInfoRKSsR15TaskControlInfo
000b3144 g    DF .text	0000004c _Z25GetPhoneMostStrictControlRKSt3mapI8NetParam15TaskControlInfoSt4lessIS0_ESaISt4pairIKS0_S1_EEE
000b3190 g    DF .text	0000017c _Z12GetReallyUrlR3Uri
000f7b18 g    DF .text	00000090 _ZNK3Uri5queryEv
000f8a00 g    DF .text	00000198 _ZNK3Uri9to_stringEv
000b330c g    DF .text	00000208 _Z26GetReallyUrlFromThunderUrlPKcjP20TAG_THUNDER_URL_INFO
00169e18 g    DF .text	00000038 sd_memcmp
00000000      DF *UND*	00000000 _Znaj
0017655c g    DF .text	000001f4 sd_base64_decode
001699bc g    DF .text	0000000c sd_strlen
00000000      DF *UND*	00000000 _ZdaPv
000fa968 g    DF .text	00000080 _ZN3url13CheckIsEncodeERKSs
000fab0c g    DF .text	00000104 _ZN3url9UrlDecodeERKSs
0015c46c g    DF .text	000000d0 _ZN8sd_iconv7to_utf8ERKSs
0016998c g    DF .text	00000030 sd_strncpy
000b3514 g    DF .text	00000144 _Z24ParseFileNameFromHttpUrlRSsS_
000b3658 g    DF .text	00000094 _Z23ParseFileNameFromFtpUrlRSsS_
000b36ec g    DF .text	000001a4 _Z23ParseFileNameFromCidUrlRSsS_
001679d0 g    DF .text	0000003c _ZN10CheckConst9getlfilelEv
000b3890 g    DF .text	00000154 _Z24ParseFileNameFromFileUrlRSsS_
001701a8 g    DF .text	000000e0 _ZN8ThunderzC1EPKc
0016efc0 g    DF .text	000000d4 _ZN8Thunderz13getFilesCountEPb
0016efa8 g    DF .text	00000018 _ZN8Thunderz13getFolderNameEv
0016f324 g    DF .text	00000164 _ZN8Thunderz11getFileNameEiPcj
0016ebf8 g    DF .text	00000044 _ZN8ThunderzD1Ev
000b39e4 g    DF .text	000007dc _Z20ParseFileNameFromUrlPKcjPcj
00167a50 g    DF .text	00000070 _ZN10CheckConst13getthundermssEv
0016767c g    DF .text	00000050 _ZN10CheckConst5getxtEv
00167890 g    DF .text	00000044 _ZN10CheckConst11getthunderzEv
000b4718  w   DF .text	00000080 _ZN9SingletonI10GlobalInfoE11GetInstanceEv
000b41c0 g    DF .text	000001f0 _Z23ParseNetControlInfoMapsRKSsRSt3mapI8NetParam15TaskControlInfoSt4lessIS2_ESaISt4pairIKS2_S3_EEE
00169650 g    DF .text	00000104 _ZN19BasicTypeConversion12DivideStringERKSscRSt6vectorISsSaISsEE
00169390 g    DF .text	000000a4 _ZN19BasicTypeConversion14NameValueParseEPKcicRSsS2_
000b4798  w   DF .text	00000038 _ZNSt8_Rb_treeI8NetParamSt4pairIKS0_15TaskControlInfoESt10_Select1stIS4_ESt4lessIS0_ESaIS4_EE8_M_eraseEPSt13_Rb_tree_nodeIS4_E
000b47d0  w   DF .text	00000058 _ZNKSt8_Rb_treeI8NetParamSt4pairIKS0_15TaskControlInfoESt10_Select1stIS4_ESt4lessIS0_ESaIS4_EE4findERS2_
000b43b0 g    DF .text	0000008c _Z24GetSpecailNetControlInfo12InnerNetTypeRKSt3mapI8NetParam15TaskControlInfoSt4lessIS1_ESaISt4pairIKS1_S2_EEERS2_
000b443c g    DF .text	00000114 _Z14GetControlInfoRKSs11NetWorkType14NetWorkCarrier
000b4550 g    DF .text	000001c8 _Z14GetControlInfoRK3Uri
00173158 g    DF .text	00000008 _ZN10GlobalInfo14GetNetWorkTypeEv
00173168 g    DF .text	00000008 _ZN10GlobalInfo17GetNetWorkCarrierEv
000b5b64  w   DF .text	00000004 _ZN14TaskMemoryFreeD2Ev
000b5b64  w   DF .text	00000004 _ZN14TaskMemoryFreeD1Ev
000b5b68  w   DF .text	00000014 _ZN14TaskMemoryFreeD0Ev
000b5b7c  w   DF .text	00000028 _ZN5MutexD2Ev
00000000      DF *UND*	00000000 pthread_mutex_destroy
002de2c0  w   DO .data.rel.ro	00000010 _ZTV5Mutex
000b5b7c  w   DF .text	00000028 _ZN5MutexD1Ev
000b5ba4  w   DF .text	0000001c _ZN5MutexD0Ev
000b5bc0  w   DF .text	00000018 _ZN14TaskMemoryFree14FreeDataBufferEPc
0016c990 g    DF .text	00000028 _Z33xl_get_thread_task_memory_managerv
001756dc g    DF .text	00000198 _ZN14TaskDataMemroy10FreeMemoryEPc
000b5bd8  w   DF .text	0000000c _ZN21ThreeCIDMemoryManager14FreeDataBufferEPc
000b5be4  w   DF .text	00000008 _ZThn4_N21ThreeCIDMemoryManager14FreeDataBufferEPc
000b5bec  w   DF .text	0000001c _ZN21ThreeCIDMemoryManager15AllocDataBufferEPPcjiPKci
0017552c g    DF .text	00000008 _Z12reset_noticePv
000b5c08  w   DF .text	0000002c _ZN5MutexC2Ev
00000000      DF *UND*	00000000 pthread_mutex_init
000b5c08  w   DF .text	0000002c _ZN5MutexC1Ev
000b5c34  w   DF .text	0000001c _ZN10ScopedLockD2Ev
00000000      DF *UND*	00000000 pthread_mutex_unlock
000b5c34  w   DF .text	0000001c _ZN10ScopedLockD1Ev
000b4844 g    DF .text	00000014 _Z27get_main_download_thread_idv
000b4858 g    DF .text	00000004 _Z27notify_download_main_threadv
000b485c g    DF .text	00000010 _Z14handle_sdk_msgv
00000000      DF *UND*	00000000 __aeabi_unwind_cpp_pr1
0016c134 g    DF .text	00000048 _Z22xl_thread_manager_initv
0016c2fc g    DF .text	00000264 _Z16xl_create_threadPFvPvES_S1_S_iPl
0016c560 g    DF .text	0000006c _Z14xl_stop_threadl
0016c17c g    DF .text	00000180 _Z23xl_thread_manager_uinitv
00137848 g    DF .text	00000240 _ZN12IHubProtocol14BuildReserve6xERjb
000b4990 g    DF .text	00000014 _Z19download_sdk_notifyv
00175508 g    DF .text	00000018 _Z6noticePv
000b5c50  w   DF .text	00000114 _ZN11SingletonExI11P2pStatInfoE14CreateInstanceEv
00000000      DF *UND*	00000000 pthread_mutex_lock
0012f8fc g    DF .text	000000c8 _ZN11P2pStatInfoC1Ev
002f0424  w   DO .bss	00000004 _ZGVZN11SingletonExI11P2pStatInfoE6_mutexEvE1m
002f0320  w   DO .bss	00000008 _ZZN11SingletonExI11P2pStatInfoE6_mutexEvE1m
002f0350  w   DO .bss	00000004 _ZZN11SingletonExI11P2pStatInfoE9_instanceEvE1p
002f031c  w   DO .bss	00000004 _ZZN11SingletonExI11P2pStatInfoE4_refEvE3ref
000b5d64  w   DF .text	0000010c _ZN11SingletonExI14SessionManagerE15DestroyInstanceEv
001881e0 g    DF .text	0000002c _ZN14SessionManagerD1Ev
002f0400  w   DO .bss	00000004 _ZGVZN11SingletonExI14SessionManagerE6_mutexEvE1m
002f03f4  w   DO .bss	00000008 _ZZN11SingletonExI14SessionManagerE6_mutexEvE1m
002f03f0  w   DO .bss	00000004 _ZZN11SingletonExI14SessionManagerE4_refEvE3ref
002f03fc  w   DO .bss	00000004 _ZZN11SingletonExI14SessionManagerE9_instanceEvE1p
000b5e70  w   DF .text	00000080 _ZN11SingletonExI18DataCheckerFactoryE6_mutexEv
002f0438  w   DO .bss	00000004 _ZGVZN11SingletonExI18DataCheckerFactoryE6_mutexEvE1m
002f0368  w   DO .bss	00000008 _ZZN11SingletonExI18DataCheckerFactoryE6_mutexEvE1m
000b5ef0  w   DF .text	00000080 _ZN11SingletonExI21ThreeCIDMemoryManagerE6_mutexEv
002f0434  w   DO .bss	00000004 _ZGVZN11SingletonExI21ThreeCIDMemoryManagerE6_mutexEvE1m
002f035c  w   DO .bss	00000008 _ZZN11SingletonExI21ThreeCIDMemoryManagerE6_mutexEvE1m
000b5f70  w   DF .text	00000080 _ZN11SingletonExI7SettingE6_mutexEv
002f0430  w   DO .bss	00000004 _ZGVZN11SingletonExI7SettingE6_mutexEvE1m
002f032c  w   DO .bss	00000008 _ZZN11SingletonExI7SettingE6_mutexEvE1m
000b5ff0  w   DF .text	00000080 _ZN11SingletonExI17HubClientsManagerE6_mutexEv
002f042c  w   DO .bss	00000004 _ZGVZN11SingletonExI17HubClientsManagerE6_mutexEvE1m
002f037c  w   DO .bss	00000008 _ZZN11SingletonExI17HubClientsManagerE6_mutexEvE1m
000b6070  w   DF .text	00000080 _ZN11SingletonExI14TaskStatModuleE6_mutexEv
002f0428  w   DO .bss	00000004 _ZGVZN11SingletonExI14TaskStatModuleE6_mutexEvE1m
002f0338  w   DO .bss	00000008 _ZZN11SingletonExI14TaskStatModuleE6_mutexEvE1m
000b60f0  w   DF .text	00000080 _ZN11SingletonExI14SettingManagerE6_mutexEv
002f0420  w   DO .bss	00000004 _ZGVZN11SingletonExI14SettingManagerE6_mutexEvE1m
002f0388  w   DO .bss	00000008 _ZZN11SingletonExI14SettingManagerE6_mutexEvE1m
000b6170  w   DF .text	00000080 _ZN11SingletonExI19DcdnAccountsManagerE6_mutexEv
002f041c  w   DO .bss	00000004 _ZGVZN11SingletonExI19DcdnAccountsManagerE6_mutexEvE1m
002f0398  w   DO .bss	00000008 _ZZN11SingletonExI19DcdnAccountsManagerE6_mutexEvE1m
000b61f0  w   DF .text	00000080 _ZN11SingletonExI12SpeedLimitorE6_mutexEv
002f0418  w   DO .bss	00000004 _ZGVZN11SingletonExI12SpeedLimitorE6_mutexEvE1m
002f03dc  w   DO .bss	00000008 _ZZN11SingletonExI12SpeedLimitorE6_mutexEvE1m
000b6270  w   DF .text	00000080 _ZN11SingletonExI11TaskManagerE6_mutexEv
002f0414  w   DO .bss	00000004 _ZGVZN11SingletonExI11TaskManagerE6_mutexEvE1m
002f03e8  w   DO .bss	00000008 _ZZN11SingletonExI11TaskManagerE6_mutexEvE1m
000b62f0  w   DF .text	00000080 _ZN11SingletonExI12DPhubManagerE6_mutexEv
002f0410  w   DO .bss	00000004 _ZGVZN11SingletonExI12DPhubManagerE6_mutexEvE1m
002f03ac  w   DO .bss	00000008 _ZZN11SingletonExI12DPhubManagerE6_mutexEvE1m
000b6370  w   DF .text	00000080 _ZN11SingletonExI15TaskCrucialInfoE6_mutexEv
002f040c  w   DO .bss	00000004 _ZGVZN11SingletonExI15TaskCrucialInfoE6_mutexEvE1m
002f03bc  w   DO .bss	00000008 _ZZN11SingletonExI15TaskCrucialInfoE6_mutexEvE1m
000b63f0  w   DF .text	00000080 _ZN11SingletonExI5UpnpcE6_mutexEv
002f0408  w   DO .bss	00000004 _ZGVZN11SingletonExI5UpnpcE6_mutexEvE1m
002f0348  w   DO .bss	00000008 _ZZN11SingletonExI5UpnpcE6_mutexEvE1m
000b6470  w   DF .text	00000080 _ZN11SingletonExI17UploadSpeedContrlE6_mutexEv
002f0404  w   DO .bss	00000004 _ZGVZN11SingletonExI17UploadSpeedContrlE6_mutexEvE1m
002f03cc  w   DO .bss	00000008 _ZZN11SingletonExI17UploadSpeedContrlE6_mutexEvE1m
00173528 g    DF .text	00000098 _Z23xl_init_thread_msg_poolj
00191944 g    DF .text	00000010 _ZN18DataCheckerFactoryC1Ev
00191958 g    DF .text	00000044 _ZN18DataCheckerFactory4initEv
001562d4 g    DF .text	00000044 _Z20xl_alloc_file_systemv
0015632c g    DF .text	00000048 _Z27xl_start_file_system_threadP15TAG_FILE_SYSTEM
0016c94c g    DF .text	00000044 _Z34xl_init_thread_task_memory_managerv
0016c844 g    DF .text	00000048 _Z23xl_initial_thread_timerv
0016c8f8 g    DF .text	0000002c _Z25xl_set_thread_file_systemPv
0015e8e4 g    DF .text	00000004 sd_get_self_taskid
00150534 g    DF .text	00000110 _Z19xl_net_reactor_initPv
00152ea0 g    DF .text	000000a4 _Z16xl_dns_wrap_initv
0017546c g    DF .text	00000050 _Z34create_notice_handle_with_callbackPPvS0_PFvP7ev_loopP8ev_asynciE
0016c7f4 g    DF .text	00000028 _Z18get_wait_containerv
001754d8 g    DF .text	0000001c _Z17add_notice_handlePvS_
0010f9f0 g    DF .text	00000018 _ZN7SettingC1Ev
00146328 g    DF .text	00000044 _ZN17HubClientsManagerC1Ev
00133c60 g    DF .text	00000040 _ZN14TaskStatModuleC1Ev
00133fe4 g    DF .text	0000036c _ZN14TaskStatModule4InitEv
00130bd0 g    DF .text	00000180 _ZN11P2pStatInfo4InitEv
0010e430 g    DF .text	0000004c _ZN14SettingManagerC1Ev
0010f894 g    DF .text	0000001c _ZN14SettingManager4InitEv
0018235c g    DF .text	00000090 _ZN19DcdnAccountsManagerC1Ev
00150084 g    DF .text	00000120 _ZN12SpeedLimitorC1Ev
000d9c0c g    DF .text	00000040 _ZN11TaskManagerC1Ev
00147094 g    DF .text	00000188 _ZN12DPhubManagerC1Ev
0012ee48 g    DF .text	00000044 _ZN15TaskCrucialInfoC1Ev
0011fc6c g    DF .text	00000074 PtlNewNatCheck_init
00172fb8 g    DF .text	00000008 _ZN10GlobalInfo14GetMiuiVersionEv
00172f94 g    DF .text	00000024 _ZN10GlobalInfo14SetMiuiVersionEPKcj
00124e24 g    DF .text	0000002c _ZN5UpnpcC1Ev
000d8460 g    DF .text	0000001c _ZN17UploadSpeedContrlC1Ev
0015ea44 g    DF .text	00000014 _ZN14PermissionCtrl19ActiveNetworkOnInitEv
0010eaa0 g    DF .text	000000c4 _ZN14SettingManager18TryQueryNewSettingEv
00182158 g    DF .text	00000034 _ZN19DcdnAccountsManager4InitEv
00133cf4 g    DF .text	00000008 _ZN14TaskStatModule15SetReportSwitchEb
002f0370  w   DO .bss	00000004 _ZZN11SingletonExI18DataCheckerFactoryE9_instanceEvE1p
002f0364  w   DO .bss	00000004 _ZZN11SingletonExI18DataCheckerFactoryE4_refEvE3ref
002f0354  w   DO .bss	00000004 _ZZN11SingletonExI21ThreeCIDMemoryManagerE9_instanceEvE1p
002f0358  w   DO .bss	00000004 _ZZN11SingletonExI21ThreeCIDMemoryManagerE4_refEvE3ref
002de2e8  w   DO .data.rel.ro	00000024 _ZTV21ThreeCIDMemoryManager
002de2d0  w   DO .data.rel.ro	00000014 _ZTV14TaskMemoryFree
002f04cc g    DO .bss	00000004 _ZN14TaskMemoryFree11m_pInstanceE
002f1e68 g    DO .bss	00000004 g_net_thread_id
002f0328  w   DO .bss	00000004 _ZZN11SingletonExI7SettingE4_refEvE3ref
002f0374  w   DO .bss	00000004 _ZZN11SingletonExI17HubClientsManagerE9_instanceEvE1p
002f0378  w   DO .bss	00000004 _ZZN11SingletonExI17HubClientsManagerE4_refEvE3ref
002f0334  w   DO .bss	00000004 _ZZN11SingletonExI14TaskStatModuleE4_refEvE3ref
002f0390  w   DO .bss	00000004 _ZZN11SingletonExI14SettingManagerE9_instanceEvE1p
002f0384  w   DO .bss	00000004 _ZZN11SingletonExI14SettingManagerE4_refEvE3ref
002f03a0  w   DO .bss	00000004 _ZZN11SingletonExI19DcdnAccountsManagerE9_instanceEvE1p
002f0394  w   DO .bss	00000004 _ZZN11SingletonExI19DcdnAccountsManagerE4_refEvE3ref
002f03d4  w   DO .bss	00000004 _ZZN11SingletonExI12SpeedLimitorE9_instanceEvE1p
002f03d8  w   DO .bss	00000004 _ZZN11SingletonExI12SpeedLimitorE4_refEvE3ref
002f03e4  w   DO .bss	00000004 _ZZN11SingletonExI11TaskManagerE4_refEvE3ref
002f03a4  w   DO .bss	00000004 _ZZN11SingletonExI12DPhubManagerE9_instanceEvE1p
002f03a8  w   DO .bss	00000004 _ZZN11SingletonExI12DPhubManagerE4_refEvE3ref
002f03b4  w   DO .bss	00000004 _ZZN11SingletonExI15TaskCrucialInfoE9_instanceEvE1p
002f03b8  w   DO .bss	00000004 _ZZN11SingletonExI15TaskCrucialInfoE4_refEvE3ref
002f0340  w   DO .bss	00000004 _ZZN11SingletonExI5UpnpcE9_instanceEvE1p
002f0344  w   DO .bss	00000004 _ZZN11SingletonExI5UpnpcE4_refEvE3ref
002f03c4  w   DO .bss	00000004 _ZZN11SingletonExI17UploadSpeedContrlE9_instanceEvE1p
002f03c8  w   DO .bss	00000004 _ZZN11SingletonExI17UploadSpeedContrlE4_refEvE3ref
000b64f0  w   DF .text	00000120 _ZNSt6vectorIP7TAG_MSGSaIS1_EE13_M_insert_auxEN9__gnu_cxx17__normal_iteratorIPS1_S3_EERKS1_
00000000      DF *UND*	00000000 memmove
0016c5cc g    DF .text	00000028 _Z19xl_need_stop_threadv
000d9c4c g    DF .text	00000070 _ZN11TaskManagerD1Ev
001501a4 g    DF .text	00000034 _ZN12SpeedLimitorD1Ev
000d851c g    DF .text	00000014 _ZN17UploadSpeedContrlD1Ev
00120048 g    DF .text	00000010 PtlNewNatCheck_uninit
0012ee8c g    DF .text	00000018 _ZN15TaskCrucialInfoD1Ev
0014721c g    DF .text	000000d0 _ZN12DPhubManagerD1Ev
0018222c g    DF .text	00000040 _ZN19DcdnAccountsManager6UninitEv
001823ec g    DF .text	00000060 _ZN19DcdnAccountsManagerD1Ev
0010efe8 g    DF .text	00000038 _ZN14SettingManager6UninitEv
0010f1cc g    DF .text	00000064 _ZN14SettingManagerD1Ev
00146480 g    DF .text	00000098 _ZN17HubClientsManagerD1Ev
00156374 g    DF .text	00000028 _Z26xl_stop_file_system_threadP15TAG_FILE_SYSTEM
00156318 g    DF .text	00000014 _Z19xl_free_file_systemP15TAG_FILE_SYSTEM
0019199c g    DF .text	00000034 _ZN18DataCheckerFactory6uninitEv
00191954 g    DF .text	00000004 _ZN18DataCheckerFactoryD1Ev
00152f44 g    DF .text	00000088 _Z18xl_dns_wrap_uninitv
0016c65c g    DF .text	000000c8 _Z11pop_messagePPv
0016c8d0 g    DF .text	00000028 _Z19xl_get_thread_timerv
0015e0d4 g    DF .text	00000218 _ZN7xlTimer9PollTimerEv
0015186c g    DF .text	0000001c _Z16xl_net_poll_oncei
001755d8 g    DF .text	00000018 _ZN14TaskDataMemroyD1Ev
0012f9c4 g    DF .text	00000078 _ZN11P2pStatInfo6UnInitEv
00124e8c g    DF .text	00000014 _ZN5UpnpcD1Ev
0013436c g    DF .text	00000068 _ZN14TaskStatModule6UninitEv
00134350 g    DF .text	0000001c _ZN14TaskStatModuleD1Ev
0010fa08 g    DF .text	00000014 _ZN7SettingD1Ev
001754f4 g    DF .text	00000014 _Z17del_notice_handlePvS_
00175534 g    DF .text	00000050 _Z21destory_notice_handlePvS_
0016c88c g    DF .text	00000044 _Z23xl_unitial_thread_timerv
0015175c g    DF .text	000000d0 _Z21xl_net_reactor_uninitv
001734a8 g    DF .text	00000080 _Z25xl_uninit_thread_msg_poolv
002de240  w   DO .data.rel.ro	00000008 _ZTI11SingletonExI21ThreeCIDMemoryManagerE
0029724c  w   DO .rodata	00000027 _ZTS11SingletonExI21ThreeCIDMemoryManagerE
002de248  w   DO .data.rel.ro	00000008 _ZTI18IDataMemoryManager
00297274  w   DO .rodata	00000015 _ZTS18IDataMemoryManager
002de250  w   DO .data.rel.ro	00000008 _ZTI15IDataMemoryFree
0029728c  w   DO .rodata	00000012 _ZTS15IDataMemoryFree
002de258  w   DO .data.rel.ro	00000008 _ZTI5Mutex
002972a0  w   DO .rodata	00000007 _ZTS5Mutex
002de260  w   DO .data.rel.ro	0000000c _ZTI14TaskMemoryFree
002972a8  w   DO .rodata	00000011 _ZTS14TaskMemoryFree
002de26c  w   DO .data.rel.ro	00000028 _ZTI21ThreeCIDMemoryManager
00000000      DO *UND*	00000000 _ZTVN10__cxxabiv121__vmi_class_type_infoE
002972bc  w   DO .rodata	00000018 _ZTS21ThreeCIDMemoryManager
002de298  w   DO .data.rel.ro	00000014 _ZTV18IDataMemoryManager
002de2b0  w   DO .data.rel.ro	0000000c _ZTV15IDataMemoryFree
000b693c  w   DF .text	00000008 _ZN4Task14SetTaskLxStateEji
000b6944  w   DF .text	00000008 _ZN4Task14SetTaskGsStateE25_HIGH_SPEED_CHANNEL_STATEi
000b694c  w   DF .text	00000008 _ZN4Task17AddServerResourceERKSsS1_S1_j16RES_USE_STRATEGYi
000b6954  w   DF .text	00000008 _ZN4Task15AddPeerResourceEP15P2PResourceInfojyRKSsS3_i
000b695c  w   DF .text	00000008 _ZN4Task22RemoveSpecialResourcesEji
000b6964  w   DF .text	00000008 _ZN4Task13GetTaskInfoExEP20TAG_XL_TASK_INFO_EEX
000b696c  w   DF .text	00000008 _ZN4Task16GetTaskCheckInfoEP22TAG_XL_TASK_CHECK_INFO
000b6974  w   DF .text	0000000c _ZN4Task20GetTaskDownLoadSpeedEv
000b6980  w   DF .text	00000008 _ZN4Task13RemoveTaskCfgEv
000b6988  w   DF .text	0000000c _ZN4Task18GetHttpHeadersInfoEjP19TAG_DOWNLOAD_HEADER
000b6994  w   DF .text	0000000c _ZN4Task7GetGcidERSs
000b69a0  w   DF .text	0000000c _ZN4Task16GetDataWithRangeEP15GetDataListenerRK5rangePPc
000b69ac  w   DF .text	00000004 _ZN4Task21CancelReadFileDataMsgEP15GetDataListener
000b69b0  w   DF .text	0000000c _ZNK4Task20GetCheckedRangeQueueER10RangeQueue
000b69bc  w   DF .text	0000000c _ZN4Task17DoSessionDownloadEP16ISessionListener
000b69c8  w   DF .text	00000008 _ZThn4_N4Task17DoSessionDownloadEP16ISessionListener
000b69d0  w   DF .text	0000000c _ZN4Task15OnSessionUninitEP16ISessionListener
000b69dc  w   DF .text	00000008 _ZThn4_N4Task15OnSessionUninitEP16ISessionListener
0014f2e4 g    DF .text	0000008c _ZN12SpeedLimitor21GetDownloadSpeedCacheEv
001755f0 g    DF .text	000000ec _ZN14TaskDataMemroy11AllocMemoryEyjyPPcjiPKci
0014f3b4 g    DF .text	0000002c _ZN12SpeedLimitor19UpdateDownloadCacheEx
000b6754 g    DF .text	00000068 _ZN4Task15GetUrlQuickInfoERSsS0_Rx
000b67bc g    DF .text	000000d4 _ZN4Task7SetPathERKSs
000b6890 g    DF .text	000000ac _ZN4Task11SetFileNameERKSs
002de310  w   DO .data.rel.ro	00000008 _ZTI16IVodDataListener
002972d4  w   DO .rodata	00000013 _ZTS16IVodDataListener
002972e8 g    DO .rodata	00000006 _ZTS4Task
002de318 g    DO .data.rel.ro	00000020 _ZTI4Task
000c61c8  w   DF .text	00000004 _ZN18TaskIndexInfoEvent23OnUrlHubIndexIncompleteEi
000c61cc  w   DF .text	00000004 _ZN17IDispatcherEvents18OnNeedMoreResourceEv
000c61d0  w   DF .text	00000018 _Z17ServerResourceCmpP14ServerResourcePKS_
0011023c g    DF .text	00000014 _ZNK13TaskIndexInfo4GCIDEv
00110ed4 g    DF .text	00000010 _ZN13TaskIndexInfo13SetOriginOnlyEb
000deb54 g    DF .text	00000010 _ZN22P2spDownloadDispatcher18GetOrigionResourceEPP9IResource
000de17c g    DF .text	00000020 _ZN22P2spDownloadDispatcher14RemoveResourceEP9IResource
0016d59c g    DF .text	00000048 sd_inet_ntoa
000ee850 g    DF .text	000001f8 _ZN15ResourceBuilder16BuildP2pResourceEP15P2PResourceInfo11ResComeFromRKSsyS4_S4_y
000de3ec g    DF .text	0000006c _ZN22P2spDownloadDispatcher14InsertResourceEP9IResource
00170db4 g    DF .text	00000008 _Z23PeerCapability_is_natedj
000eea48 g    DF .text	00000130 _ZN15ResourceBuilder18BuildDPhubResourceEP15DPhubPeerRcInfoRKSsy
00176b70 g    DF .text	00000024 sd_current_time_ms
00110228 g    DF .text	00000014 _ZNK13TaskIndexInfo3CIDEv
00169dc0 g    DF .text	00000010 sd_memcpy
000debac g    DF .text	00000024 _ZN22P2spDownloadDispatcher13GetTaskInfoExEP20TAG_XL_TASK_INFO_EEX
001100ec g    DF .text	00000014 _ZN13TaskIndexInfo17SetTaskCreateModeE20_XL_CREATE_TASK_MODE
00110100 g    DF .text	00000008 _ZN13TaskIndexInfo11SetTaskTypeE13_XL_TASK_TYPE
00110108 g    DF .text	00000024 _ZN13TaskIndexInfo10SetTaskUrlERKSsS1_
0011012c g    DF .text	00000008 _ZN13TaskIndexInfo11SetReportIdEy
00110134 g    DF .text	00000014 _ZN13TaskIndexInfo8SetEventEP18TaskIndexInfoEvent
00116180 g    DF .text	000001c8 _ZN15P2spDataManagerC1EP17IDataManagerEventyiP13TaskIndexInfob
000dd714 g    DF .text	000003d0 _ZN22P2spDownloadDispatcherC1EP12IDataManagerP17IDispatcherEventsyjP13TaskIndexInfo
000ee658 g    DF .text	00000008 _ZN15ResourceBuilderC1EP18IDataMemoryManagerP21IDataManagerWriteDataP15IResourceEvents
000f0080 g    DF .text	0000000c _ZN11P2pResource8GetP2pIdEv
00182030 g    DF .text	00000098 _ZN19DcdnAccountsManager12AddPeerBytesERKSsyyS1_
000b7be8 g    DF .text	00000034 _Z33CompareResourceByFilePosAndLengthP15P2PResourceInfoS0_
000b7c1c g    DF .text	0000006c _Z31CompareResourceByPeerCapabilityP15P2PResourceInfoS0_
0016d578 g    DF .text	00000024 sd_inet_aton
0016e470 g    DF .text	000000d8 _Z20cid_to_hex_string_lcRKSs
0016d5fc g    DF .text	0000000c sd_htons
000eeb78 g    DF .text	000000cc _ZN15ResourceBuilder17BuildAgipResourceEjtRKSsj
0013d434 g    DF .text	00000084 _ZN19NetworkAliveMonitor13HandleConnSetEib
000b8074 g    DF .text	00000008 _ZThn384_N8P2spTask14OnQuerySuccessEP12IHubProtocolP16ProtocolResponse
000b825c g    DF .text	00000008 _ZThn384_N8P2spTask13OnQueryFailedEP12IHubProtocoli
000c61e8  w   DF .text	00000040 _ZN5range14check_overflowEv
002e8680 g    DO .data	00000008 _ZN5range7nlengthE
000c6228  w   DF .text	00000020 _ZN15P2PResourceInfoD2Ev
000c6228  w   DF .text	00000020 _ZN15P2PResourceInfoD1Ev
000b8770 g    DF .text	000000d0 _ZN8P2spTask18IsUriSchemaSupportESs
000b8840 g    DF .text	00000194 _ZN8P2spTask19DoQueryAgipResourceERKSs
0013ba08 g    DF .text	0000007c _ZN20ProtocolQueryAgipCdnC1EP14IQueryHubEvent
0016e398 g    DF .text	000000d8 _Z17cid_to_hex_stringRKSs
00170d54 g    DF .text	00000060 _Z34PeerCapability_get_peer_capabilityv
0013ba84 g    DF .text	000000dc _ZN20ProtocolQueryAgipCdn8QueryCdnERKSsjS1_S1_
000b89d4 g    DF .text	000000e0 _ZN8P2spTask21DoQueryServerResourceERKSsS1_S1_S1_y
00145c8c g    DF .text	00000048 _ZN22ProtocolQueryServerResC1EP14IQueryHubEvent
00110264 g    DF .text	00000014 _ZNK13TaskIndexInfo9GCIDLevelEv
00145cd4 g    DF .text	00000174 _ZN22ProtocolQueryServerRes14QueryServerResERKSsS1_S1_S1_yjh
000b8ab4 g    DF .text	00000150 _ZN8P2spTask22TryQueryServerResourceEy
000b8c04 g    DF .text	0000008c _ZN8P2spTask19DoReportVoteUrlInfoERKSsS1_S1_yi
0013fb60 g    DF .text	00000040 _ZN19ProtocolVoteUrlInfoC1EP14IQueryHubEvent
001465d8 g    DF .text	000000e0 _ZN17HubClientsManager8delegateEP12IHubProtocol
0013fba0 g    DF .text	00000128 _ZN19ProtocolVoteUrlInfo11VoteUrlInfoERKSsS1_S1_yi
000b8c90 g    DF .text	00000408 _ZN8P2spTask23ReportSHubAfterDownloadEv
00000000      DF *UND*	00000000 __dynamic_cast
000f8100 g    DF .text	00000114 _ZNK3Uri16to_noauth_stringEv
00110250 g    DF .text	00000014 _ZNK13TaskIndexInfo4BCIDEv
001110e4 g    DF .text	0000000c _ZN13TaskIndexInfo10isNeedVoteEv
0016e548 g    DF .text	00000120 _Z13sd_get_suffixRKSs
0010facc g    DF .text	0000003c _ZN7Setting7GetBoolERKSsS1_Rbb
0013ebdc g    DF .text	0000003c _ZN23ProtocolReportInsertResC1EP14IQueryHubEventj
00112da4 g    DF .text	0000005c _ZN12DownloadFile24GetBlockSizeFromFileSizeEy
0013ec18 g    DF .text	00000134 _ZN23ProtocolReportInsertRes15ReportInsertResERKSsS1_S1_S1_S1_S1_yyS1_ii
002dfee8 g    DO .data.rel.ro	00000008 _ZTI9IResource
002e0704 g    DO .data.rel.ro	00000030 _ZTI12HttpResource
000b9098 g    DF .text	00000060 _ZN8P2spTask12DetachEventsEP15IP2spTaskEvents
00111560 g    DF .text	00000288 _ZN13TaskIndexInfo12SetIndexInfoE19IndexSourcePriorityRKSsbyS2_jS2_
000b9180 g    DF .text	00000040 _ZN8P2spTask18NotifyPreTaskStartE20_XL_CREATE_TASK_MODERKSs
000b91c0 g    DF .text	00000038 _ZN8P2spTask17NotifyTaskStartedE20_XL_CREATE_TASK_MODE
000b91f8 g    DF .text	00000030 _ZN8P2spTask17NotifyPreTaskStopEv
000b9228 g    DF .text	00000030 _ZN8P2spTask17NotifyTaskStoppedEv
000b9258 g    DF .text	00000030 _ZN8P2spTask20NotifyPreTaskSuccessEv
000b9288 g    DF .text	00000030 _ZN8P2spTask19NotifyTaskSuccessedEv
000b92b8 g    DF .text	00000030 _ZN8P2spTask17NotifyPreTaskFailEv
000b92e8 g    DF .text	00000030 _ZN8P2spTask16NotifyTaskFailedEv
000b9318 g    DF .text	0000004c _ZN8P2spTask23NotifyOriginGetFileSizeEyb
000b9364 g    DF .text	00000038 _ZN8P2spTask20NotifyQueryIndexFailE20QueryIndexFailReason
000b9464 g    DF .text	00000030 _ZN8P2spTask30NotifyBeginQueryMirrorResourceEv
000b9494 g    DF .text	00000038 _ZN8P2spTask29NotfiyQueryMirrorResourceFailEi
000b94cc g    DF .text	00000054 _ZN8P2spTask10StartTimerEjyPy
0015dfa4 g    DF .text	000000a0 _ZN7xlTimer11start_timerEPS_PFvPvS1_ES1_S1_jPy
000c2dd4 g    DF .text	00000004 _ZN8P2spTask13HandleTimeOutEPvS0_
000b9520 g    DF .text	00000034 _ZN8P2spTask11CancelTimerEy
0015dd0c g    DF .text	000001b4 _ZN7xlTimer11CancelTimerEy
000b9554 g    DF .text	00000060 _ZN8P2spTask23StartTimerAndDispatcherEv
00110c98 g    DF .text	00000030 _ZN13TaskIndexInfo16ActiveIndexQueryEv
000b9740 g    DF .text	00000008 _ZThn380_N8P2spTask13NotifyLoadCfgEib
000b9748 g    DF .text	00000100 _ZN8P2spTask13DoQueryP2pResERKSsS1_y
001478e0 g    DF .text	00000298 _ZN12DPhubManager13QueryDphubResEP14IQueryHubEventRKSsS3_yt
00144f5c g    DF .text	00000048 _ZN19ProtocolQueryP2pResC1EP14IQueryHubEvent
00144fa4 g    DF .text	000001a8 _ZN19ProtocolQueryP2pRes11QueryP2pResERKSsS1_y
000b9848 g    DF .text	000000ac _ZN8P2spTask14DoQueryTrackerERKSsS1_y
00140ce4 g    DF .text	00000044 _ZN20ProtocolQueryTrackerC1EP14IQueryHubEventj
00140d28 g    DF .text	00000238 _ZN20ProtocolQueryTracker12QueryTrackerEjRKSsS1_yhjj
000b98f4 g    DF .text	00000170 _ZN8P2spTask21IsUriHostInSpecialSetERK3UriPKc
0010fb08 g    DF .text	0000006c _ZN7Setting9GetStringERKSsS1_RSsS1_
000f7d54 g    DF .text	000000a0 _ZNK3Uri16IsHostRelevantToEPKcj
000b9a64 g    DF .text	0000018c _ZN8P2spTask17HandleControlInfoEv
00000000      DF *UND*	00000000 __aeabi_uldivmod
000b9bf0 g    DF .text	000000dc _ZN8P2spTask28CalcRequestAssignRangeLengthEv
000b9ccc g    DF .text	00000010 _ZN8P2spTask14IsBSSIDChangedEj
000b9cdc g    DF .text	00000048 _ZN8P2spTask20IsEverExistMultiTaskEv
000b9d24 g    DF .text	00000018 _ZN8P2spTask14IsTaskFinishedEv
000b9d3c g    DF .text	00000090 _ZN8P2spTask12GetStringMD5ERKSsRSs
001683c0 g    DF .text	00000040 md5_initialize
00168e7c g    DF .text	000000a8 md5_update
00168f24 g    DF .text	00000074 md5_finish
0016d6a0 g    DF .text	0000006c str2hex
000b9dcc g    DF .text	000000b4 _ZN8P2spTask14GetReportBssidERKSsRSs
000b9e80 g    DF .text	0000013c _ZN8P2spTask14TryQueryP2pResEy
000b9fbc g    DF .text	0000018c _ZN8P2spTask19DoQueryAntiResourceEv
00142890 g    DF .text	0000007c _ZN16ProtocolQueryCdnC1EP14IQueryHubEvent
0014290c g    DF .text	000000dc _ZN16ProtocolQueryCdn8QueryCdnERKSsiS1_S1_
000ba148 g    DF .text	00000020 _ZN8P2spTask20TryQueryAntiResourceEv
000ba1c8 g    DF .text	00000210 _ZN8P2spTask20TryQueryAgipResourceEv
000ba3d8 g    DF .text	00000298 _ZN8P2spTask28ReportCollectorAfterDownloadEv
0013814c g    DF .text	00000084 _ZN23ProtocolReportCollectorC1EP14IQueryHubEvent
001381d0 g    DF .text	000000d8 _ZN23ProtocolReportCollector15ReportCollectorERKSsS1_S1_yS1_S1_S1_
000c6248  w   DF .text	00000028 _ZN13UrlChangeInfoD2Ev
000c6248  w   DF .text	00000028 _ZN13UrlChangeInfoD1Ev
000c6270  w   DF .text	00000028 _ZN10UseUrlInfoD2Ev
000c6270  w   DF .text	00000028 _ZN10UseUrlInfoD1Ev
000ba670 g    DF .text	00000060 _ZN8P2spTask15DoReportTrackerERKSsS1_y
0013a0f8 g    DF .text	00000044 _ZN21ProtocolReportTrackerC1EP14IQueryHubEventj
0013a178 g    DF .text	0000019c _ZN21ProtocolReportTracker13ReportTrackerERKSsS1_y
000ba6d0 g    DF .text	00000014 _ZN8P2spTask11TryStopDcdnE17_ADD_RESOUSE_TYPE
000c6298  w   DF .text	00000034 _ZSteqIcEN9__gnu_cxx11__enable_ifIXsrSt9__is_charIT_E7__valueEbE6__typeERKSbIS3_St11char_traitsIS3_ESaIS3_EESC_
0016ad94 g    DF .text	00000038 _Z13sd_file_existPKc
0016ad70 g    DF .text	00000024 _Z14sd_delete_filePKc
000ee660 g    DF .text	000001f0 _ZN15ResourceBuilder19BuildServerResourceERKSsS1_S1_S1_S1_S1_RSt6vectorI8KeyValueISsSsESaIS4_EE
000c62fc  w   DF .text	0000003c _ZNSt6vectorI13UrlChangeInfoSaIS0_EED2Ev
000c62fc  w   DF .text	0000003c _ZNSt6vectorI13UrlChangeInfoSaIS0_EED1Ev
000c6338  w   DF .text	0000003c _ZNSt6vectorI10UseUrlInfoSaIS0_EED2Ev
000c6338  w   DF .text	0000003c _ZNSt6vectorI10UseUrlInfoSaIS0_EED1Ev
000bb100 g    DF .text	000001e4 _ZN8P2spTask11DoStatBSSIDEv
001731d0 g    DF .text	00000010 _ZN10GlobalInfo12GetWifiBssidERj
000bb2e4 g    DF .text	00000020 _ZN8P2spTask19StatBSSIDOnStopTaskEv
000bb304 g    DF .text	00000158 _ZN8P2spTask13InitBSSIDStatEv
000c6374  w   DF .text	00000080 _ZN9SingletonI14PermissionCtrlE11GetInstanceEv
000bb45c g    DF .text	00000218 _ZN8P2spTask15TryQueryTrackerEy
0015ec10 g    DF .text	00000028 _ZN14PermissionCtrl13GetPermissionESs
0013d4b8 g    DF .text	000001b4 _ZN19NetworkAliveMonitor15NoticeTaskSpeedEy
000bb7f0 g    DF .text	0000020c _ZN8P2spTask16TryReportTrackerEv
0015cc48 g    DF .text	000000b8 _ZN12StringHelper5ToHexEPKci
002e806c  w   DO .data	0000001e _ZZN4Task15GetTaskModeNameE20_XL_CREATE_TASK_MODEE10szModeName
001358fc g    DF .text	00000020 _ZN14TaskStatModule19AddTaskStatAvgValueEiRKSsxi
000dce20 g    DF .text	00000638 _ZN13AgipControler18InitSettingAndStatEv
0015ea6c g    DF .text	00000008 _ZN14PermissionCtrl18GetPermissionLevelEv
000c1720 g    DF .text	00000088 _ZN8P2spTask9InnerStopEv
000f6e50 g    DF .text	00000148 _ZN13P2pUploadPipe5CloseEv
00110cc8 g    DF .text	00000084 _ZN13TaskIndexInfo9StopQueryEv
000deb48 g    DF .text	0000000c _ZNK22P2spDownloadDispatcher12GetRecvBytesEv
000c1bd0 g    DF .text	00000008 _ZThn388_N8P2spTask16NotifyTaskFinishEiSs
000c1bd8 g    DF .text	00000008 _ZThn380_N8P2spTask16NotifyTaskFinishEiSs
000c63f4  w   DF .text	000003a0 _ZN4TaskC2E13_XL_TASK_TYPE
00110024 g    DF .text	000000c8 _ZN13TaskIndexInfoC1Ev
001343d4 g    DF .text	00000044 _ZN14TaskStatModule16GenerateReportIdERKSs
0016762c g    DF .text	00000050 _ZN10CheckConst5getXtEv
00167854 g    DF .text	0000003c _ZN10CheckConst11getthunderMEv
000c63f4  w   DF .text	000003a0 _ZN4TaskC1E13_XL_TASK_TYPE
000c6794  w   DF .text	00000020 _ZNSt12_Vector_baseIP9IResourceSaIS1_EED2Ev
000c6794  w   DF .text	00000020 _ZNSt12_Vector_baseIP9IResourceSaIS1_EED1Ev
000deb74 g    DF .text	00000008 _ZNK22P2spDownloadDispatcher23GetResourceExpectOriginERSt6vectorIP9IResourceSaIS2_EE
00110ee4 g    DF .text	000000bc _ZN13TaskIndexInfo17SetOriginFileSizeEy
000deb7c g    DF .text	00000010 _ZN22P2spDownloadDispatcher21GetMirrorResourceListERSt6vectorIP9IResourceSaIS2_EE
000deb8c g    DF .text	00000010 _ZN22P2spDownloadDispatcher19GetPhubResourceListERSt6vectorIP9IResourceSaIS2_EE
001473f4 g    DF .text	00000070 _ZN12DPhubManager16CancelDphubQueryEP14IQueryHubEvent
000f6438 g    DF .text	00000088 _ZN17http_content_type16get_content_typeERKSs
000c67b4  w   DF .text	00000120 _ZNSt6vectorIP15IP2spTaskEventsSaIS1_EE13_M_insert_auxEN9__gnu_cxx17__normal_iteratorIPS1_S3_EERKS1_
000c2524 g    DF .text	00000048 _ZN8P2spTask12AttachEventsEP15IP2spTaskEvents
0013d878 g    DF .text	00000128 _ZN19NetworkAliveMonitorC1Ev
0012eea4 g    DF .text	0000007c _ZN15TaskCrucialInfo9StartTaskEy
00134650 g    DF .text	000002b8 _ZN14TaskStatModule9StartTaskEijRKSsS1_S1_S1_
000eb800 g    DF .text	00000030 _ZN19SpecailLogicManagerC1EP9IResourceP12IDataManagerj
000c68d4  w   DF .text	0000006c _ZN13UrlChangeInfoC2ERKS_
000c68d4  w   DF .text	0000006c _ZN13UrlChangeInfoC1ERKS_
000c6940  w   DF .text	0000007c _ZN10UseUrlInfoC2ERKS_
000c6940  w   DF .text	0000007c _ZN10UseUrlInfoC1ERKS_
000c69bc  w   DF .text	00000060 _ZN10UseUrlInfoaSERKS_
000c6a1c  w   DF .text	00000010 _ZN9__gnu_cxx5__ops15_Iter_comp_iterIPFbP14ServerResourcePKS2_EEclINS_17__normal_iteratorIPS3_St6vectorIS3_SaIS3_EEEESF_EEbT_T0_
000c6a2c  w   DF .text	000000c8 _ZSt22__move_median_to_firstIN9__gnu_cxx17__normal_iteratorIPP14ServerResourceSt6vectorIS3_SaIS3_EEEENS0_5__ops15_Iter_comp_iterIPFbS3_PKS2_EEEEvT_SG_SG_SG_T0_
000c6af4  w   DF .text	00000038 _ZSt25__unguarded_linear_insertIN9__gnu_cxx17__normal_iteratorIPP14ServerResourceSt6vectorIS3_SaIS3_EEEENS0_5__ops14_Val_comp_iterIPFbS3_PKS2_EEEEvT_T0_
000c6b2c  w   DF .text	00000084 _ZSt16__insertion_sortIN9__gnu_cxx17__normal_iteratorIPP14ServerResourceSt6vectorIS3_SaIS3_EEEENS0_5__ops15_Iter_comp_iterIPFbS3_PKS2_EEEEvT_SG_T0_
000c6bb0  w   DF .text	00000010 _ZN9__gnu_cxx5__ops15_Iter_comp_iterIPFbP15P2PResourceInfoS3_EEclINS_17__normal_iteratorIPS3_St6vectorIS3_SaIS3_EEEESD_EEbT_T0_
000c6bc0  w   DF .text	000000c8 _ZSt22__move_median_to_firstIN9__gnu_cxx17__normal_iteratorIPP15P2PResourceInfoSt6vectorIS3_SaIS3_EEEENS0_5__ops15_Iter_comp_iterIPFbS3_S3_EEEEvT_SE_SE_SE_T0_
000c6c88  w   DF .text	00000038 _ZSt25__unguarded_linear_insertIN9__gnu_cxx17__normal_iteratorIPP15P2PResourceInfoSt6vectorIS3_SaIS3_EEEENS0_5__ops14_Val_comp_iterIPFbS3_S3_EEEEvT_T0_
000c6cc0  w   DF .text	00000084 _ZSt16__insertion_sortIN9__gnu_cxx17__normal_iteratorIPP15P2PResourceInfoSt6vectorIS3_SaIS3_EEEENS0_5__ops15_Iter_comp_iterIPFbS3_S3_EEEEvT_SE_T0_
000c6d44  w   DF .text	0000006c _ZNSt20__uninitialized_copyILb0EE13__uninit_copyIPSsS2_EET0_T_S4_S3_
00000000      DF *UND*	00000000 __cxa_begin_catch
00000000      DF *UND*	00000000 __cxa_rethrow
00000000      DF *UND*	00000000 __cxa_end_catch
000c6db0  w   DF .text	000001d4 _ZNSt6vectorISsSaISsEE13_M_insert_auxEN9__gnu_cxx17__normal_iteratorIPSsS1_EERKSs
000c6f84  w   DF .text	00000044 _ZNSt6vectorISsSaISsEE9push_backERKSs
000c2948 g    DF .text	0000048c _ZN8P2spTask13HandleTimeOutEj
000deb64 g    DF .text	00000010 _ZN22P2spDownloadDispatcher23GetOrigionResourceFroceEPP9IResource
0016e668 g    DF .text	000000fc _Z17make_http_responeRSsy
00110148 g    DF .text	000000b4 _ZN13TaskIndexInfo24GetQueryFailDetailSpDescEv
0016e764 g    DF .text	00000074 _Z22make_error_http_headerRSsRKSsS1_
002e808c g    DO .data	00000018 _ZN9IResource20s_curStateToHttpLineE
000c6fc8  w   DF .text	0000006c _ZNSt20__uninitialized_copyILb0EE13__uninit_copyIP13UrlChangeInfoS3_EET0_T_S5_S4_
000c7034  w   DF .text	0000026c _ZNSt6vectorI13UrlChangeInfoSaIS0_EE13_M_insert_auxEN9__gnu_cxx17__normal_iteratorIPS0_S2_EERKS0_
000c3124 g    DF .text	00000190 _ZN8P2spTask21ReportUrlChg2WhenStopEv
000deb9c g    DF .text	00000010 _ZN22P2spDownloadDispatcher22GetAbandonResourceListERSt6vectorIP9IResourceSaIS2_EE
001402a8 g    DF .text	00000040 _ZN18ProtocolReportChg2C1EP14IQueryHubEvent
0014065c g    DF .text	00000134 _ZN18ProtocolReportChg210ReportChg2ERKSt6vectorI13UrlChangeInfoSaIS1_EERKSsyS7_
000c72a0  w   DF .text	0000006c _ZNSt20__uninitialized_copyILb0EE13__uninit_copyIP10UseUrlInfoS3_EET0_T_S5_S4_
000c730c  w   DF .text	000001f8 _ZNSt6vectorI10UseUrlInfoSaIS0_EE13_M_insert_auxEN9__gnu_cxx17__normal_iteratorIPS0_S2_EERKS0_
000c32b4 g    DF .text	00000510 _ZN8P2spTask23ReportRcQualityWhenStopEv
0013dda4 g    DF .text	00000040 _ZN23ProtocolReportRcQualityC1EP14IQueryHubEvent
0013e194 g    DF .text	00000134 _ZN23ProtocolReportRcQuality15ReportRcQualityEjyRKSsS1_RKSt6vectorI10UseUrlInfoSaIS3_EEj
00000000      DF *UND*	00000000 __aeabi_ul2d
0016e338 g    DF .text	00000060 _Z16double_to_stringd
00110fa0 g    DF .text	00000144 _ZN13TaskIndexInfo19GetQueryIndexDetailEv
0012f1f0 g    DF .text	000000c0 _ZN15TaskCrucialInfo15GetReportResultEy
00152938 g    DF .text	00000098 _ZN12DnsNewParser18GetTrackStatStringEv
0011fcf4 g    DF .text	00000020 PtlNewNatCheck_get_report_value
002f0440  w   DO .bss	00000004 _ZZN11SingletonExI12DnsNewParserE9_instanceEvE1p
00124d68 g    DF .text	00000070 _ZN5Upnpc11GetTaskInfoEP12UpnpTaskInfo
0013d178 g    DF .text	00000224 _ZN19NetworkAliveMonitor8DoReportEj
0013d7a4 g    DF .text	000000d4 _ZN19NetworkAliveMonitorD1Ev
000eb830 g    DF .text	0000003c _ZN19SpecailLogicManagerD1Ev
00141828 g    DF .text	00000074 _ZN10DcdnMangerD1Ev
0013505c g    DF .text	00000418 _ZN14TaskStatModule8StopTaskEi
0012ef20 g    DF .text	00000190 _ZN15TaskCrucialInfo8StopTaskEy
000c7504  w   DF .text	000000e8 _ZSt13__adjust_heapIN9__gnu_cxx17__normal_iteratorIPP14ServerResourceSt6vectorIS3_SaIS3_EEEEiS3_NS0_5__ops15_Iter_comp_iterIPFbS3_PKS2_EEEEvT_T0_SH_T1_T2_
000c75ec  w   DF .text	0000014c _ZSt16__introsort_loopIN9__gnu_cxx17__normal_iteratorIPP14ServerResourceSt6vectorIS3_SaIS3_EEEEiNS0_5__ops15_Iter_comp_iterIPFbS3_PKS2_EEEEvT_SG_T0_T1_
000c7738  w   DF .text	000000e8 _ZSt13__adjust_heapIN9__gnu_cxx17__normal_iteratorIPP15P2PResourceInfoSt6vectorIS3_SaIS3_EEEEiS3_NS0_5__ops15_Iter_comp_iterIPFbS3_S3_EEEEvT_T0_SF_T1_T2_
000c7820  w   DF .text	0000014c _ZSt16__introsort_loopIN9__gnu_cxx17__normal_iteratorIPP15P2PResourceInfoSt6vectorIS3_SaIS3_EEEEiNS0_5__ops15_Iter_comp_iterIPFbS3_S3_EEEEvT_SE_T0_T1_
000c796c  w   DF .text	00000088 _ZSt4sortIN9__gnu_cxx17__normal_iteratorIPP15P2PResourceInfoSt6vectorIS3_SaIS3_EEEEPFbS3_S3_EEvT_SB_T0_
001566b4 g    DF .text	00000028 _ZN10RangeQueueC1Ev
000dcde4 g    DF .text	0000003c _ZN13AgipControlerC1EP7Settingj
000c47b8 g    DF .text	00000274 _ZN8P2spTaskC1E13_XL_TASK_TYPE
0015691c g    DF .text	00000034 _ZNK10RangeQueue14AllRangeLengthEv
00157bc0 g    DF .text	0000002c _ZNK10RangeQueue6SameToERK5rangeRS_
00157110 g    DF .text	00000010 _ZNK10RangeQueue14RangeQueueSizeEv
000f008c g    DF .text	0000000c _ZN11P2pResource8SetP2pIdEy
002e0258 g    DO .data.rel.ro	00000020 _ZTI11P2pResource
000c5874 g    DF .text	00000148 _ZN8P2spTask17GetDcdnQueryRangeER5range
00157630 g    DF .text	00000054 _ZN10RangeQueuemIERKS_
001566dc g    DF .text	00000008 _ZN10RangeQueue6RangesEv
0015849c g    DF .text	00000168 _ZN10RangeQueuepLERK5range
000c59bc g    DF .text	000000a4 _ZN8P2spTask17SetDcdnQueryRangeEv
0014189c g    DF .text	00000020 _ZN10DcdnManger13SetQueryRangeEyy
000c5a60 g    DF .text	000002f0 _ZN8P2spTask12TryQueryDcdnEv
001417d0 g    DF .text	00000058 _ZN10DcdnMangerC1EP9DcdnEventj
00141acc g    DF .text	00000034 _ZN10DcdnManger13StarQueryDcdnERKSsS1_y
0012f0b0 g    DF .text	00000074 _ZN15TaskCrucialInfo18SetCrucialBoolInfoEy11CrucialItemb
000c5fac g    DF .text	0000001c _ZN8P2spTask12TryStartDcdnE17_ADD_RESOUSE_TYPE
002de3e8  w   DO .data.rel.ro	00000008 _ZTI14IQueryHubEvent
002972f0  w   DO .rodata	00000011 _ZTS14IQueryHubEvent
002de3f0  w   DO .data.rel.ro	00000008 _ZTI18TaskIndexInfoEvent
00297304  w   DO .rodata	00000015 _ZTS18TaskIndexInfoEvent
002de3f8  w   DO .data.rel.ro	00000008 _ZTI17IDispatcherEvents
0029731c  w   DO .rodata	00000014 _ZTS17IDispatcherEvents
002de400  w   DO .data.rel.ro	00000008 _ZTI9DcdnEvent
00297330  w   DO .rodata	0000000b _ZTS9DcdnEvent
0029733c g    DO .rodata	0000000a _ZTS8P2spTask
002de408  w   DO .data.rel.ro	00000010 _ZTV14IQueryHubEvent
002de418  w   DO .data.rel.ro	0000001c _ZTV18TaskIndexInfoEvent
002de438  w   DO .data.rel.ro	00000010 _ZTV16IVodDataListener
002de448  w   DO .data.rel.ro	00000028 _ZTV17IDispatcherEvents
002de470  w   DO .data.rel.ro	0000000c _ZTV9DcdnEvent
000c7dd4  w   DF .text	00000018 _ZN9LockGuardD2Ev
000c7dd4  w   DF .text	00000018 _ZN9LockGuardD1Ev
0015e8cc g    DF .text	00000008 sd_init_task_lock
0015e964 g    DF .text	00000008 sd_init_task_cond
0015e974 g    DF .text	00000004 sd_task_cond_wait
0015e96c g    DF .text	00000004 sd_uninit_task_cond
0015e8d4 g    DF .text	00000004 sd_uninit_task_lock
000c7cf8 g    DF .text	00000034 _ZN11CommandList4ExitEv
000c7dec  w   DF .text	0000003c _ZNSt10_List_baseI5RCPtrI7CommandESaIS2_EE8_M_clearEv
000c7d64 g    DF .text	0000003c _ZN11CommandListC2Ev
000c7da0 g    DF .text	00000034 _ZN11CommandListD2Ev
000c7e28 g    DF .text	00000150 _ZN10DHTManager8periodicEv
00000000      DF *UND*	00000000 select
00000000      DF *UND*	00000000 __errno
00000000      DF *UND*	00000000 recvfrom
00162770 g    DF .text	00001b24 _Z12dht_periodicPKvjPK8sockaddriPlPFvPviPKhS0_jES5_
000c93a8 g    DF .text	00000004 _ZN10DHTManager12sDHTcallbackEPviPKhPKvj
000c7f78 g    DF .text	00000048 _ZN10DHTManager11loadCfgPathEv
00170684 g    DF .text	0000000c _ZN5SdDirC1Ev
00170908 g    DF .text	000000dc _ZN5SdDir7SetWithE14SdDirPredefine
000c7fc0 g    DF .text	00000008 _Z15dht_blacklistedPK8sockaddri
000c7fc8 g    DF .text	00000084 _Z8dht_hashPviPKviS1_iS1_i
00000000      DF *UND*	00000000 memcpy
000c804c g    DF .text	00000044 _Z16dht_random_bytesPvj
0016d5f8 g    DF .text	00000004 sd_rand
000c8090 g    DF .text	00000150 _ZN10DHTManager13saveNodesDataEv
00000000      DF *UND*	00000000 fopen
00164294 g    DF .text	00000218 _Z13dht_get_nodesP11sockaddr_inPiP12sockaddr_in6S1_
00000000      DF *UND*	00000000 fclose
00000000      DF *UND*	00000000 fwrite
000c81e0 g    DF .text	00000100 _ZN10DHTManager6CancelEP9IDHTEvent
0015ea1c g    DF .text	00000010 _Z16sd_free_impl_newPvPKci
000c82e0 g    DF .text	000000d0 _ZN10DHTManager9loadDHTidERKSs
00000000      DF *UND*	00000000 fread
000c83b0 g    DF .text	00000108 _ZN10DHTManager11loadXLNodesERKSsi
0016a30c g    DF .text	00000084 sd_get_int32_from_lt
001644e4 g    DF .text	00000054 _Z13dht_ping_nodeP8sockaddri
000c84b8 g    DF .text	000000bc _ZN10DHTManager9loadNodesERKSs
000c9594  w   DF .text	00000040 _ZNSt8_Rb_treeISsSt4pairIKSsP9IDHTEventESt10_Select1stIS4_ESt4lessISsESaIS4_EE8_M_eraseEPSt13_Rb_tree_nodeIS4_E
000c95d4  w   DF .text	00000028 _ZNSt10_List_baseIPN10DHTManager17QueuedSearchQueryESaIS2_EE8_M_clearEv
000c8574 g    DF .text	00000148 _ZN10DHTManager6UninitEv
00153284 g    DF .text	00000028 _Z13xl_dns_cancely
00162628 g    DF .text	00000148 _Z10dht_uninitv
00000000      DF *UND*	00000000 close
000c86bc g    DF .text	000000e8 _ZN10DHTManagerC2Ev
000c86bc g    DF .text	000000e8 _ZN10DHTManagerC1Ev
000c87a4 g    DF .text	00000090 _ZN10DHTManagerD2Ev
000c87a4 g    DF .text	00000090 _ZN10DHTManagerD1Ev
000c95fc  w   DF .text	00000120 _ZNSt6vectorIPN10DHTManager13SuperNodeInfoESaIS2_EE13_M_insert_auxEN9__gnu_cxx17__normal_iteratorIPS2_S4_EERKS2_
000c971c  w   DF .text	00000038 _ZNSt6vectorIPN10DHTManager13SuperNodeInfoESaIS2_EE9push_backERKS2_
000c8834 g    DF .text	00000158 _ZN10DHTManager15insertSuperNodeEPKct
00153794 g    DF .text	00000018 _Z12xl_parse_dnsPKcPFviPvPKvES1_Py
0016d574 g    DF .text	00000004 sd_inet_addr
000c8f14 g    DF .text	0000003c _ZN10DHTManager18sHandleDnsCallBackEiPvPKv
000c898c g    DF .text	0000029c _ZN10DHTManager13loadSuperNodeEv
00167918 g    DF .text	0000005c _ZN10CheckConst6getbltEv
000c8c28 g    DF .text	00000020 _ZN10DHTManager13loadBootStrapERKSs
000c8c48 g    DF .text	0000016c _ZN10DHTManager4InitEv
00000000      DF *UND*	00000000 socket
00000000      DF *UND*	00000000 bind
00162380 g    DF .text	000002a8 _Z8dht_initiiPKhS0_
0015e044 g    DF .text	00000090 _ZN7xlTimer10StartTimerEjbPFvyPvS0_ES0_S0_
0016d5e8 g    DF .text	00000010 sd_srand
002f243c g    DO .bss	00000004 dht_debug
00000000      DO *UND*	00000000 __sF
000c925c g    DF .text	00000058 _ZN10DHTManager14sHandleTimeOutEyPvS0_
000c9754  w   DF .text	00000048 _ZNSt6vectorIPN10DHTManager13SuperNodeInfoESaIS2_EE8_M_eraseEN9__gnu_cxx17__normal_iteratorIPS2_S4_EE
000c8db4 g    DF .text	00000160 _ZN10DHTManager9handleDnsEiPK21TAG_DNS_RESPONSE_DATA
002f04a4  w   DO .bss	00000004 _ZZN11SingletonExI10DHTManagerE9_instanceEvE1p
000c979c  w   DF .text	00000010 _ZStltIcSt11char_traitsIcESaIcEEbRKSbIT_T0_T1_ES8_
000c97ac  w   DF .text	00000068 _ZNSt8_Rb_treeISsSt4pairIKSsP9IDHTEventESt10_Select1stIS4_ESt4lessISsESaIS4_EE4findERS1_
000c8f50 g    DF .text	00000104 _ZN10DHTManager13OnBootStrapOKEb
00161a2c g    DF .text	00000408 _Z10dht_searchPKhiiPFvPviS0_PKvjES1_
000c9360 g    DF .text	00000048 _ZN10DHTManager11dhtCallbackEPviPKhPKvj
000c9054 g    DF .text	00000208 _ZN10DHTManager11extendNodesEv
000c92b4 g    DF .text	000000ac _ZN10DHTManager13OnDHTGotValueEPKhPKvj
000c9814  w   DF .text	000000a0 _ZNSt8_Rb_treeISsSt4pairIKSsP9IDHTEventESt10_Select1stIS4_ESt4lessISsESaIS4_EE24_M_get_insert_unique_posERS1_
000c98b4  w   DF .text	000001bc _ZNSt8_Rb_treeISsSt4pairIKSsP9IDHTEventESt10_Select1stIS4_ESt4lessISsESaIS4_EE17_M_insert_unique_ESt23_Rb_tree_const_iteratorIS4_ERKS4_
000c93ac g    DF .text	000001e8 _ZN10DHTManager6SearchEPKhP9IDHTEvent
0015e9f8 g    DF .text	00000024 _Z18sd_malloc_impl_newjPKciPPv
000c9a70 g    DF .text	000000a0 XLInit
002f04ac g    DO .bss	00000004 g_mutex
000c9b10 g    DF .text	00000048 XLUnInit
000c9b58 g    DF .text	00000050 XLNotifyNetWorkType
000c9ba8 g    DF .text	00000050 XLNotifyNetWorkCarrier
000c9bf8 g    DF .text	00000058 XLCreateP2spTask
000c9c50 g    DF .text	00000058 XLReleaseTask
000c9ca8 g    DF .text	00000058 XLStartTask
000c9d00 g    DF .text	00000064 XLStopTask
000c9d64 g    DF .text	00000064 XLStopTaskWithReason
000c9dc8 g    DF .text	00000058 XLRemoveTaskCfg
000c9e20 g    DF .text	0000015c _AddServerResource
000c9f7c g    DF .text	00000054 XLAddServerResource
000c9fd0 g    DF .text	0000018c _AddPeerResource
000ca15c g    DF .text	00000084 XLAddPeerResource
000ca1e0 g    DF .text	00000068 _RemoveAddedResource
000ca248 g    DF .text	0000000c XLRemoveAddedResource
000ca254 g    DF .text	00000064 XLGetTaskInfo
000ca2b8 g    DF .text	00000074 XLGetTaskInfoEx
000ca32c g    DF .text	00000064 XLGetTaskCheckInfo
000ca390 g    DF .text	00000068 XLGetLocalUrl
000ca3f8 g    DF .text	00000058 XLRequeryIndex
000ca450 g    DF .text	00000008 XLSetTaskAppInfo
000ca458 g    DF .text	00000064 XLSetTaskAllowUseResource
000ca4bc g    DF .text	00000064 XLSetTaskUid
000ca520 g    DF .text	00000058 XLSwitchOriginToAllResDownload
000ca578 g    DF .text	00000078 XLSetOriginUserAgent
000ca5f0 g    DF .text	0000009c XLSetHttpHeaderProperty
000ca68c g    DF .text	0000008c XLSetReleaseLog
000ca718 g    DF .text	00000064 XLIsLogTurnOn
000ca77c g    DF .text	0000006c XLSetUserId
000ca7e8 g    DF .text	0000006c XLSetMac
000ca854 g    DF .text	0000006c XLSetImei
000ca8c0 g    DF .text	00000070 XLGetDownloadHeader
000ca930 g    DF .text	00000074 XLGetDownloadHeaders
000ca9a4 g    DF .text	0000008c XLSetFileName
000caa30 g    DF .text	0000007c XLSetDownloadTaskOrigin
000caaac g    DF .text	00000084 XLSetMiUiVersion
000cab30 g    DF .text	00000054 XLSetStatReportSwitch
000cab84 g    DF .text	00000068 XLSetTaskLxState
000cabec g    DF .text	00000068 XLSetTaskGsState
000cac54 g    DF .text	00000020 XLGetVersion
000cac74 g    DF .text	00000058 XLCreateXtThundermTask
000caccc g    DF .text	0000006c XLNotifyWifiBSSID
000cad38 g    DF .text	00000058 XLCreateCIDTask
000cad90 g    DF .text	0000007c XLSetLocalProperty
000cae0c g    DF .text	00000058 XLCreateThundereTask
000cae64 g    DF .text	00000058 XLCreateXtTask
000caebc g    DF .text	00000028 XLGetThunderzInfo
000caee4 g    DF .text	00000074 XLGetXtSubTaskStatus
000caf58 g    DF .text	00000068 XLGetXtSubTaskInfo
000cafc0 g    DF .text	00000068 XLXtSelectSubTask
000cb028 g    DF .text	00000068 XLXtDeselectSubTask
000cb090 g    DF .text	00000004 XLXtAddServerResource
000cb094 g    DF .text	0000002c XLXtAddPeerResource
000cb0c0 g    DF .text	00000004 XLXtRemoveAddedResource
000cb0c4 g    DF .text	00000028 XLParserThunderUrl
000cb0ec g    DF .text	00000064 XLGetUrlQuickInfo
000cb150 g    DF .text	00000058 XLEnterPrefetchMode
000cb1a8 g    DF .text	00000034 XLGetFileNameFromUrl
000cb1dc g    DF .text	00000030 XLSetSpeedLimit
000cb20c g    DF .text	0000002c XLSetXtPriorSubTask
000cb238 g    DF .text	0000006c XLStatExternalInfo
000cb2a4 g    DF .text	00000018 XlGetMaxDownloadSpeed
000d09e0  w   DF .text	00000004 _ZN6XtTask16SetFileNameLaterEPKcj
000cb2c0 g    DF .text	00000008 _ZN6XtTask12RequeryIndexEv
000cb2c8 g    DF .text	00000008 _ZN6XtTask28SwitchOriginToAllResDownloadEv
000cb2d0 g    DF .text	00000028 _ZN6XtTask14GetSubTaskInfoEi
000cb2f8 g    DF .text	00000008 _ZThn376_N6XtTask14GetSubTaskInfoEi
000cb300 g    DF .text	00000084 _ZN6XtTask21SetDownloadTaskOriginERKSs
000cb384 g    DF .text	00000220 _ZN6XtTask11GetTaskInfoEP19TAG_XL_TASK_INFO_EX
00169db0 g    DF .text	00000010 sd_memset
000cb5a4 g    DF .text	00000098 _ZN6XtTask13UnInitManagerEv
000cb63c g    DF .text	00000038 _ZN6XtTask16RecordLimitSpeedEv
000cb674 g    DF .text	000000e8 _ZN6XtTask13GetTaskInfoExEP20TAG_XL_TASK_INFO_EEX
000cb75c g    DF .text	00000208 _ZN6XtTask13SetTaskFinishEi
000cb964 g    DF .text	00000038 _ZN6XtTask18IsUriSchemaSupportESs
000cb99c g    DF .text	00000058 _ZN6XtTask18GetXtSubTaskStatusEP18TAG_XT_TASK_STATUSjj
000cb9f4 g    DF .text	000002b8 _ZN6XtTask15GetThunderzInfoEPKcjP17TAG_THUNDERZ_INFO
0016ec3c g    DF .text	00000070 _ZN8Thunderz11getInfoHashEv
0016f488 g    DF .text	00000144 _ZN8Thunderz10getSubPathEiPcjc
0016f13c g    DF .text	000000c0 _ZN8Thunderz11getFileSizeEi
0016f944 g    DF .text	000000c0 _ZN8Thunderz12getRealIndexEi
000cbcac g    DF .text	00000264 _ZN6XtTask14InitByThunderzEv
000cbf10 g    DF .text	00000040 _ZN6XtTask11InitManagerEv
000cbf50 g    DF .text	000000d4 _ZN6XtTask17GetNextQueryIndexEv
000cc024 g    DF .text	000002c4 _ZN6XtTask13TryQueryXtHubEv
000d13cc g    DF .text	00000150 _ZN12XtTaskConfig19GetSubTaskIndexInfoEi
0013c3bc g    DF .text	00000048 _ZN19ProtocolQueryXtInfoC1EP14IQueryHubEvent
001676cc g    DF .text	0000006c _ZN10CheckConst12getthunderekEv
0016f85c g    DF .text	000000e8 _ZN8Thunderz15getFilePropertyEiPKcPcj
0013c404 g    DF .text	00000138 _ZN19ProtocolQueryXtInfo11QueryXtInfoERKSsiyS1_
000cc2e8 g    DF .text	00000190 _ZN6XtTask19TryQueryThundereHubEv
000cc478 g    DF .text	00000094 _ZN6XtTask16SetDelTaskInfoExEP9XtSubTask
000cc50c g    DF .text	00000054 _ZN6XtTask17GetSelectFileSizeEv
000cc560 g    DF .text	00000074 _ZN6XtTask12StopQueryHubEv
000cc5d4 g    DF .text	000000c0 _ZN6XtTask22GetSubTaskFromFileNameERKSs
000cc694 g    DF .text	00000270 _ZN6XtTask13RemoveTaskCfgEv
000d1958 g    DF .text	0000010c _ZN12XtTaskConfig11CloseConfigEb
000cc904 g    DF .text	00000150 _ZN6XtTask13OnQueryFailedEP12IHubProtocoli
000cca54 g    DF .text	00000008 _ZThn380_N6XtTask13OnQueryFailedEP12IHubProtocoli
000cca5c g    DF .text	00000efc _ZNK6XtTask16InitTaskStatDataEv
000d09e4  w   DF .text	00000038 _ZNSt8_Rb_treeIiSt4pairIKiP9XtSubTaskESt10_Select1stIS4_ESt4lessIiESaIS4_EE8_M_eraseEPSt13_Rb_tree_nodeIS4_E
000d0a1c  w   DF .text	00000028 _ZNSt10_List_baseIP9XtSubTaskSaIS1_EE8_M_clearEv
000cd958 g    DF .text	00000084 _ZN6XtTask19StopTaskPendForStopEv
000cd9dc g    DF .text	00000314 _ZN6XtTask24PeriodGetDownloadingInfoEv
000d1e2c g    DF .text	00000080 _ZN12XtTaskConfig18UpdateTaskCompleteEiy
000cdcf0 g    DF .text	00000008 _ZN6XtTask14sHandleTimeOutEyPvS0_
000d0a44  w   DF .text	00000038 _ZNSt8_Rb_treeIyySt9_IdentityIyESt4lessIyESaIyEE8_M_eraseEPSt13_Rb_tree_nodeIyE
000d0a7c  w   DF .text	00000038 _ZNSt8_Rb_treeIySt4pairIKyjESt10_Select1stIS2_ESt4lessIyESaIS2_EE8_M_eraseEPSt13_Rb_tree_nodeIS2_E
000cdcf8 g    DF .text	0000015c _ZN6XtTaskD2Ev
000d2028 g    DF .text	000000ac _ZN12XtTaskConfigD1Ev
002de700 g    DO .data.rel.ro	000000f0 _ZTV6XtTask
000cdcf8 g    DF .text	0000015c _ZN6XtTaskD1Ev
000cde54 g    DF .text	0000001c _ZN6XtTaskD0Ev
000cde70 g    DF .text	0000040c _ZN6XtTaskC2Ei
000d18a4 g    DF .text	000000b4 _ZN12XtTaskConfigC1Ev
000cde70 g    DF .text	0000040c _ZN6XtTaskC1Ei
000d0ab4  w   DF .text	00000058 _ZNSt8_Rb_treeIiSt4pairIKiP9XtSubTaskESt10_Select1stIS4_ESt4lessIiESaIS4_EE4findERS1_
000ce27c g    DF .text	00000050 _ZN6XtTask10GetSubTaskEi
000ce2cc g    DF .text	00000194 _ZN6XtTask15AddPeerResourceEP15P2PResourceInfojyRKSsS3_i
000ce460 g    DF .text	00000198 _ZN6XtTask17AddServerResourceERKSsS1_S1_j16RES_USE_STRATEGYi
000ce5f8 g    DF .text	00000078 _ZN6XtTask22RemoveSpecialResourcesEji
000ce670 g    DF .text	00000084 _ZN6XtTask14SetTaskGsStateE25_HIGH_SPEED_CHANNEL_STATEi
000ce6f4 g    DF .text	00000084 _ZN6XtTask14SetTaskLxStateEji
000d0b0c  w   DF .text	00000028 _ZNSt8_Rb_treeIiSt4pairIKiP9XtSubTaskESt10_Select1stIS4_ESt4lessIiESaIS4_EE12_M_erase_auxESt23_Rb_tree_const_iteratorIS4_E
000d0b34  w   DF .text	000000ac _ZNSt8_Rb_treeIiSt4pairIKiP9XtSubTaskESt10_Select1stIS4_ESt4lessIiESaIS4_EE11equal_rangeERS1_
000d0be0  w   DF .text	00000074 _ZNSt8_Rb_treeIiSt4pairIKiP9XtSubTaskESt10_Select1stIS4_ESt4lessIiESaIS4_EE12_M_erase_auxESt23_Rb_tree_const_iteratorIS4_ESC_
000d0c54  w   DF .text	00000090 _ZNSt8_Rb_treeIiSt4pairIKiP9XtSubTaskESt10_Select1stIS4_ESt4lessIiESaIS4_EE24_M_get_insert_unique_posERS1_
000d0ce4  w   DF .text	000001a0 _ZNSt8_Rb_treeIiSt4pairIKiP9XtSubTaskESt10_Select1stIS4_ESt4lessIiESaIS4_EE17_M_insert_unique_ESt23_Rb_tree_const_iteratorIS4_ERKS4_
000d0e84  w   DF .text	00000078 _ZNSt3mapIiP9XtSubTaskSt4lessIiESaISt4pairIKiS1_EEEixERS5_
000ce778 g    DF .text	00000168 _ZN6XtTask16GetXtSubTaskInfoEiP21TAG_XT_SUBTASK_DETAIL
000ce8e0 g    DF .text	000004b4 _ZN6XtTask16RealStartSubTaskEi
000d9004 g    DF .text	00000090 _ZN9XtSubTaskC1EP15XtSubTaskEvents
0016b2c4 g    DF .text	00000140 _Z8sd_mkdirPKc
000ced94 g    DF .text	00000160 _ZN6XtTask12StartSubTaskEv
000ceef4 g    DF .text	00000088 _ZN6XtTask15TryStartSubTaskEv
000cef7c g    DF .text	0000004c _ZN6XtTask23StartTimerAndDispatcherEv
000cefc8 g    DF .text	000004c8 _ZN6XtTask9StartTaskEv
000d2380 g    DF .text	000003b8 _ZN12XtTaskConfig4initEP18ISinkForTaskConfigbiRKSsPKc
0016f67c g    DF .text	00000130 _ZN8Thunderz17getSubPathAndNameEiPcjc
000cf490 g    DF .text	000000fc _ZN6XtTask17tryStartPriorTaskEi
000cf58c g    DF .text	0000022c _ZN6XtTask15SetPriorSubTaskEi
000cf7b8 g    DF .text	00000448 _ZN6XtTask14OnQuerySuccessEP12IHubProtocolP16ProtocolResponse
000d1eac g    DF .text	00000088 _ZN12XtTaskConfig22UpdateDownloadStrategyEij
000d1de8 g    DF .text	00000044 _ZN12XtTaskConfig20SaveSubTaskIndexInfoEi
0013c53c g    DF .text	00000018 _ZN19ProtocolQueryXtInfo8ResetNetEv
000cfc00 g    DF .text	00000008 _ZThn380_N6XtTask14OnQuerySuccessEP12IHubProtocolP16ProtocolResponse
000cfc08 g    DF .text	00000058 _ZN6XtTask18OnSubTaskIndexInfoEibi
000cfc60 g    DF .text	00000008 _ZThn376_N6XtTask18OnSubTaskIndexInfoEibi
000cfc68 g    DF .text	000001a8 _ZN6XtTask18GetSubTaskRecvByteEi
000cfe10 g    DF .text	000005f4 _ZN6XtTask8StopTaskEj
000d0404 g    DF .text	00000324 _ZN6XtTask17XtDoSelectSubTaskEPjjb
000d0efc  w   DF .text	0000009c _ZNSt8_Rb_treeIySt4pairIKyjESt10_Select1stIS2_ESt4lessIyESaIS2_EE24_M_get_insert_unique_posERS1_
000d0f98  w   DF .text	000001b4 _ZNSt8_Rb_treeIySt4pairIKyjESt10_Select1stIS2_ESt4lessIyESaIS2_EE17_M_insert_unique_ESt23_Rb_tree_const_iteratorIS2_ERKS2_
000d114c  w   DF .text	00000084 _ZNSt3mapIyjSt4lessIyESaISt4pairIKyjEEEixERS3_
000d0728 g    DF .text	000002ac _ZN6XtTask12NotifyFinishEP9XtSubTaski
000d09d4 g    DF .text	00000008 _ZThn384_N6XtTask12NotifyFinishEP9XtSubTaski
002de6a0  w   DO .data.rel.ro	00000008 _ZTI15XtSubTaskEvents
00297350  w   DO .rodata	00000012 _ZTS15XtSubTaskEvents
002de6a8  w   DO .data.rel.ro	00000008 _ZTI18ISinkForTaskConfig
00297364  w   DO .rodata	00000015 _ZTS18ISinkForTaskConfig
0029737c g    DO .rodata	00000008 _ZTS6XtTask
002de6d0 g    DO .data.rel.ro	00000030 _ZTI6XtTask
002de6b0  w   DO .data.rel.ro	0000000c _ZTV15XtSubTaskEvents
002de6c0  w   DO .data.rel.ro	00000010 _ZTV18ISinkForTaskConfig
000d11d0 g    DF .text	00000174 _ZN12XtTaskConfig13LoadCfgUnitV0Ev
0016aa64 g    DF .text	0000005c _Z7sd_readjPciPj
000d1344 g    DF .text	00000070 _ZN12XtTaskConfig9SyncWriteEjPKciPjb
00000000      DF *UND*	00000000 write
0016ac64 g    DF .text	00000004 _Z8sd_flushj
000d13b4 g    DF .text	00000018 _ZN12XtTaskConfig10GetFixUnitEi
0016c924 g    DF .text	00000028 _Z25xl_get_thread_file_systemv
000d1860 g    DF .text	00000044 _ZN12XtTaskConfig17sReadFileCallbackEiPvPKv
000d151c g    DF .text	00000028 _ZN12XtTaskConfig18GetSubTaskCompleteEi
000d1544 g    DF .text	00000194 _ZN12XtTaskConfig15ResetTaskConfigEv
0016a938 g    DF .text	00000038 _Z13sd_setfileposjy
000d16d8 g    DF .text	00000188 _ZN12XtTaskConfig16ReadFileCallbackEiP19TAG_FS_OPERATE_DATA
000d2738  w   DF .text	00000028 _ZNSt4listIiSaIiEE9push_backERKi
000d2760  w   DF .text	00000028 _ZNSt10_List_baseIiSaIiEE8_M_clearEv
000d18a4 g    DF .text	000000b4 _ZN12XtTaskConfigC2Ev
0016aa44 g    DF .text	0000001c _Z11sd_close_exj
00156b1c g    DF .text	0000000c _ZN10RangeQueue5ClearEv
000d2788  w   DF .text	00000188 _ZNSt6vectorI5rangeSaIS0_EE13_M_insert_auxEN9__gnu_cxx17__normal_iteratorIPS0_S2_EERKS0_
000d1a64 g    DF .text	00000318 _ZN12XtTaskConfig12CheckForSaveEv
000d1fe4 g    DF .text	00000044 _ZN12XtTaskConfig18sWriteFileCallbackEiPvPKv
000d1d7c g    DF .text	0000006c _ZN12XtTaskConfig21EraseSubTaskIndexInfoEi
000d1f34 g    DF .text	000000b0 _ZN12XtTaskConfig17WriteFileCallbackEiP19TAG_FS_OPERATE_DATA
000d2028 g    DF .text	000000ac _ZN12XtTaskConfigD2Ev
000d20d4 g    DF .text	000002ac _ZN12XtTaskConfig17LoadCfgUnitV1PlusEv
0015714c g    DF .text	0000004c _ZN10RangeQueueC1ERK5range
00156950 g    DF .text	0000007c _ZNK10RangeQueue15IsRangeRelevantERK5range
00157198 g    DF .text	00000020 _ZN10RangeQueueaSERK5range
00156730 g    DF .text	00000054 _ZNK10RangeQueue5BoundEv
0016a970 g    DF .text	00000048 _Z11sd_filesizejPy
0016a9b8 g    DF .text	0000008c _Z10sd_open_exPKciPj
000d447c  w   DF .text	00000004 _ZN7RefBaseD2Ev
000d447c  w   DF .text	00000004 _ZN7RefBaseD1Ev
000d4480  w   DF .text	00000008 _ZN7Command12GetErrnoCodeEv
000d4488  w   DF .text	00000008 _ZN17AddPeerResCommand12GetErrnoCodeEv
000d4490  w   DF .text	00000014 _ZN7RefBaseD0Ev
000d2910 g    DF .text	00000024 _ZN18StopAllTaskCommand7ExecuteEv
000dc2ec g    DF .text	000001c4 _ZN11TaskManager11StopAllTaskEv
000d2934 g    DF .text	0000002c _ZN21CreateP2SPTaskCommand7ExecuteEv
000dac1c g    DF .text	000004b0 _ZN11TaskManager14CreateP2spTaskEP14TAG_TASK_PARAMPy
000d2960 g    DF .text	00000028 _ZN18ReleaseTaskCommand7ExecuteEv
000dc0a4 g    DF .text	000001a0 _ZN11TaskManager11ReleaseTaskEy
000d2988 g    DF .text	00000028 _ZN16StartTaskCommand7ExecuteEv
000da248 g    DF .text	00000044 _ZN11TaskManager9StartTaskEy
000d29b0 g    DF .text	00000034 _ZN15StopTaskCommand7ExecuteEv
000d9cfc g    DF .text	00000030 _ZN11TaskManager8StopTaskEyj
000d29e4 g    DF .text	00000060 _ZN19AddServerResCommand7ExecuteEv
000d9d60 g    DF .text	0000009c _ZN11TaskManager17AddServerResourceEyiRKSsS1_S1_j16RES_USE_STRATEGY
000d2a44 g    DF .text	00000090 _ZN17AddPeerResCommand7ExecuteEv
000d9dfc g    DF .text	00000130 _ZN11TaskManager15AddPeerResourceEyiRKSsyS1_S1_jtthhjj
000d2ad4 g    DF .text	0000003c _ZN29RemvoeSpecialResourcesCommand7ExecuteEv
000d9f2c g    DF .text	0000007c _ZN11TaskManager22RemoveSpecialResourcesEyij
000d2b10 g    DF .text	00000034 _ZN18GetTaskInfoCommand7ExecuteEv
000d9fa8 g    DF .text	00000030 _ZN11TaskManager11GetTaskInfoEyP19TAG_XL_TASK_INFO_EX
000d2b44 g    DF .text	00000034 _ZN20GetTaskInfoCommandEx7ExecuteEv
000d9fd8 g    DF .text	00000030 _ZN11TaskManager13GetTaskInfoExEyP20TAG_XL_TASK_INFO_EEX
000d2b78 g    DF .text	00000028 _ZN19RequeryIndexCommand7ExecuteEv
000da008 g    DF .text	00000028 _ZN11TaskManager12RequeryIndexEy
000d2ba0 g    DF .text	00000034 _ZN26SetAllowUseResourceCommand7ExecuteEv
000da030 g    DF .text	00000064 _ZN11TaskManager19SetAllowUseResourceEy26_DOWNLOADLIB_RESOURCE_TYPE
000d2bd4 g    DF .text	00000034 _ZN17SetTaskUidCommand7ExecuteEv
000da094 g    DF .text	00000044 _ZN11TaskManager10SetTaskUidEyj
000d2c08 g    DF .text	00000028 _ZN35SwitchOriginToAllResDownloadCommand7ExecuteEv
000da0d8 g    DF .text	00000028 _ZN11TaskManager28SwitchOriginToAllResDownloadEy
000d2c30 g    DF .text	00000034 _ZN25SetOriginUserAgentCommand7ExecuteEv
000da100 g    DF .text	0000008c _ZN11TaskManager18SetOriginUserAgentEyRSs
000d2c64 g    DF .text	00000034 _ZN28SetHttpHeaderPropertyCommand7ExecuteEv
000dc744 g    DF .text	000000c8 _ZN11TaskManager21SetHttpHeaderPropertyEyR8KeyValueISsSsE
000d2c98 g    DF .text	00000034 _ZN20SetReleaseLogCommand7ExecuteEv
000da800 g    DF .text	00000008 _ZN11TaskManager13SetReleaseLogEbP25TAG_SET_RELEASE_LOG_PARAM
000d2ccc g    DF .text	00000050 _ZN18IsLogTurnOnCommand7ExecuteEv
000da808 g    DF .text	00000010 _ZN11TaskManager11IsLogTurnOnERb
000d2d1c g    DF .text	0000003c _ZN18SetFileNameCommand7ExecuteEv
000da944 g    DF .text	0000017c _ZN11TaskManager11SetFileNameEyPKcj
000d2d58 g    DF .text	00000034 _ZN27SeDownloadTaskOriginCommand7ExecuteEv
000da18c g    DF .text	00000030 _ZN11TaskManager20SeDownloadTaskOriginEyRKSs
000d2d8c g    DF .text	0000003c _ZN24GetHttpHeaderInfoCommand7ExecuteEv
000da1bc g    DF .text	00000078 _ZN11TaskManager18GetHttpHeadersInfoEyjP19TAG_DOWNLOAD_HEADER
000d2dc8 g    DF .text	00000028 _ZN20RemoveTaskCfgCommand7ExecuteEv
000da2fc g    DF .text	00000028 _ZN11TaskManager13RemoveTaskCfgEy
000d2df0 g    DF .text	0000003c _ZN21SetTaskLxStateCommand7ExecuteEv
000da28c g    DF .text	00000038 _ZN11TaskManager14SetTaskLxStateEyij
000d2e2c g    DF .text	0000003c _ZN21SetTaskGsStateCommand7ExecuteEv
000da2c4 g    DF .text	00000038 _ZN11TaskManager14SetTaskGsStateEyi25_HIGH_SPEED_CHANNEL_STATE
000d2e68 g    DF .text	00000028 _ZN24EnterPrefetchModeCommand7ExecuteEv
000da324 g    DF .text	00000048 _ZN11TaskManager17EnterPrefetchModeEy
000d2e90 g    DF .text	0000002c _ZN27CreateXtThundermTaskCommand7ExecuteEv
000db0cc g    DF .text	00000338 _ZN11TaskManager20CreateXtThundermTaskEP23TAG_TASK_PARAM_THUNDERMPy
000d2ebc g    DF .text	0000002c _ZN20CreateCIDTaskCommand7ExecuteEv
000db404 g    DF .text	00000518 _ZN11TaskManager13CreateCIDTaskEP18TAG_TASK_PARAM_CIDPy
000d2ee8 g    DF .text	0000002c _ZN25CreateThundereTaskCommand7ExecuteEv
000db91c g    DF .text	0000038c _ZN11TaskManager18CreateThundereTaskEP23TAG_TASK_PARAM_THUNDEREPy
000d2f14 g    DF .text	0000002c _ZN19CreateXtTaskCommand7ExecuteEv
000dbca8 g    DF .text	00000354 _ZN11TaskManager12CreateXtTaskEP17TAG_TASK_PARAM_XTPy
000d2f40 g    DF .text	00000044 _ZN25GetXtSubTaskStatusCommand7ExecuteEv
000da37c g    DF .text	0000004c _ZN11TaskManager18GetXtSubTaskStatusEyP18TAG_XT_TASK_STATUSjj
000d2f84 g    DF .text	0000003c _ZN23GetXtSubTaskInfoCommand7ExecuteEv
000da3c8 g    DF .text	00000044 _ZN11TaskManager16GetXtSubTaskInfoEyiP21TAG_XT_SUBTASK_DETAIL
000d2fc0 g    DF .text	00000034 _ZN22GetUrlQuickInfoCommand7ExecuteEv
000da49c g    DF .text	000000e4 _ZN11TaskManager15GetUrlQuickInfoEyP18TAG_URL_QUICK_INFO
000d2ff4 g    DF .text	00000034 _ZN23GetTaskCheckInfoCommand7ExecuteEv
000da818 g    DF .text	00000030 _ZN11TaskManager16GetTaskCheckInfoEyP22TAG_XL_TASK_CHECK_INFO
000d3028 g    DF .text	000000b0 _ZN18GetLocalUrlCommand7ExecuteEv
000dc4b0 g    DF .text	00000294 _ZN11TaskManager11GetLocalUrlERKSsRSs
000d30d8 g    DF .text	00000034 _ZN24SetXtPriorSubTaskCommand7ExecuteEv
000da7c4 g    DF .text	0000003c _ZN11TaskManager17SetXtPriorSubTaskEyi
000d310c g    DF .text	00000044 _ZN23StatExternalInfoCommand7ExecuteEv
000da890 g    DF .text	00000048 _ZN11TaskManager16StatExternalInfoEyiRKSsS1_
000d3150 g    DF .text	00000054 _ZN24XtSubTaskDoSelectCommand7ExecuteEv
000da40c g    DF .text	00000048 _ZN11TaskManager15XtSelectSubTaskEyPjj
000da454 g    DF .text	00000048 _ZN11TaskManager17XtDeselectSubTaskEyPjj
000d31a4 g    DF .text	0000006c _ZN20SetSpeedLimitCommand7ExecuteEv
0014f104 g    DF .text	000001e0 _ZN12SpeedLimitor13SetSpeedLimitExx
000da8d8 g    DF .text	00000030 _ZN11TaskManager16RecordLimitSpeedEv
000d3210 g    DF .text	00000050 _ZN26GetMaxDownloadSpeedCommand7ExecuteEv
0014f840 g    DF .text	0000006c _ZN12SpeedLimitor19GetMaxDownloadSpeedEv
002dea58 g    DO .data.rel.ro	00000018 _ZTV7Command
000d3260 g    DF .text	0000002c _ZN7CommandC1Ev
000d328c g    DF .text	00000004 _ZN7CommandD2Ev
000d328c g    DF .text	00000004 _ZN7CommandD1Ev
000d3290 g    DF .text	00000028 _ZN15StopTaskCommandD2Ev
002dead0 g    DO .data.rel.ro	00000018 _ZTV15StopTaskCommand
000d3290 g    DF .text	00000028 _ZN15StopTaskCommandD1Ev
000d32b8 g    DF .text	0000001c _ZN15StopTaskCommandD0Ev
000d32d4 g    DF .text	00000064 _ZN16SetUserIdCommandD2Ev
002decb0 g    DO .data.rel.ro	00000018 _ZTV16SetUserIdCommand
000d32d4 g    DF .text	00000064 _ZN16SetUserIdCommandD1Ev
000d3338 g    DF .text	0000001c _ZN16SetUserIdCommandD0Ev
000d3354 g    DF .text	00000064 _ZN21SetMiUiVersionCommandD2Ev
002decc8 g    DO .data.rel.ro	00000018 _ZTV21SetMiUiVersionCommand
000d3354 g    DF .text	00000064 _ZN21SetMiUiVersionCommandD1Ev
000d33b8 g    DF .text	0000001c _ZN21SetMiUiVersionCommandD0Ev
000d33d4 g    DF .text	00000028 _ZN26SetStatReportSwitchCommandD2Ev
002dece0 g    DO .data.rel.ro	00000018 _ZTV26SetStatReportSwitchCommand
000d33d4 g    DF .text	00000028 _ZN26SetStatReportSwitchCommandD1Ev
000d33fc g    DF .text	0000001c _ZN26SetStatReportSwitchCommandD0Ev
000d3418 g    DF .text	00000064 _ZN13SetMacCommandD2Ev
002decf8 g    DO .data.rel.ro	00000018 _ZTV13SetMacCommand
000d3418 g    DF .text	00000064 _ZN13SetMacCommandD1Ev
000d347c g    DF .text	0000001c _ZN13SetMacCommandD0Ev
000d3498 g    DF .text	00000064 _ZN14SetImeiCommandD2Ev
002ded10 g    DO .data.rel.ro	00000018 _ZTV14SetImeiCommand
000d3498 g    DF .text	00000064 _ZN14SetImeiCommandD1Ev
000d34fc g    DF .text	0000001c _ZN14SetImeiCommandD0Ev
000d44a4  w   DF .text	00000028 _ZN24SetXtPriorSubTaskCommandD2Ev
000d44a4  w   DF .text	00000028 _ZN24SetXtPriorSubTaskCommandD1Ev
000d44cc  w   DF .text	0000001c _ZN24SetXtPriorSubTaskCommandD0Ev
000d44e8  w   DF .text	00000028 _ZN26GetMaxDownloadSpeedCommandD2Ev
002deea8 g    DO .data.rel.ro	00000018 _ZTV26GetMaxDownloadSpeedCommand
000d44e8  w   DF .text	00000028 _ZN26GetMaxDownloadSpeedCommandD1Ev
000d4510  w   DF .text	0000001c _ZN26GetMaxDownloadSpeedCommandD0Ev
000d452c  w   DF .text	00000028 _ZN20SetSpeedLimitCommandD2Ev
002dee90 g    DO .data.rel.ro	00000018 _ZTV20SetSpeedLimitCommand
000d452c  w   DF .text	00000028 _ZN20SetSpeedLimitCommandD1Ev
000d4554  w   DF .text	0000001c _ZN20SetSpeedLimitCommandD0Ev
000d4570  w   DF .text	00000028 _ZN22GetUrlQuickInfoCommandD2Ev
002dee78 g    DO .data.rel.ro	00000018 _ZTV22GetUrlQuickInfoCommand
000d4570  w   DF .text	00000028 _ZN22GetUrlQuickInfoCommandD1Ev
000d4598  w   DF .text	0000001c _ZN22GetUrlQuickInfoCommandD0Ev
000d45b4  w   DF .text	00000028 _ZN24XtSubTaskDoSelectCommandD2Ev
000d45b4  w   DF .text	00000028 _ZN24XtSubTaskDoSelectCommandD1Ev
000d45dc  w   DF .text	0000001c _ZN24XtSubTaskDoSelectCommandD0Ev
000d45f8  w   DF .text	00000028 _ZN23GetXtSubTaskInfoCommandD2Ev
000d45f8  w   DF .text	00000028 _ZN23GetXtSubTaskInfoCommandD1Ev
000d4620  w   DF .text	0000001c _ZN23GetXtSubTaskInfoCommandD0Ev
000d463c  w   DF .text	00000028 _ZN25GetXtSubTaskStatusCommandD2Ev
000d463c  w   DF .text	00000028 _ZN25GetXtSubTaskStatusCommandD1Ev
000d4664  w   DF .text	0000001c _ZN25GetXtSubTaskStatusCommandD0Ev
000d4680  w   DF .text	00000028 _ZN19CreateXtTaskCommandD2Ev
000d4680  w   DF .text	00000028 _ZN19CreateXtTaskCommandD1Ev
000d46a8  w   DF .text	0000001c _ZN19CreateXtTaskCommandD0Ev
000d46c4  w   DF .text	00000028 _ZN25CreateThundereTaskCommandD2Ev
000d46c4  w   DF .text	00000028 _ZN25CreateThundereTaskCommandD1Ev
000d46ec  w   DF .text	0000001c _ZN25CreateThundereTaskCommandD0Ev
000d4708  w   DF .text	00000028 _ZN20CreateCIDTaskCommandD2Ev
002dede8 g    DO .data.rel.ro	00000018 _ZTV20CreateCIDTaskCommand
000d4708  w   DF .text	00000028 _ZN20CreateCIDTaskCommandD1Ev
000d4730  w   DF .text	0000001c _ZN20CreateCIDTaskCommandD0Ev
000d474c  w   DF .text	00000028 _ZN27CreateXtThundermTaskCommandD2Ev
000d474c  w   DF .text	00000028 _ZN27CreateXtThundermTaskCommandD1Ev
000d4774  w   DF .text	0000001c _ZN27CreateXtThundermTaskCommandD0Ev
000d4790  w   DF .text	00000028 _ZN24EnterPrefetchModeCommandD2Ev
002dedb8 g    DO .data.rel.ro	00000018 _ZTV24EnterPrefetchModeCommand
000d4790  w   DF .text	00000028 _ZN24EnterPrefetchModeCommandD1Ev
000d47b8  w   DF .text	0000001c _ZN24EnterPrefetchModeCommandD0Ev
000d47d4  w   DF .text	00000028 _ZN21SetTaskGsStateCommandD2Ev
002deda0 g    DO .data.rel.ro	00000018 _ZTV21SetTaskGsStateCommand
000d47d4  w   DF .text	00000028 _ZN21SetTaskGsStateCommandD1Ev
000d47fc  w   DF .text	0000001c _ZN21SetTaskGsStateCommandD0Ev
000d4818  w   DF .text	00000028 _ZN21SetTaskLxStateCommandD2Ev
002ded88 g    DO .data.rel.ro	00000018 _ZTV21SetTaskLxStateCommand
000d4818  w   DF .text	00000028 _ZN21SetTaskLxStateCommandD1Ev
000d4840  w   DF .text	0000001c _ZN21SetTaskLxStateCommandD0Ev
000d485c  w   DF .text	00000028 _ZN24GetHttpHeaderInfoCommandD2Ev
002ded58 g    DO .data.rel.ro	00000018 _ZTV24GetHttpHeaderInfoCommand
000d485c  w   DF .text	00000028 _ZN24GetHttpHeaderInfoCommandD1Ev
000d4884  w   DF .text	0000001c _ZN24GetHttpHeaderInfoCommandD0Ev
000d48a0  w   DF .text	00000028 _ZN18SetFileNameCommandD2Ev
002ded28 g    DO .data.rel.ro	00000018 _ZTV18SetFileNameCommand
000d48a0  w   DF .text	00000028 _ZN18SetFileNameCommandD1Ev
000d48c8  w   DF .text	0000001c _ZN18SetFileNameCommandD0Ev
000d48e4  w   DF .text	00000028 _ZN18IsLogTurnOnCommandD2Ev
002dec98 g    DO .data.rel.ro	00000018 _ZTV18IsLogTurnOnCommand
000d48e4  w   DF .text	00000028 _ZN18IsLogTurnOnCommandD1Ev
000d490c  w   DF .text	0000001c _ZN18IsLogTurnOnCommandD0Ev
000d4928  w   DF .text	00000028 _ZN20SetReleaseLogCommandD2Ev
002dec80 g    DO .data.rel.ro	00000018 _ZTV20SetReleaseLogCommand
000d4928  w   DF .text	00000028 _ZN20SetReleaseLogCommandD1Ev
000d4950  w   DF .text	0000001c _ZN20SetReleaseLogCommandD0Ev
000d496c  w   DF .text	00000028 _ZN35SwitchOriginToAllResDownloadCommandD2Ev
002dec38 g    DO .data.rel.ro	00000018 _ZTV35SwitchOriginToAllResDownloadCommand
000d496c  w   DF .text	00000028 _ZN35SwitchOriginToAllResDownloadCommandD1Ev
000d4994  w   DF .text	0000001c _ZN35SwitchOriginToAllResDownloadCommandD0Ev
000d49b0  w   DF .text	00000028 _ZN34NotifyNetWorkCarrierChangedCommandD2Ev
002dec08 g    DO .data.rel.ro	00000018 _ZTV34NotifyNetWorkCarrierChangedCommand
000d49b0  w   DF .text	00000028 _ZN34NotifyNetWorkCarrierChangedCommandD1Ev
000d49d8  w   DF .text	0000001c _ZN34NotifyNetWorkCarrierChangedCommandD0Ev
000d49f4  w   DF .text	00000028 _ZN27NotifyNetWorkChangedCommandD2Ev
002debf0 g    DO .data.rel.ro	00000018 _ZTV27NotifyNetWorkChangedCommand
000d49f4  w   DF .text	00000028 _ZN27NotifyNetWorkChangedCommandD1Ev
000d4a1c  w   DF .text	0000001c _ZN27NotifyNetWorkChangedCommandD0Ev
000d4a38  w   DF .text	00000028 _ZN17SetTaskUidCommandD2Ev
002debd8 g    DO .data.rel.ro	00000018 _ZTV17SetTaskUidCommand
000d4a38  w   DF .text	00000028 _ZN17SetTaskUidCommandD1Ev
000d4a60  w   DF .text	0000001c _ZN17SetTaskUidCommandD0Ev
000d4a7c  w   DF .text	00000028 _ZN26SetAllowUseResourceCommandD2Ev
002debc0 g    DO .data.rel.ro	00000018 _ZTV26SetAllowUseResourceCommand
000d4a7c  w   DF .text	00000028 _ZN26SetAllowUseResourceCommandD1Ev
000d4aa4  w   DF .text	0000001c _ZN26SetAllowUseResourceCommandD0Ev
000d4ac0  w   DF .text	00000028 _ZN19RequeryIndexCommandD2Ev
002deba8 g    DO .data.rel.ro	00000018 _ZTV19RequeryIndexCommand
000d4ac0  w   DF .text	00000028 _ZN19RequeryIndexCommandD1Ev
000d4ae8  w   DF .text	0000001c _ZN19RequeryIndexCommandD0Ev
000d4b04  w   DF .text	00000028 _ZN18GetLocalUrlCommandD2Ev
002deb90 g    DO .data.rel.ro	00000018 _ZTV18GetLocalUrlCommand
000d4b04  w   DF .text	00000028 _ZN18GetLocalUrlCommandD1Ev
000d4b2c  w   DF .text	0000001c _ZN18GetLocalUrlCommandD0Ev
000d4b48  w   DF .text	00000028 _ZN23GetTaskCheckInfoCommandD2Ev
002deb78 g    DO .data.rel.ro	00000018 _ZTV23GetTaskCheckInfoCommand
000d4b48  w   DF .text	00000028 _ZN23GetTaskCheckInfoCommandD1Ev
000d4b70  w   DF .text	0000001c _ZN23GetTaskCheckInfoCommandD0Ev
000d4b8c  w   DF .text	00000028 _ZN20GetTaskInfoCommandExD2Ev
002deb60 g    DO .data.rel.ro	00000018 _ZTV20GetTaskInfoCommandEx
000d4b8c  w   DF .text	00000028 _ZN20GetTaskInfoCommandExD1Ev
000d4bb4  w   DF .text	0000001c _ZN20GetTaskInfoCommandExD0Ev
000d4bd0  w   DF .text	00000028 _ZN18GetTaskInfoCommandD2Ev
002deb48 g    DO .data.rel.ro	00000018 _ZTV18GetTaskInfoCommand
000d4bd0  w   DF .text	00000028 _ZN18GetTaskInfoCommandD1Ev
000d4bf8  w   DF .text	0000001c _ZN18GetTaskInfoCommandD0Ev
000d4c14  w   DF .text	00000028 _ZN29RemvoeSpecialResourcesCommandD2Ev
002deb30 g    DO .data.rel.ro	00000018 _ZTV29RemvoeSpecialResourcesCommand
000d4c14  w   DF .text	00000028 _ZN29RemvoeSpecialResourcesCommandD1Ev
000d4c3c  w   DF .text	0000001c _ZN29RemvoeSpecialResourcesCommandD0Ev
000d4c58  w   DF .text	00000028 _ZN20RemoveTaskCfgCommandD2Ev
002deae8 g    DO .data.rel.ro	00000018 _ZTV20RemoveTaskCfgCommand
000d4c58  w   DF .text	00000028 _ZN20RemoveTaskCfgCommandD1Ev
000d4c80  w   DF .text	0000001c _ZN20RemoveTaskCfgCommandD0Ev
000d4c9c  w   DF .text	00000028 _ZN16StartTaskCommandD2Ev
002deab8 g    DO .data.rel.ro	00000018 _ZTV16StartTaskCommand
000d4c9c  w   DF .text	00000028 _ZN16StartTaskCommandD1Ev
000d4cc4  w   DF .text	0000001c _ZN16StartTaskCommandD0Ev
000d4ce0  w   DF .text	00000028 _ZN21CreateP2SPTaskCommandD2Ev
002deaa0 g    DO .data.rel.ro	00000018 _ZTV21CreateP2SPTaskCommand
000d4ce0  w   DF .text	00000028 _ZN21CreateP2SPTaskCommandD1Ev
000d4d08  w   DF .text	0000001c _ZN21CreateP2SPTaskCommandD0Ev
000d4d24  w   DF .text	00000028 _ZN18StopAllTaskCommandD2Ev
002dea88 g    DO .data.rel.ro	00000018 _ZTV18StopAllTaskCommand
000d4d24  w   DF .text	00000028 _ZN18StopAllTaskCommandD1Ev
000d4d4c  w   DF .text	0000001c _ZN18StopAllTaskCommandD0Ev
000d4d68  w   DF .text	00000028 _ZN18ReleaseTaskCommandD2Ev
002dea70 g    DO .data.rel.ro	00000018 _ZTV18ReleaseTaskCommand
000d4d68  w   DF .text	00000028 _ZN18ReleaseTaskCommandD1Ev
000d4d90  w   DF .text	0000001c _ZN18ReleaseTaskCommandD0Ev
000d4dac  w   DF .text	00000040 _ZN28SetHttpHeaderPropertyCommandD2Ev
002dec68 g    DO .data.rel.ro	00000018 _ZTV28SetHttpHeaderPropertyCommand
000d4dac  w   DF .text	00000040 _ZN28SetHttpHeaderPropertyCommandD1Ev
000d4dec  w   DF .text	0000001c _ZN28SetHttpHeaderPropertyCommandD0Ev
000d3518 g    DF .text	00000038 _ZN23SetLocalPropertyCommandD2Ev
002ded70 g    DO .data.rel.ro	00000018 _ZTV23SetLocalPropertyCommand
000d3518 g    DF .text	00000038 _ZN23SetLocalPropertyCommandD1Ev
000d3550 g    DF .text	0000001c _ZN23SetLocalPropertyCommandD0Ev
000d4e08  w   DF .text	00000038 _ZN23StatExternalInfoCommandD2Ev
002deed8 g    DO .data.rel.ro	00000018 _ZTV23StatExternalInfoCommand
000d4e08  w   DF .text	00000038 _ZN23StatExternalInfoCommandD1Ev
000d4e40  w   DF .text	0000001c _ZN23StatExternalInfoCommandD0Ev
000d4e5c  w   DF .text	00000030 _ZN27SeDownloadTaskOriginCommandD2Ev
002ded40 g    DO .data.rel.ro	00000018 _ZTV27SeDownloadTaskOriginCommand
000d4e5c  w   DF .text	00000030 _ZN27SeDownloadTaskOriginCommandD1Ev
000d4e8c  w   DF .text	0000001c _ZN27SeDownloadTaskOriginCommandD0Ev
000d4ea8  w   DF .text	00000030 _ZN25SetOriginUserAgentCommandD2Ev
002dec50 g    DO .data.rel.ro	00000018 _ZTV25SetOriginUserAgentCommand
000d4ea8  w   DF .text	00000030 _ZN25SetOriginUserAgentCommandD1Ev
000d4ed8  w   DF .text	0000001c _ZN25SetOriginUserAgentCommandD0Ev
000d4ef4  w   DF .text	00000030 _ZN29NotifyWifiBSSIDChangedCommandD2Ev
002dec20 g    DO .data.rel.ro	00000018 _ZTV29NotifyWifiBSSIDChangedCommand
000d4ef4  w   DF .text	00000030 _ZN29NotifyWifiBSSIDChangedCommandD1Ev
000d4f24  w   DF .text	0000001c _ZN29NotifyWifiBSSIDChangedCommandD0Ev
000d4f40  w   DF .text	00000040 _ZN17AddPeerResCommandD2Ev
002deb18 g    DO .data.rel.ro	00000018 _ZTV17AddPeerResCommand
000d4f40  w   DF .text	00000040 _ZN17AddPeerResCommandD1Ev
000d4f80  w   DF .text	0000001c _ZN17AddPeerResCommandD0Ev
000d4f9c  w   DF .text	00000040 _ZN19AddServerResCommandD2Ev
002deb00 g    DO .data.rel.ro	00000018 _ZTV19AddServerResCommand
000d4f9c  w   DF .text	00000040 _ZN19AddServerResCommandD1Ev
000d4fdc  w   DF .text	0000001c _ZN19AddServerResCommandD0Ev
000d356c g    DF .text	0000001c _ZN7CommandD0Ev
000d3588 g    DF .text	00000028 _ZN18StopAllTaskCommandC2Ev
000d35b0 g    DF .text	00000038 _ZN21CreateP2SPTaskCommandC2EP14TAG_TASK_PARAMPy
000d35e8 g    DF .text	00000034 _ZN18ReleaseTaskCommandC2Ey
000d361c g    DF .text	00000034 _ZN16StartTaskCommandC2Ey
000d3650 g    DF .text	0000003c _ZN15StopTaskCommandC2Eyj
000d368c g    DF .text	0000009c _ZN19AddServerResCommandC2EyiRKSsS1_S1_j16RES_USE_STRATEGY
000d3728 g    DF .text	000000cc _ZN17AddPeerResCommandC2EyiRKSsyS1_S1_jtthhjj
000d37f4 g    DF .text	00000044 _ZN29RemvoeSpecialResourcesCommandC2Eyij
000d3838 g    DF .text	0000003c _ZN18GetTaskInfoCommandC2EyP19TAG_XL_TASK_INFO_EX
000d3874 g    DF .text	0000003c _ZN20GetTaskInfoCommandExC2EyP20TAG_XL_TASK_INFO_EEX
000d38b0 g    DF .text	00000034 _ZN19RequeryIndexCommandC2Ey
000d38e4 g    DF .text	00000030 _ZN27NotifyNetWorkChangedCommandC2E11NetWorkType
000d3914 g    DF .text	00000030 _ZN34NotifyNetWorkCarrierChangedCommandC2E14NetWorkCarrier
000d3944 g    DF .text	0000006c _ZN29NotifyWifiBSSIDChangedCommandC2EPKcj
000d39b0 g    DF .text	0000003c _ZN26SetAllowUseResourceCommandC2Ey26_DOWNLOADLIB_RESOURCE_TYPE
000d39ec g    DF .text	0000003c _ZN17SetTaskUidCommandC2Eyj
000d3a28 g    DF .text	00000034 _ZN35SwitchOriginToAllResDownloadCommandC2Ey
000d3a5c g    DF .text	00000080 _ZN25SetOriginUserAgentCommandC2EyPKcj
000d3adc g    DF .text	000000dc _ZN28SetHttpHeaderPropertyCommandC2EyPKcjS1_j
000d3bb8 g    DF .text	00000038 _ZN20SetReleaseLogCommandC2EjP25TAG_SET_RELEASE_LOG_PARAM
000d3bf0 g    DF .text	00000030 _ZN18IsLogTurnOnCommandC2EPj
000d3c20 g    DF .text	00000034 _ZN16SetUserIdCommandC2Ev
0016a074 g    DF .text	0000005c sd_strndup
000d3c80 g    DF .text	00000034 _ZN21SetMiUiVersionCommandC2Ev
000d3ce0 g    DF .text	00000030 _ZN26SetStatReportSwitchCommandC2Ev
000d3d1c g    DF .text	00000034 _ZN13SetMacCommandC2Ev
000d3d7c g    DF .text	00000034 _ZN14SetImeiCommandC2Ev
000d3ddc g    DF .text	00000044 _ZN18SetFileNameCommandC2EyPKcj
000d3e20 g    DF .text	00000070 _ZN27SeDownloadTaskOriginCommandC2EyPKcj
000d3e90 g    DF .text	00000044 _ZN24GetHttpHeaderInfoCommandC2EyjP19TAG_DOWNLOAD_HEADER
000d3ed4 g    DF .text	00000040 _ZN23SetLocalPropertyCommandC2Ev
000d3f7c g    DF .text	00000034 _ZN20RemoveTaskCfgCommandC2Ey
000d3fb0 g    DF .text	00000044 _ZN21SetTaskLxStateCommandC2Eyij
000d3ff4 g    DF .text	00000044 _ZN21SetTaskGsStateCommandC2Eyi25_HIGH_SPEED_CHANNEL_STATE
000d4038 g    DF .text	00000034 _ZN24EnterPrefetchModeCommandC2Ey
000d406c g    DF .text	00000038 _ZN20CreateCIDTaskCommandC2EP18TAG_TASK_PARAM_CIDPy
000d40a4 g    DF .text	0000003c _ZN22GetUrlQuickInfoCommandC2EyP18TAG_URL_QUICK_INFO
000d40e0 g    DF .text	0000003c _ZN23GetTaskCheckInfoCommandC2EyP22TAG_XL_TASK_CHECK_INFO
000d411c g    DF .text	00000058 _ZN18GetLocalUrlCommandC2EPKciPci
000d4174 g    DF .text	0000003c _ZN20SetSpeedLimitCommandC2Exx
000d41b0 g    DF .text	00000030 _ZN26GetMaxDownloadSpeedCommandC2EPx
000d41e0 g    DF .text	00000040 _ZN23StatExternalInfoCommandC2Ev
000d42b0 g    DF .text	00000018 _ZN34NotifyNetWorkCarrierChangedCommand7ExecuteEv
00173160 g    DF .text	00000008 _ZN10GlobalInfo17SetNetWorkCarrierE14NetWorkCarrier
000d42c8 g    DF .text	0000001c _ZN16SetUserIdCommand7ExecuteEv
00172f68 g    DF .text	00000024 _ZN10GlobalInfo9SetUserIdEPKcj
000d42e4 g    DF .text	0000001c _ZN21SetMiUiVersionCommand7ExecuteEv
000d4300 g    DF .text	0000001c _ZN13SetMacCommand7ExecuteEv
00172fc0 g    DF .text	00000024 _ZN10GlobalInfo6SetMacEPKcj
000d431c g    DF .text	0000001c _ZN14SetImeiCommand7ExecuteEv
00172fec g    DF .text	00000024 _ZN10GlobalInfo7SetImeiEPKcj
000d4338 g    DF .text	00000030 _ZN26SetStatReportSwitchCommand7ExecuteEv
001733bc g    DF .text	00000008 _ZN10GlobalInfo19SetStatReportSwitchEb
000d4368 g    DF .text	00000040 _ZN23SetLocalPropertyCommand7ExecuteEv
001731e0 g    DF .text	0000011c _ZN10GlobalInfo16SetLocalPropertyERKSsS1_
00133f0c g    DF .text	000000d8 _ZN14TaskStatModule19ReportLocalPropertyERKSsS1_
000d43a8 g    DF .text	0000008c _ZN27NotifyNetWorkChangedCommand7ExecuteEv
00173054 g    DF .text	00000104 _ZN10GlobalInfo14SetNetWorkTypeE11NetWorkType
00133cd0 g    DF .text	0000001c _ZN14TaskStatModule21SetCurrentNetWorkTypeE11NetWorkType
0012022c g    DF .text	0000026c PtlNewNatCheck_start
000d4434 g    DF .text	00000048 _ZN29NotifyWifiBSSIDChangedCommand7ExecuteEv
00173180 g    DF .text	00000050 _ZN10GlobalInfo12SetWifiBssidESs
002de7f0  w   DO .data.rel.ro	00000008 _ZTI7RefBase
00297384  w   DO .rodata	00000009 _ZTS7RefBase
00297390 g    DO .rodata	00000009 _ZTS7Command
002de808 g    DO .data.rel.ro	0000000c _ZTI7Command
0029739c g    DO .rodata	00000015 _ZTS18ReleaseTaskCommand
002de814 g    DO .data.rel.ro	0000000c _ZTI18ReleaseTaskCommand
002973b4 g    DO .rodata	00000015 _ZTS18StopAllTaskCommand
002de820 g    DO .data.rel.ro	0000000c _ZTI18StopAllTaskCommand
002973cc g    DO .rodata	00000018 _ZTS21CreateP2SPTaskCommand
002de82c g    DO .data.rel.ro	0000000c _ZTI21CreateP2SPTaskCommand
002973e4 g    DO .rodata	00000013 _ZTS16StartTaskCommand
002de838 g    DO .data.rel.ro	0000000c _ZTI16StartTaskCommand
002973f8 g    DO .rodata	00000012 _ZTS15StopTaskCommand
002de844 g    DO .data.rel.ro	0000000c _ZTI15StopTaskCommand
0029740c g    DO .rodata	00000017 _ZTS20RemoveTaskCfgCommand
002de850 g    DO .data.rel.ro	0000000c _ZTI20RemoveTaskCfgCommand
00297424 g    DO .rodata	00000016 _ZTS19AddServerResCommand
002de85c g    DO .data.rel.ro	0000000c _ZTI19AddServerResCommand
0029743c g    DO .rodata	00000014 _ZTS17AddPeerResCommand
002de868 g    DO .data.rel.ro	0000000c _ZTI17AddPeerResCommand
00297450 g    DO .rodata	00000020 _ZTS29RemvoeSpecialResourcesCommand
002de874 g    DO .data.rel.ro	0000000c _ZTI29RemvoeSpecialResourcesCommand
00297470 g    DO .rodata	00000015 _ZTS18GetTaskInfoCommand
002de880 g    DO .data.rel.ro	0000000c _ZTI18GetTaskInfoCommand
00297488 g    DO .rodata	00000017 _ZTS20GetTaskInfoCommandEx
002de88c g    DO .data.rel.ro	0000000c _ZTI20GetTaskInfoCommandEx
002974a0 g    DO .rodata	0000001a _ZTS23GetTaskCheckInfoCommand
002de898 g    DO .data.rel.ro	0000000c _ZTI23GetTaskCheckInfoCommand
002974bc g    DO .rodata	00000015 _ZTS18GetLocalUrlCommand
002de8a4 g    DO .data.rel.ro	0000000c _ZTI18GetLocalUrlCommand
002974d4 g    DO .rodata	00000016 _ZTS19RequeryIndexCommand
002de8b0 g    DO .data.rel.ro	0000000c _ZTI19RequeryIndexCommand
002974ec g    DO .rodata	0000001d _ZTS26SetAllowUseResourceCommand
002de8bc g    DO .data.rel.ro	0000000c _ZTI26SetAllowUseResourceCommand
0029750c g    DO .rodata	00000014 _ZTS17SetTaskUidCommand
002de8c8 g    DO .data.rel.ro	0000000c _ZTI17SetTaskUidCommand
00297520 g    DO .rodata	0000001e _ZTS27NotifyNetWorkChangedCommand
002de8d4 g    DO .data.rel.ro	0000000c _ZTI27NotifyNetWorkChangedCommand
00297540 g    DO .rodata	00000025 _ZTS34NotifyNetWorkCarrierChangedCommand
002de8e0 g    DO .data.rel.ro	0000000c _ZTI34NotifyNetWorkCarrierChangedCommand
00297568 g    DO .rodata	00000020 _ZTS29NotifyWifiBSSIDChangedCommand
002de8ec g    DO .data.rel.ro	0000000c _ZTI29NotifyWifiBSSIDChangedCommand
00297588 g    DO .rodata	00000026 _ZTS35SwitchOriginToAllResDownloadCommand
002de8f8 g    DO .data.rel.ro	0000000c _ZTI35SwitchOriginToAllResDownloadCommand
002975b0 g    DO .rodata	0000001c _ZTS25SetOriginUserAgentCommand
002de904 g    DO .data.rel.ro	0000000c _ZTI25SetOriginUserAgentCommand
002975cc g    DO .rodata	0000001f _ZTS28SetHttpHeaderPropertyCommand
002de910 g    DO .data.rel.ro	0000000c _ZTI28SetHttpHeaderPropertyCommand
002975ec g    DO .rodata	00000017 _ZTS20SetReleaseLogCommand
002de91c g    DO .data.rel.ro	0000000c _ZTI20SetReleaseLogCommand
00297604 g    DO .rodata	00000015 _ZTS18IsLogTurnOnCommand
002de928 g    DO .data.rel.ro	0000000c _ZTI18IsLogTurnOnCommand
0029761c g    DO .rodata	00000013 _ZTS16SetUserIdCommand
002de934 g    DO .data.rel.ro	0000000c _ZTI16SetUserIdCommand
00297630 g    DO .rodata	00000018 _ZTS21SetMiUiVersionCommand
002de940 g    DO .data.rel.ro	0000000c _ZTI21SetMiUiVersionCommand
00297648 g    DO .rodata	0000001d _ZTS26SetStatReportSwitchCommand
002de94c g    DO .data.rel.ro	0000000c _ZTI26SetStatReportSwitchCommand
00297668 g    DO .rodata	00000010 _ZTS13SetMacCommand
002de958 g    DO .data.rel.ro	0000000c _ZTI13SetMacCommand
00297678 g    DO .rodata	00000011 _ZTS14SetImeiCommand
002de964 g    DO .data.rel.ro	0000000c _ZTI14SetImeiCommand
0029768c g    DO .rodata	00000015 _ZTS18SetFileNameCommand
002de970 g    DO .data.rel.ro	0000000c _ZTI18SetFileNameCommand
002976a4 g    DO .rodata	0000001e _ZTS27SeDownloadTaskOriginCommand
002de97c g    DO .data.rel.ro	0000000c _ZTI27SeDownloadTaskOriginCommand
002976c4 g    DO .rodata	0000001b _ZTS24GetHttpHeaderInfoCommand
002de988 g    DO .data.rel.ro	0000000c _ZTI24GetHttpHeaderInfoCommand
002976e0 g    DO .rodata	0000001a _ZTS23SetLocalPropertyCommand
002de994 g    DO .data.rel.ro	0000000c _ZTI23SetLocalPropertyCommand
002976fc g    DO .rodata	00000018 _ZTS21SetTaskLxStateCommand
002de9a0 g    DO .data.rel.ro	0000000c _ZTI21SetTaskLxStateCommand
00297714 g    DO .rodata	00000018 _ZTS21SetTaskGsStateCommand
002de9ac g    DO .data.rel.ro	0000000c _ZTI21SetTaskGsStateCommand
0029772c g    DO .rodata	0000001b _ZTS24EnterPrefetchModeCommand
002de9b8 g    DO .data.rel.ro	0000000c _ZTI24EnterPrefetchModeCommand
00297748 g    DO .rodata	0000001e _ZTS27CreateXtThundermTaskCommand
002de9c4 g    DO .data.rel.ro	0000000c _ZTI27CreateXtThundermTaskCommand
00297768 g    DO .rodata	00000017 _ZTS20CreateCIDTaskCommand
002de9d0 g    DO .data.rel.ro	0000000c _ZTI20CreateCIDTaskCommand
00297780 g    DO .rodata	0000001c _ZTS25CreateThundereTaskCommand
002de9dc g    DO .data.rel.ro	0000000c _ZTI25CreateThundereTaskCommand
0029779c g    DO .rodata	00000016 _ZTS19CreateXtTaskCommand
002de9e8 g    DO .data.rel.ro	0000000c _ZTI19CreateXtTaskCommand
002977b4 g    DO .rodata	0000001c _ZTS25GetXtSubTaskStatusCommand
002de9f4 g    DO .data.rel.ro	0000000c _ZTI25GetXtSubTaskStatusCommand
002977d0 g    DO .rodata	0000001a _ZTS23GetXtSubTaskInfoCommand
002dea00 g    DO .data.rel.ro	0000000c _ZTI23GetXtSubTaskInfoCommand
002977ec g    DO .rodata	0000001b _ZTS24XtSubTaskDoSelectCommand
002dea0c g    DO .data.rel.ro	0000000c _ZTI24XtSubTaskDoSelectCommand
00297808 g    DO .rodata	00000019 _ZTS22GetUrlQuickInfoCommand
002dea18 g    DO .data.rel.ro	0000000c _ZTI22GetUrlQuickInfoCommand
00297824 g    DO .rodata	00000017 _ZTS20SetSpeedLimitCommand
002dea24 g    DO .data.rel.ro	0000000c _ZTI20SetSpeedLimitCommand
0029783c g    DO .rodata	0000001d _ZTS26GetMaxDownloadSpeedCommand
002dea30 g    DO .data.rel.ro	0000000c _ZTI26GetMaxDownloadSpeedCommand
0029785c g    DO .rodata	0000001b _ZTS24SetXtPriorSubTaskCommand
002dea3c g    DO .data.rel.ro	0000000c _ZTI24SetXtPriorSubTaskCommand
00297878 g    DO .rodata	0000001a _ZTS23StatExternalInfoCommand
002dea48 g    DO .data.rel.ro	0000000c _ZTI23StatExternalInfoCommand
002de7f8  w   DO .data.rel.ro	00000010 _ZTV7RefBase
000d4ff8 g    DF .text	000000e8 _ZN7CidTask16InitTaskStatDataEv
00000000      DF *UND*	00000000 sprintf
000d50e0 g    DF .text	00000064 _ZN7CidTaskC2Ev
002def00 g    DO .data.rel.ro	000001d4 _ZTV7CidTask
000d50e0 g    DF .text	00000064 _ZN7CidTaskC1Ev
000d5144 g    DF .text	00000060 _ZN7CidTaskD2Ev
000d5144 g    DF .text	00000060 _ZN7CidTaskD1Ev
000d51a4 g    DF .text	00000008 _ZThn380_N7CidTaskD1Ev
000d51ac g    DF .text	00000008 _ZThn376_N7CidTaskD1Ev
000d51b4 g    DF .text	0000001c _ZN7CidTaskD0Ev
000d51d0 g    DF .text	00000008 _ZThn380_N7CidTaskD0Ev
000d51d8 g    DF .text	00000008 _ZThn376_N7CidTaskD0Ev
00297894 g    DO .rodata	00000009 _ZTS7CidTask
002deef0 g    DO .data.rel.ro	0000000c _ZTI7CidTask
000d8018  w   DF .text	0000000c _ZN14XtThundermTask28SwitchOriginToAllResDownloadEv
000d8024  w   DF .text	0000000c _ZN14XtThundermTask12RequeryIndexEv
000d8030  w   DF .text	00000008 _ZN14XtThundermTask13UnInitManagerEv
000d51e0 g    DF .text	00000018 _ZN14XtThundermTask16RecordLimitSpeedEv
000d51f8 g    DF .text	00000084 _ZN14XtThundermTask21SetDownloadTaskOriginERKSs
000d527c g    DF .text	00000094 _ZN14XtThundermTask17HandleAbandonPipeEb
000f98d0 g    DF .text	00000084 _ZN12MetadataPipeD1Ev
000d5310 g    DF .text	0000013c _ZN14XtThundermTask13SetTaskFinishEi
000d544c g    DF .text	00000148 _ZN14XtThundermTask12StartSubTaskEv
000d8b7c g    DF .text	00000120 _ZN12ThunderzTaskC1ESs13_XL_TASK_TYPE
000d5594 g    DF .text	000000b8 _ZN14XtThundermTask13OnQueryFailedEP12IHubProtocoli
000d577c g    DF .text	00000024 _ZN14XtThundermTask8sTimeoutEyPvS0_
000d564c g    DF .text	00000008 _ZThn376_N14XtThundermTask13OnQueryFailedEP12IHubProtocoli
000d5654 g    DF .text	00000058 _ZN14XtThundermTask11StopSubTaskEj
000d56ac g    DF .text	000000d0 _ZN14XtThundermTask7TimeoutEyPv
000d57a0 g    DF .text	000000c0 _ZN14XtThundermTask16ValidateThunderzEv
000d5860 g    DF .text	000001d8 _ZN14XtThundermTask11GetTaskInfoEP19TAG_XL_TASK_INFO_EX
000d5a38 g    DF .text	00000128 _ZN14XtThundermTask17WriteThunderzFileEPKci
0016ac00 g    DF .text	00000064 _Z8sd_writejPKciPj
000d5b60 g    DF .text	0000013c _ZN14XtThundermTask16SetFileNameLaterEPKcj
000d5c9c g    DF .text	0000012c _ZN14XtThundermTask18IsUriSchemaSupportESs
000d5dc8 g    DF .text	00000160 _ZN14XtThundermTask14OnQuerySuccessEP12IHubProtocolP16ProtocolResponse
000d5f28 g    DF .text	00000008 _ZThn376_N14XtThundermTask14OnQuerySuccessEP12IHubProtocolP16ProtocolResponse
000d5f30 g    DF .text	000000f4 _ZN14XtThundermTask6OnDataEP12MetadataPipePKcij
00167818 g    DF .text	0000003c _ZN10CheckConst11getthundermEv
000d6024 g    DF .text	00000008 _ZThn384_N14XtThundermTask6OnDataEP12MetadataPipePKcij
000d602c g    DF .text	00000190 _ZN14XtThundermTask6OnSizeEP12MetadataPipex
00000000      DF *UND*	00000000 strcpy
000d61bc g    DF .text	00000008 _ZThn384_N14XtThundermTask6OnSizeEP12MetadataPipex
000d8038  w   DF .text	0000001c _ZNSt17_Rb_tree_iteratorISt4pairIKyP12MetadataPipeEEppEv
000d61c4 g    DF .text	00000784 _ZNK14XtThundermTask16InitTaskStatDataEv
000d6948 g    DF .text	0000058c _ZN14XtThundermTask9StartTaskEv
0013f190 g    DF .text	000000ec _ZN19ProtocolQueryXtPool11QueryXtPoolERKSs
0013f148 g    DF .text	00000048 _ZN19ProtocolQueryXtPoolC1EP14IQueryHubEvent
000d6ed4 g    DF .text	000002e4 _ZN14XtThundermTaskC2Ev
002df140 g    DO .data.rel.ro	00000100 _ZTV14XtThundermTask
000d6ed4 g    DF .text	000002e4 _ZN14XtThundermTaskC1Ev
000d8054  w   DF .text	00000038 _ZNSt8_Rb_treeIySt4pairIKyP12MetadataPipeESt10_Select1stIS4_ESt4lessIyESaIS4_EE8_M_eraseEPSt13_Rb_tree_nodeIS4_E
000d71b8 g    DF .text	000002e8 _ZN14XtThundermTask8StopTaskEj
000f9808 g    DF .text	000000c8 _ZN12MetadataPipe5CloseEv
000d74a0 g    DF .text	00000450 _ZN14XtThundermTask9OnSuccessEP12MetadataPipe
00177d14 g    DF .text	0000004c sha1_initialize
001791dc g    DF .text	000000c0 sha1_update
0017929c g    DF .text	00000150 sha1_finish
000d78f0 g    DF .text	00000008 _ZThn384_N14XtThundermTask9OnSuccessEP12MetadataPipe
000d808c  w   DF .text	000000b0 _ZN11SingletonExI10DHTManagerE6_mutexEv
002f04c4  w   DO .bss	00000004 _ZGVZN11SingletonExI10DHTManagerE6_mutexEvE1m
002f04bc  w   DO .bss	00000008 _ZZN11SingletonExI10DHTManagerE6_mutexEvE1m
000d78f8 g    DF .text	000001b4 _ZN14XtThundermTaskD2Ev
002f04b8  w   DO .bss	00000004 _ZZN11SingletonExI10DHTManagerE4_refEvE3ref
000d78f8 g    DF .text	000001b4 _ZN14XtThundermTaskD1Ev
000d7aac g    DF .text	0000001c _ZN14XtThundermTaskD0Ev
000d7ac8 g    DF .text	0000023c _ZN14XtThundermTask11InitManagerEv
0016d74c g    DF .text	00000064 hex2str
001764b8 g    DF .text	000000a4 sd_decode_base32
000d813c  w   DF .text	00000060 _ZNSt8_Rb_treeIySt4pairIKyP12MetadataPipeESt10_Select1stIS4_ESt4lessIyESaIS4_EE4findERS1_
000d819c  w   DF .text	0000009c _ZNSt8_Rb_treeIySt4pairIKyP12MetadataPipeESt10_Select1stIS4_ESt4lessIyESaIS4_EE24_M_get_insert_unique_posERS1_
000d8238  w   DF .text	000001a4 _ZNSt8_Rb_treeIySt4pairIKyP12MetadataPipeESt10_Select1stIS4_ESt4lessIyESaIS4_EE17_M_insert_unique_ESt23_Rb_tree_const_iteratorIS4_ERKS4_
000d83dc  w   DF .text	00000084 _ZNSt3mapIyP12MetadataPipeSt4lessIyESaISt4pairIKyS1_EEEixERS5_
000d7d04 g    DF .text	00000108 _ZN14XtThundermTask14HandleResourceEv
000f96e4 g    DF .text	00000058 _ZN12MetadataPipeC1EP14IMetaPipeEventPKhy
000f973c g    DF .text	000000cc _ZN12MetadataPipe9DoConnectEv
000d7e0c g    DF .text	0000018c _ZN14XtThundermTask11OnErrorStopEP12MetadataPipei
000f9954 g    DF .text	00000008 _ZN12MetadataPipe13GetResourceIDEv
000d7f98 g    DF .text	00000008 _ZThn384_N14XtThundermTask11OnErrorStopEP12MetadataPipei
000d7fa0 g    DF .text	0000006c _ZN14XtThundermTask8OnSearchEPKhjt
000f995c g    DF .text	00000018 _ZN12MetadataPipe14MakeResourceIDEjt
000d800c g    DF .text	00000008 _ZThn380_N14XtThundermTask8OnSearchEPKhjt
002df0d8  w   DO .data.rel.ro	00000008 _ZTI9IDHTEvent
002978a0  w   DO .rodata	0000000b _ZTS9IDHTEvent
002df0e0  w   DO .data.rel.ro	00000008 _ZTI14IMetaPipeEvent
002978ac  w   DO .rodata	00000011 _ZTS14IMetaPipeEvent
002978c0 g    DO .rodata	00000011 _ZTS14XtThundermTask
002df110 g    DO .data.rel.ro	00000030 _ZTI14XtThundermTask
002df0e8  w   DO .data.rel.ro	0000000c _ZTV9IDHTEvent
002df0f8  w   DO .data.rel.ro	00000018 _ZTV14IMetaPipeEvent
000d8460 g    DF .text	0000001c _ZN17UploadSpeedContrlC2Ev
000d847c g    DF .text	0000004c _ZN17UploadSpeedContrl10StartTimerEv
000d8740 g    DF .text	00000004 _ZN17UploadSpeedContrl13HandleTimeOutEPvS0_
000d84c8 g    DF .text	00000018 _ZN17UploadSpeedContrl3RunEv
000d84e0 g    DF .text	0000003c _ZN17UploadSpeedContrl11CancelTimerEv
000d851c g    DF .text	00000014 _ZN17UploadSpeedContrlD2Ev
000d8530 g    DF .text	00000018 _ZN17UploadSpeedContrl4StopEv
000d8548 g    DF .text	000001d4 _ZN17UploadSpeedContrl13DoSpeedContrlEv
000da848 g    DF .text	00000048 _ZN11TaskManager23GetAllTaskDownloadSpeedEv
000d871c g    DF .text	00000024 _ZN17UploadSpeedContrl21HandleTimeOutInternalEv
000d8744 g    DF .text	000001a0 _ZN12ThunderzTask9StartTaskEv
00158e00 g    DF .text	00000004 _ZN17ThunderResBuilder16GetThunderResUrlEv
000eec44 g    DF .text	00000110 _ZN15ResourceBuilder21BuildThunderzResourceERKSsSs
000d88e4 g    DF .text	000000ac _ZN12ThunderzTask18OutputThunderzFileEP9IResourcePPcyjPKc
00169974 g    DF .text	00000018 _Z23data_memory_free_bufferPc
000d8990 g    DF .text	00000008 _ZThn376_N12ThunderzTask18OutputThunderzFileEP9IResourcePPcyjPKc
000d8998 g    DF .text	0000004c _ZN12ThunderzTask24PeriodGetDownloadingInfoEv
000d89e4 g    DF .text	00000198 _ZN12ThunderzTask27QueryServerResourceCallBackEiRSt6vectorIP14ServerResourceSaIS2_EE
000d8b7c g    DF .text	00000120 _ZN12ThunderzTaskC2ESs13_XL_TASK_TYPE
00158dd4 g    DF .text	0000002c _ZN17ThunderResBuilderC1Ev
001590b8 g    DF .text	000006ac _ZN17ThunderResBuilder4InitESs
00158e04 g    DF .text	00000018 _ZN17ThunderResBuilder13GetDefaultUrlEv
00158e50 g    DF .text	00000060 _ZN17ThunderResBuilderD1Ev
002df250 g    DO .data.rel.ro	000001d8 _ZTV12ThunderzTask
000d8c9c g    DF .text	0000008c _ZN12ThunderzTaskD2Ev
000d8c9c g    DF .text	0000008c _ZN12ThunderzTaskD1Ev
000d8d28 g    DF .text	00000008 _ZThn380_N12ThunderzTaskD1Ev
000d8d30 g    DF .text	00000008 _ZThn376_N12ThunderzTaskD1Ev
000d8d38 g    DF .text	0000001c _ZN12ThunderzTaskD0Ev
000d8d54 g    DF .text	00000008 _ZThn380_N12ThunderzTaskD0Ev
000d8d5c g    DF .text	00000008 _ZThn376_N12ThunderzTaskD0Ev
002978d4 g    DO .rodata	0000000f _ZTS12ThunderzTask
002df240 g    DO .data.rel.ro	0000000c _ZTI12ThunderzTask
000d8d64 g    DF .text	00000010 _ZN9XtSubTask24PeriodGetDownloadingInfoEv
000d8d74 g    DF .text	00000064 _ZN9XtSubTask16NotifyTaskFinishEiSs
000d8dd8 g    DF .text	00000008 _ZThn388_N9XtSubTask16NotifyTaskFinishEiSs
000d8de0 g    DF .text	00000008 _ZThn380_N9XtSubTask16NotifyTaskFinishEiSs
000d8de8 g    DF .text	0000021c _ZN9XtSubTask9StartTaskEv
000d9004 g    DF .text	00000090 _ZN9XtSubTaskC2EP15XtSubTaskEvents
002df438 g    DO .data.rel.ro	000001d4 _ZTV9XtSubTask
000d9094 g    DF .text	00000074 _ZN9XtSubTaskD2Ev
000d9094 g    DF .text	00000074 _ZN9XtSubTaskD1Ev
000d9108 g    DF .text	00000008 _ZThn380_N9XtSubTaskD1Ev
000d9110 g    DF .text	00000008 _ZThn376_N9XtSubTaskD1Ev
000d9118 g    DF .text	0000001c _ZN9XtSubTaskD0Ev
000d9134 g    DF .text	00000008 _ZThn380_N9XtSubTaskD0Ev
000d913c g    DF .text	00000008 _ZThn376_N9XtSubTaskD0Ev
002978e4 g    DO .rodata	0000000b _ZTS9XtSubTask
002df428 g    DO .data.rel.ro	0000000c _ZTI9XtSubTask
000d9144 g    DF .text	00000114 _Z20thundere_create_linkPKcyPKhPcPj
00169c6c g    DF .text	00000028 sd_snprintf
000d9258 g    DF .text	00000150 _Z13sd_divide_strPKccP7tagLIST
00169c9c g    DF .text	00000008 sd_strchr
00172af4 g    DF .text	00000008 list_push
00172a50 g    DF .text	0000000c list_size
00172b6c g    DF .text	00000048 list_pop
000d93a8 g    DF .text	00000168 _Z14sd_replace_strPcPKcS1_
00169ce8 g    DF .text	00000008 sd_strstr
00172a30 g    DF .text	00000020 list_init
00169c94 g    DF .text	00000004 sd_stricmp
001699dc g    DF .text	00000004 sd_strncmp
0016d5e4 g    DF .text	00000004 sd_atoi
00176430 g    DF .text	00000088 sd_decode_base16
0016d988 g    DF .text	00000070 sd_str_to_u64
000d9b88 g    DF .text	00000008 _ZN11TaskManager13GetLastTaskIdEv
000d9bec g    DF .text	00000020 _ZN11TaskManager12GetTaskCountEv
000dc80c  w   DF .text	000000d8 _ZNK11TaskManager19IsReachedMaxTaskNumEv
000dc8e4  w   DF .text	000000d8 _ZN6XtTask14SetCareErrCodeEy
000d9c0c g    DF .text	00000040 _ZN11TaskManagerC2Ev
002df658 g    DO .data.rel.ro	00000010 _ZTV11TaskManager
000d9c4c g    DF .text	00000070 _ZN11TaskManagerD2Ev
000d9cbc g    DF .text	00000040 _ZNK11TaskManager11GetTaskByIdEy
000d9d2c g    DF .text	00000034 _ZNK11TaskManager15GenTaskIdentifyERKSsS1_
000da234 g    DF .text	00000014 _ZN11TaskManager19NotifyReportDcdnHubEv
0018226c g    DF .text	00000068 _ZN19DcdnAccountsManager6ReportEv
000da580 g    DF .text	0000003c _ZN11TaskManager13GetTaskFromIdEyi
000da5bc g    DF .text	000000f4 _ZN11TaskManager19GetTaskFromFileNameERKSs
000da6b0 g    DF .text	000000f0 _ZN11TaskManager24CommonCheckForCreateTaskE20_XL_CREATE_TASK_MODEPKcjS2_jS2_jRSsS3_
000da908 g    DF .text	0000003c _ZNK11TaskManager20IsSamePathTaskExistsERKSs
000daac0 g    DF .text	000000a0 _ZN11TaskManager13GetTaskByGcidERKSs
000dc9bc  w   DF .text	00000014 _ZStneIcSt11char_traitsIcESaIcEEbRKSbIT_T0_T1_EPKS3_
000dc9d0  w   DF .text	0000001c _ZNSt4listISsSaISsEE9push_backERKSs
000dc9ec  w   DF .text	00000088 _ZNSt4listISsSaISsEE6removeERKSs
000dab60 g    DF .text	000000bc _ZN11TaskManager12OnCreateTaskEv
00146da8 g    DF .text	00000068 _ZN12DPhubManager21NoticeTaskCountChangeEi
00121c78 g    DF .text	00000234 P2pTransferLayerNew_init
00120498 g    DF .text	000000a8 PtlNewNatCheck_try_start
0015ea58 g    DF .text	00000014 _ZN14PermissionCtrl25ActiveNetworkOnTaskChangeEv
00000000      DF *UND*	00000000 __cxa_allocate_exception
00000000      DF *UND*	00000000 __cxa_throw
002e55f4  w   DO .data.rel.ro	00000008 _ZTIi
000dbffc g    DF .text	000000a8 _ZN11TaskManager13OnReleaseTaskEv
00121eac g    DF .text	00000094 P2pTransferLayerNew_uninit
0011fffc g    DF .text	0000004c PtlNewNatCheck_stop
0010eb64 g    DF .text	00000030 _ZN14SettingManager19StopQueryNewSettingEv
00130d50 g    DF .text	00002540 _ZN11P2pStatInfo17ReportP2pStatTaskEv
000dc244 g    DF .text	000000a8 _ZN11TaskManager13OnStopAllTaskEv
000dca74  w   DF .text	00000030 _ZN8KeyValueISsSsEC2ERKS0_
000dca74  w   DF .text	00000030 _ZN8KeyValueISsSsEC1ERKS0_
000dcaa4  w   DF .text	000000b0 _ZN11SingletonExI14SessionManagerE6_mutexEv
0018816c g    DF .text	00000074 _ZN14SessionManagerC1Ev
00187d70 g    DF .text	0000021c _ZN14SessionManager4InitEv
00187708 g    DF .text	00000060 _ZN14SessionManager5StartEv
00187768 g    DF .text	00000230 _ZN14SessionManager11GetLocalUrlERKSsRSs
000dcb54  w   DF .text	00000074 _ZNSt20__uninitialized_copyILb0EE13__uninit_copyIP8KeyValueISsSsES4_EET0_T_S6_S5_
000dcbc8  w   DF .text	0000021c _ZNSt6vectorI8KeyValueISsSsESaIS1_EE13_M_insert_auxEN9__gnu_cxx17__normal_iteratorIPS1_S3_EERKS1_
002df610  w   DO .data.rel.ro	00000008 _ZTI11SingletonExI11TaskManagerE
002978f0  w   DO .rodata	0000001d _ZTS11SingletonExI11TaskManagerE
002df618  w   DO .data.rel.ro	00000008 _ZTI11IGlobalInfo
00297910  w   DO .rodata	0000000e _ZTS11IGlobalInfo
00297934 g    DO .rodata	0000000e _ZTS11TaskManager
002df638 g    DO .data.rel.ro	00000020 _ZTI11TaskManager
002df620  w   DO .data.rel.ro	00000008 _ZTI14_XL_ERRNO_CODE
002e53c8 g    DO .data.rel.ro	00000020 _ZTVN10__cxxabiv116__enum_type_infoE
00297920  w   DO .rodata	00000011 _ZTS14_XL_ERRNO_CODE
002df628  w   DO .data.rel.ro	00000010 _ZTV11IGlobalInfo
000dcde4 g    DF .text	0000003c _ZN13AgipControlerC2EP7Settingj
000dd458 g    DF .text	00000014 _ZN13AgipControler19IsCanCreateMorePipeEi
000e02cc  w   DF .text	00000004 _ZN17DownloadDispacher32NotifyResourceDownloadErrorRangeEyRK5range
000e02d0  w   DF .text	00000004 _ZN22P2spDownloadDispatcher12OnDeletePipeEP9IDataPipe
000e02d4  w   DF .text	00000008 _ZThn24_N22P2spDownloadDispatcher12OnDeletePipeEP9IDataPipe
000e02dc  w   DF .text	00000004 _ZN22P2spDownloadDispatcher7OnCloseEP9IDataPipe
000e02e0  w   DF .text	00000008 _ZThn24_N22P2spDownloadDispatcher7OnCloseEP9IDataPipe
000e02e8  w   DF .text	00000004 _ZN22P2spDownloadDispatcher11OnReconnectEP9IDataPipe
000e02ec  w   DF .text	00000008 _ZThn24_N22P2spDownloadDispatcher11OnReconnectEP9IDataPipe
000e02f4  w   DF .text	00000004 _ZN22P2spDownloadDispatcher10OnSendDataEP9IDataPipeRK5range
000e02f8  w   DF .text	00000008 _ZThn24_N22P2spDownloadDispatcher10OnSendDataEP9IDataPipeRK5range
000dd498 g    DF .text	00000010 _ZN22P2spDownloadDispatcher21OnOriginPipeConnStateEb
000dd4a8 g    DF .text	00000010 _ZN22P2spDownloadDispatcher27AbandonResourceExpectOriginEv
000dd4b8 g    DF .text	00000010 _ZN22P2spDownloadDispatcher23ResetFilesizeByCompressEy
000dd4c8 g    DF .text	00000010 _ZNK22P2spDownloadDispatcher21GetOriginTransferInfoEPyS0_
000dd4d8 g    DF .text	00000008 _ZThn28_NK22P2spDownloadDispatcher21GetOriginTransferInfoEPyS0_
000dd4e0 g    DF .text	00000010 _ZNK22P2spDownloadDispatcher18GetP2sTransferInfoEPyS0_
000dd4f0 g    DF .text	00000008 _ZThn28_NK22P2spDownloadDispatcher18GetP2sTransferInfoEPyS0_
000dd4f8 g    DF .text	00000010 _ZNK22P2spDownloadDispatcher19GetDcdnTransferInfoEPyS0_
000dd508 g    DF .text	00000008 _ZThn28_NK22P2spDownloadDispatcher19GetDcdnTransferInfoEPyS0_
000dd510 g    DF .text	00000010 _ZNK22P2spDownloadDispatcher19GetAntiTransferInfoEPyS0_
000dd520 g    DF .text	00000008 _ZThn28_NK22P2spDownloadDispatcher19GetAntiTransferInfoEPyS0_
000dd528 g    DF .text	00000010 _ZNK22P2spDownloadDispatcher24GetAntiHttpsTransferInfoEPyS0_
000dd538 g    DF .text	00000008 _ZThn28_NK22P2spDownloadDispatcher24GetAntiHttpsTransferInfoEPyS0_
000dd540 g    DF .text	00000010 _ZNK22P2spDownloadDispatcher19GetExtpTransferInfoEPyS0_
000dd550 g    DF .text	00000008 _ZThn28_NK22P2spDownloadDispatcher19GetExtpTransferInfoEPyS0_
000dd558 g    DF .text	00000010 _ZN22P2spDownloadDispatcher29GetSpecialTypeResTransferInfoEjPyS0_
000dd568 g    DF .text	00000008 _ZThn28_N22P2spDownloadDispatcher29GetSpecialTypeResTransferInfoEjPyS0_
000dd5a0 g    DF .text	00000038 _ZN22P2spDownloadDispatcher12OnCreatePipeEP9IDataPipe
000e56fc g    DF .text	00000058 _ZN12DispatchInfo18GetPipeResourcePtrEP9IDataPipe
000ecfdc g    DF .text	0000007c _ZN15ResourceManager17SetOriginResStateEP9IResource17_ORIGIN_RES_STATE
000dd5d8 g    DF .text	00000008 _ZThn24_N22P2spDownloadDispatcher12OnCreatePipeEP9IDataPipe
000dd5e0 g    DF .text	00000008 _ZNK22P2spDownloadDispatcher18GetP2pTransferInfoEPyS0_
000ecc24 g    DF .text	00000240 _ZNK15ResourceManager18GetP2pTransferInfoEPyS0_
000dd5e8 g    DF .text	000000a4 _ZN22P2spDownloadDispatcher15ForceDispatcherEb
0016d220 g    DF .text	000000cc _ZN18SdAsynEventManager9BindEventEP10IAsynEvent
000dd68c g    DF .text	00000008 _ZThn8_N22P2spDownloadDispatcher15ForceDispatcherEb
000dd694 g    DF .text	00000080 _ZN22P2spDownloadDispatcher15OnHttpGetHeaderEP12HttpResourceii5RCPtrI18HttpResponseHeaderE
000dd714 g    DF .text	000003d0 _ZN22P2spDownloadDispatcherC2EP12IDataManagerP17IDispatcherEventsyjP13TaskIndexInfo
000e59a4 g    DF .text	00000160 _ZN12DispatchInfoC1Ev
000ecb38 g    DF .text	000000ec _ZN15ResourceManagerC1Ej
000e0ab4 g    DF .text	00000044 _ZN13DcdnControlerC1EP7SettingP12IDataManagerP21IResourceTransferInfoj
0016d1f0 g    DF .text	00000030 _ZN18SdAsynEventManagerD1Ev
000e5b04 g    DF .text	000000bc _ZN12DispatchInfoD1Ev
002df7b0 g    DO .data.rel.ro	00000124 _ZTV22P2spDownloadDispatcher
000ddae4 g    DF .text	00000124 _ZN22P2spDownloadDispatcher18UpdateDispatchInfoEv
000e55e8 g    DF .text	0000008c _ZN12DispatchInfo21UpdateAssignRangeSizeEv
000e5680 g    DF .text	0000007c _ZNK12DispatchInfo36GetDownloadingRangeQueueExpFullRangeEv
00157120 g    DF .text	0000002c _ZN10RangeQueueaSERKS_
000e5850 g    DF .text	000000bc _ZN12DispatchInfo12SetPriorInfoEiRK10RangeQueue
000ddc08 g    DF .text	00000144 _ZN22P2spDownloadDispatcher22RetryQueryDcdnResourceEv
000ddd4c g    DF .text	0000036c _ZN22P2spDownloadDispatcher24SelectConnectAndStrategyEv
000e227c g    DF .text	00000098 _ZN23CommonConnectDispatcherC1EP12DispatchInfoP18IRessourceProviderP15IDataPipeEventsyjP13DcdnControlerP13AgipControler
000e9518 g    DF .text	000000d0 _ZN22CommonDispatchStrategyC1EP12DispatchInfoP18IConnectDispatcheryjP13DcdnControler
000e17b4 g    DF .text	00000054 _ZN24BroswerConnectDispatcherC1EP12DispatchInfoP18IRessourceProviderP15IDataPipeEventsyj
000e7ff8 g    DF .text	00000030 _ZN23BrowserDispatchStrategyC1EP12DispatchInfoP18IConnectDispatcher
000e6bf8 g    DF .text	00000088 _ZN24TmobileConnectDispatcherC1EP12DispatchInfoP18IRessourceProviderP15IDataPipeEventsyjP13DcdnControlerP13AgipControler
000eb230 g    DF .text	00000044 _ZN23TmobileDispatchStrategyC1EP12DispatchInfoP18IConnectDispatcheryjP13DcdnControler
000e1228 g    DF .text	00000064 _ZN24PrefetchDispatchStrategyC1EP12DispatchInfoP18IConnectDispatcheryj
000e8394 g    DF .text	0000024c _ZN22DPlayConnectDispatcherC1EP12DispatchInfoP18IRessourceProviderP15IDataPipeEventsyjP13DcdnControlerP13AgipControler
000e5d04 g    DF .text	00000160 _ZN21DPlayDispatchStrategyC1EP12DispatchInfoP18IConnectDispatcheryjP13DcdnControler
000e78c4 g    DF .text	00000054 _ZN25ThunderzConnectDispatcherC1EP12DispatchInfoP18IRessourceProviderP15IDataPipeEventsyj
000e1fec g    DF .text	00000030 _ZN24ThunderzDispatchStrategyC1EP12DispatchInfoP18IConnectDispatcher
000de0b8 g    DF .text	00000020 _ZN22P2spDownloadDispatcher19GetDispatchStrategyEv
000de0d8 g    DF .text	00000020 _ZN22P2spDownloadDispatcher20GetConnectDispatcherEv
000de0f8 g    DF .text	0000007c _ZN22P2spDownloadDispatcher15SetStrategyTypeE17DOWNLOAD_STRATEGY
000de174 g    DF .text	00000008 _ZThn8_N22P2spDownloadDispatcher15SetStrategyTypeE17DOWNLOAD_STRATEGY
000de19c g    DF .text	00000054 _ZN22P2spDownloadDispatcher20DeleteOriginResourceEv
000de1f0 g    DF .text	00000008 _ZThn8_N22P2spDownloadDispatcher20DeleteOriginResourceEv
000de1f8 g    DF .text	000000a4 _ZN22P2spDownloadDispatcher21OnFirstPipeGetResInfoEP9IResourcebyb
000e55e0 g    DF .text	00000008 _ZNK12DispatchInfo11HasFileSizeEv
000e55d8 g    DF .text	00000008 _ZNK12DispatchInfo8FileSizeEv
000de29c g    DF .text	00000038 _ZN22P2spDownloadDispatcher15DiscardResourceERKSt6vectorIP9IResourceSaIS2_EE
000de2d4 g    DF .text	00000008 _ZThn8_N22P2spDownloadDispatcher15DiscardResourceERKSt6vectorIP9IResourceSaIS2_EE
000de2dc g    DF .text	00000088 _ZN22P2spDownloadDispatcher15DiscardResourceEj
000de364 g    DF .text	00000008 _ZThn8_N22P2spDownloadDispatcher15DiscardResourceEj
000de36c g    DF .text	00000020 _ZN22P2spDownloadDispatcher10DeletePipeEP9IDataPipe
000de38c g    DF .text	00000058 _ZN22P2spDownloadDispatcher16NotifyErrorBlockERK5range
000de3e4 g    DF .text	00000008 _ZThn8_N22P2spDownloadDispatcher16NotifyErrorBlockERK5range
000de458 g    DF .text	00000600 _ZN22P2spDownloadDispatcher12StatRecvDataEP9IResourceP9IDataPipeRK5range
000fc988 g    DF .text	00000060 _ZN9IDataPipe11GetAvgSpeedEv
000dea58 g    DF .text	00000048 _ZN22P2spDownloadDispatcher18PostAsynDispatcherEv
0016d160 g    DF .text	0000000c _ZN18SdAsynEventManager10EventCountEv
000deaa0 g    DF .text	000000a0 _ZN22P2spDownloadDispatcher14OnFileNotExistEP9IDataPipe
000deb40 g    DF .text	00000008 _ZThn24_N22P2spDownloadDispatcher14OnFileNotExistEP9IDataPipe
000eda38 g    DF .text	000000dc _ZNK15ResourceManager23GetResourceExpectOriginERSt6vectorIP9IResourceSaIS2_EE
000ed078 g    DF .text	00000034 _ZN15ResourceManager10GetResInfoEP20TAG_XL_TASK_INFO_EEX
000e0300  w   DF .text	000000a8 _ZN10RangeQueueC2ERKS_
002e20a8 g    DO .data.rel.ro	00000010 _ZTV10RangeQueue
000e0300  w   DF .text	000000a8 _ZN10RangeQueueC1ERKS_
000debd0 g    DF .text	000006c4 _ZN22P2spDownloadDispatcher14StatOnPipeOpenEP9IResourceP9IDataPipe
001573ec g    DF .text	00000054 _ZN10RangeQueuepLERKS_
000df294 g    DF .text	0000041c _ZN22P2spDownloadDispatcher16StatOnPipeFailedEP9IResourceP9IDataPipei
000df6b0 g    DF .text	00000068 _ZN22P2spDownloadDispatcher15CalcTimeoutTimeEj
000df718 g    DF .text	000000a4 _ZN22P2spDownloadDispatcher17UpdateTimeoutTimeEv
000df7bc g    DF .text	000001c8 _ZN22P2spDownloadDispatcher14IsNeedDispatchEv
001102b8 g    DF .text	0000001c _ZNK13TaskIndexInfo11HasFileSizeEv
00000000      DF *UND*	00000000 time
000df984 g    DF .text	00000068 _ZN22P2spDownloadDispatcher13DispachAtPipeEP9IDataPipe
000e7840 g    DF .text	0000001c _ZN17IDispatchStrategy14DispatchAtPipeEP9IDataPipe
000df9ec g    DF .text	00000074 _ZN22P2spDownloadDispatcher6OnOpenEP9IDataPipe
000dfa60 g    DF .text	00000008 _ZThn24_N22P2spDownloadDispatcher6OnOpenEP9IDataPipe
000dfa68 g    DF .text	000000b8 _ZN22P2spDownloadDispatcher10DoDispatchEb
000e0a6c g    DF .text	00000048 _ZN18IConnectDispatcher10DoDispatchEv
000e780c g    DF .text	00000034 _ZN17IDispatchStrategy13CycleDispatchEv
000dfb20 g    DF .text	00000008 _ZThn8_N22P2spDownloadDispatcher10DoDispatchEb
000dfb28 g    DF .text	00000054 _ZN22P2spDownloadDispatcher18StartDispatchTimerEv
000dfbe8 g    DF .text	00000004 _ZN22P2spDownloadDispatcher15DispatchTimeOutEPvS0_
000dfb7c g    DF .text	00000024 _ZN22P2spDownloadDispatcher15StartDispatcherEj
000e0af8 g    DF .text	00000114 _ZN13DcdnControler4InitEv
000dfba0 g    DF .text	00000008 _ZThn8_N22P2spDownloadDispatcher15StartDispatcherEj
000dfba8 g    DF .text	00000040 _ZN22P2spDownloadDispatcher15DoDispatchTimerEv
000dfbec g    DF .text	0000003c _ZN22P2spDownloadDispatcher17StopDispatchTimerEv
000dfc28 g    DF .text	0000014c _ZN22P2spDownloadDispatcherD2Ev
0016d16c g    DF .text	00000084 _ZN18SdAsynEventManager5ClearEv
000dfc28 g    DF .text	0000014c _ZN22P2spDownloadDispatcherD1Ev
000dfd74 g    DF .text	00000008 _ZThn24_N22P2spDownloadDispatcherD1Ev
000dfd7c g    DF .text	00000008 _ZThn8_N22P2spDownloadDispatcherD1Ev
000dfd84 g    DF .text	0000001c _ZN22P2spDownloadDispatcherD0Ev
000dfda0 g    DF .text	00000008 _ZThn24_N22P2spDownloadDispatcherD0Ev
000dfda8 g    DF .text	00000008 _ZThn8_N22P2spDownloadDispatcherD0Ev
000e03a8  w   DF .text	00000040 _ZNSt8_Rb_treeIP9IDataPipeSt4pairIKS1_16PipeDispatchInfoESt10_Select1stIS5_ESt4lessIS1_ESaIS5_EE8_M_eraseEPSt13_Rb_tree_nodeIS5_E
000dfdb0 g    DF .text	0000005c _ZN22P2spDownloadDispatcher16CloseAllDataPipeEv
000dfe0c g    DF .text	000001d0 _ZN22P2spDownloadDispatcher14StopDispatcherEv
00134da8 g    DF .text	00000008 _ZN14TaskStatModule16GetTaskStartTimeEi
000e0c0c g    DF .text	0000000c _ZN13DcdnControler6UninitEv
000dffdc g    DF .text	00000008 _ZThn8_N22P2spDownloadDispatcher14StopDispatcherEv
000e03e8  w   DF .text	00000090 _ZNSt8_Rb_treeIP9IResourceSt4pairIKS1_15ResDispatchInfoESt10_Select1stIS5_ESt4lessIS1_ESaIS5_EE24_M_get_insert_unique_posERS3_
000e0478  w   DF .text	000001a4 _ZNSt8_Rb_treeIP9IResourceSt4pairIKS1_15ResDispatchInfoESt10_Select1stIS5_ESt4lessIS1_ESaIS5_EE17_M_insert_unique_ESt23_Rb_tree_const_iteratorIS5_ERKS5_
000e061c  w   DF .text	000000a0 _ZNSt3mapIP9IResource15ResDispatchInfoSt4lessIS1_ESaISt4pairIKS1_S2_EEEixERS6_
000e5960 g    DF .text	00000044 _ZN15ResDispatchInfoC1Ev
000dffe4 g    DF .text	000000b0 _ZN22P2spDownloadDispatcher8OnFailedEP9IDataPipei
000e0094 g    DF .text	00000008 _ZThn24_N22P2spDownloadDispatcher8OnFailedEP9IDataPipei
000e06bc  w   DF .text	00000090 _ZNSt8_Rb_treeIP9IDataPipeSt4pairIKS1_16PipeDispatchInfoESt10_Select1stIS5_ESt4lessIS1_ESaIS5_EE24_M_get_insert_unique_posERS3_
000e074c  w   DF .text	000001e4 _ZNSt8_Rb_treeIP9IDataPipeSt4pairIKS1_16PipeDispatchInfoESt10_Select1stIS5_ESt4lessIS1_ESaIS5_EE17_M_insert_unique_ESt23_Rb_tree_const_iteratorIS5_ERKS5_
000e0930  w   DF .text	00000100 _ZNSt3mapIP9IDataPipe16PipeDispatchInfoSt4lessIS1_ESaISt4pairIKS1_S2_EEEixERS6_
000e590c g    DF .text	00000054 _ZN16PipeDispatchInfoC1Ev
000e009c g    DF .text	00000164 _ZN22P2spDownloadDispatcher10OnRecvDataEP9IDataPipeRK5range
00156e7c g    DF .text	00000098 _ZNK10RangeQueue9IsContainERKS_
000e0200 g    DF .text	00000008 _ZThn24_N22P2spDownloadDispatcher10OnRecvDataEP9IDataPipeRK5range
000e0208 g    DF .text	000000bc _ZN22P2spDownloadDispatcher15OnAllDataRecvedEP9IDataPipeRK5range
000e02c4 g    DF .text	00000008 _ZThn24_N22P2spDownloadDispatcher15OnAllDataRecvedEP9IDataPipeRK5range
002df668  w   DO .data.rel.ro	00000008 _ZTI10IAsynEvent
00297944  w   DO .rodata	0000000d _ZTS10IAsynEvent
002df670  w   DO .data.rel.ro	00000008 _ZTI15IDataPipeEvents
00297954  w   DO .rodata	00000012 _ZTS15IDataPipeEvents
002df678  w   DO .data.rel.ro	00000008 _ZTI15IResourceEvents
00297968  w   DO .rodata	00000012 _ZTS15IResourceEvents
002df680  w   DO .data.rel.ro	00000008 _ZTI17DownloadDispacher
0029797c  w   DO .rodata	00000014 _ZTS17DownloadDispacher
002df688  w   DO .data.rel.ro	00000008 _ZTI21IResourceTransferInfo
00297990  w   DO .rodata	00000018 _ZTS21IResourceTransferInfo
00297a34 g    DO .rodata	00000019 _ZTS22P2spDownloadDispatcher
002df780 g    DO .data.rel.ro	00000030 _ZTI22P2spDownloadDispatcher
002df690  w   DO .data.rel.ro	00000014 _ZTV10IAsynEvent
002df6a8  w   DO .data.rel.ro	00000038 _ZTV15IDataPipeEvents
002df6e0  w   DO .data.rel.ro	00000024 _ZTV15IResourceEvents
002df708  w   DO .data.rel.ro	00000038 _ZTV17DownloadDispacher
002df740  w   DO .data.rel.ro	00000024 _ZTV21IResourceTransferInfo
000e0a30 g    DF .text	0000001c _ZN18IConnectDispatcherC2EP12DispatchInfo
002df8e0 g    DO .data.rel.ro	0000003c _ZTV18IConnectDispatcher
000e0a30 g    DF .text	0000001c _ZN18IConnectDispatcherC1EP12DispatchInfo
000e0a4c g    DF .text	00000004 _ZN18IConnectDispatcherD2Ev
000e0a4c g    DF .text	00000004 _ZN18IConnectDispatcherD1Ev
000e0a50 g    DF .text	0000001c _ZN18IConnectDispatcherD0Ev
00297a50 g    DO .rodata	00000015 _ZTS18IConnectDispatcher
002df8d8 g    DO .data.rel.ro	00000008 _ZTI18IConnectDispatcher
000e0ab4 g    DF .text	00000044 _ZN13DcdnControlerC2EP7SettingP12IDataManagerP21IResourceTransferInfoj
000e0c18 g    DF .text	00000038 _ZNK13DcdnControler25GetDcdnResContributeBytesEv
000e0c50 g    DF .text	00000074 _ZN13DcdnControler21IsReachedExpectedRateEv
000e0cc4 g    DF .text	00000098 _ZNK13DcdnControler21GetMaxOriginPipeCountEv
000e10bc  w   DF .text	0000009c _ZNK13DcdnControler23GetSettingDcdnPipeCountEv
000e0d5c g    DF .text	000000dc _ZN13DcdnControler20CalcMaxDcdnPipeCountEy
000e0e38 g    DF .text	0000020c _ZN13DcdnControler14UpdateFileSizeEv
000e1044 g    DF .text	0000003c _ZN13DcdnControler19IsCanCreateMorePipeEi
000e1080 g    DF .text	0000003c _ZN13DcdnControler15FixAssignLengthEj
000e1158 g    DF .text	0000000c _ZN24PrefetchDispatchStrategy23DispatchOriginFirstPipeEP9IDataPipe
000e1164 g    DF .text	00000004 _ZN24PrefetchDispatchStrategy18UpdateDispatchInfoEv
000e1168 g    DF .text	00000028 _ZN24PrefetchDispatchStrategy15GetStrategyNameEv
000e1190 g    DF .text	00000098 _ZN24PrefetchDispatchStrategy16DispatchIdlePipeEv
000e1228 g    DF .text	00000064 _ZN24PrefetchDispatchStrategyC2EP12DispatchInfoP18IConnectDispatcheryj
000e77d0 g    DF .text	0000001c _ZN17IDispatchStrategyC2EP12DispatchInfo
002df930 g    DO .data.rel.ro	00000024 _ZTV24PrefetchDispatchStrategy
000e128c g    DF .text	0000013c _ZN24PrefetchDispatchStrategy20DispatchPrefetchPipeEP9IDataPipeR16PipeDispatchInfo
000e15ec  w   DF .text	00000038 _ZNSt8_Rb_treeIP9IResourceS1_St9_IdentityIS1_ESt4lessIS1_ESaIS1_EE8_M_eraseEPSt13_Rb_tree_nodeIS1_E
000e13c8 g    DF .text	00000034 _ZN24PrefetchDispatchStrategyD2Ev
000e77ec g    DF .text	00000004 _ZN17IDispatchStrategyD2Ev
000e13c8 g    DF .text	00000034 _ZN24PrefetchDispatchStrategyD1Ev
000e13fc g    DF .text	0000001c _ZN24PrefetchDispatchStrategyD0Ev
000e1418 g    DF .text	000001d4 _ZN24PrefetchDispatchStrategy18DispatchNormalPipeEP9IDataPipe
00297a68 g    DO .rodata	0000001b _ZTS24PrefetchDispatchStrategy
002df920 g    DO .data.rel.ro	0000000c _ZTI24PrefetchDispatchStrategy
002dfaf0 g    DO .data.rel.ro	00000008 _ZTI17IDispatchStrategy
000e1624 g    DF .text	00000010 _ZNK24BroswerConnectDispatcher16GetOpenPipeCountEv
000e1634 g    DF .text	00000010 _ZN24BroswerConnectDispatcher14InsertResourceEP9IResource
000e1644 g    DF .text	00000004 _ZN24BroswerConnectDispatcher18UpdateDispatchInfoEv
000e1648 g    DF .text	00000004 _ZN24BroswerConnectDispatcher20HandleRemoveResourceEv
000e164c g    DF .text	00000074 _ZN24BroswerConnectDispatcher14HandleOpenPipeEv
000e16c0 g    DF .text	00000028 _ZN24BroswerConnectDispatcherD2Ev
002df968 g    DO .data.rel.ro	0000003c _ZTV24BroswerConnectDispatcher
000e16c0 g    DF .text	00000028 _ZN24BroswerConnectDispatcherD1Ev
000e16e8 g    DF .text	0000001c _ZN24BroswerConnectDispatcherD0Ev
000e1704 g    DF .text	00000048 _ZN24BroswerConnectDispatcher15HandleClosePipeEv
000e174c g    DF .text	00000068 _ZN24BroswerConnectDispatcher26BeforeSwapToThisDispatcherEv
000e17b4 g    DF .text	00000054 _ZN24BroswerConnectDispatcherC2EP12DispatchInfoP18IRessourceProviderP15IDataPipeEventsyj
000e1e18  w   DF .text	00000120 _ZNSt6vectorIP9IDataPipeSaIS1_EE13_M_insert_auxEN9__gnu_cxx17__normal_iteratorIPS1_S3_EERKS1_
000e1808 g    DF .text	0000006c _ZNK24BroswerConnectDispatcher17GetConnectedPipesERSt6vectorIP9IDataPipeSaIS2_EE
000e1874 g    DF .text	00000248 _ZN24BroswerConnectDispatcher8OpenPipeEP9IResourcePP9IDataPipe
000ee1c4 g    DF .text	000000c8 _ZN9IResource14CreateDataPipeEPP9IDataPipeP15IDataPipeEvents
000e1f38  w   DF .text	00000038 _ZNSt8_Rb_treeIP9IResourceSt4pairIKS1_15ResDispatchInfoESt10_Select1stIS5_ESt4lessIS1_ESaIS5_EE8_M_eraseEPSt13_Rb_tree_nodeIS5_E
000e1abc g    DF .text	00000178 _ZN24BroswerConnectDispatcher14RemoveResourceEP9IResource
000e1c34 g    DF .text	000001e4 _ZN24BroswerConnectDispatcher9ClosePipeEP9IDataPipe
000ee048 g    DF .text	0000017c _ZN9IResource14DeleteDataPipeEP9IDataPipe
00297a84 g    DO .rodata	0000001b _ZTS24BroswerConnectDispatcher
002df958 g    DO .data.rel.ro	0000000c _ZTI24BroswerConnectDispatcher
000e1f70 g    DF .text	00000004 _ZN24ThunderzDispatchStrategy18UpdateDispatchInfoEv
000e1f74 g    DF .text	00000004 _ZN24ThunderzDispatchStrategy16DispatchIdlePipeEv
000e1f78 g    DF .text	00000008 _ZN24ThunderzDispatchStrategy23DispatchOriginFirstPipeEP9IDataPipe
000e1f80 g    DF .text	00000028 _ZN24ThunderzDispatchStrategyD2Ev
002df9b8 g    DO .data.rel.ro	00000024 _ZTV24ThunderzDispatchStrategy
000e1f80 g    DF .text	00000028 _ZN24ThunderzDispatchStrategyD1Ev
000e1fa8 g    DF .text	0000001c _ZN24ThunderzDispatchStrategyD0Ev
000e1fc4 g    DF .text	00000028 _ZN24ThunderzDispatchStrategy15GetStrategyNameEv
000e1fec g    DF .text	00000030 _ZN24ThunderzDispatchStrategyC2EP12DispatchInfoP18IConnectDispatcher
000e201c g    DF .text	0000018c _ZN24ThunderzDispatchStrategy18DispatchNormalPipeEP9IDataPipe
00297aa0 g    DO .rodata	0000001b _ZTS24ThunderzDispatchStrategy
002df9a8 g    DO .data.rel.ro	0000000c _ZTI24ThunderzDispatchStrategy
000e21a8 g    DF .text	00000010 _ZN23CommonConnectDispatcher14InsertResourceEP9IResource
000e21d0 g    DF .text	00000004 _ZN23CommonConnectDispatcher20DispatchPeerResourceEv
000e21d4 g    DF .text	0000000c _ZNK23CommonConnectDispatcher16GetOpenPipeCountEv
000e21e0 g    DF .text	00000040 _ZN23CommonConnectDispatcher18UpdateDispatchInfoEv
000e2220 g    DF .text	00000004 _ZN23CommonConnectDispatcher20HandleRemoveResourceEv
000e2224 g    DF .text	00000004 _ZN23CommonConnectDispatcher26BeforeSwapToThisDispatcherEv
000e2228 g    DF .text	00000038 _ZN23CommonConnectDispatcherD2Ev
002df9f0 g    DO .data.rel.ro	0000004c _ZTV23CommonConnectDispatcher
000e2228 g    DF .text	00000038 _ZN23CommonConnectDispatcherD1Ev
000e2260 g    DF .text	0000001c _ZN23CommonConnectDispatcherD0Ev
000e227c g    DF .text	00000098 _ZN23CommonConnectDispatcherC2EP12DispatchInfoP18IRessourceProviderP15IDataPipeEventsyjP13DcdnControlerP13AgipControler
000e2314 g    DF .text	00000098 _ZN23CommonConnectDispatcher23UpdateDispatchPipeCountE11ResComeFrom
000e23ac g    DF .text	000003dc _ZN23CommonConnectDispatcher23StatResourceContributorEP9IDataPipeP9IResource
000e2788 g    DF .text	00000018 _ZN23CommonConnectDispatcher24IsReachCdnPipeCountLimitEv
000e27a0 g    DF .text	0000001c _ZN23CommonConnectDispatcher27IsReachMirrorPipeCountLimitEv
000e27bc g    DF .text	0000012c _ZN23CommonConnectDispatcher23IsAvailableDcdnResourceEP9IResource
000e28e8 g    DF .text	00000020 _ZN23CommonConnectDispatcher25IsReachDcdnPipeCountLimitEv
000e2908 g    DF .text	00000020 _ZN23CommonConnectDispatcher25IsReachExtpPipeCountLimitEv
000e2928 g    DF .text	000000fc _ZN23CommonConnectDispatcher12GetWorstPipeE11ResComeFrom
000fc920 g    DF .text	00000008 _ZN9IDataPipe15GetPipeOpenTimeEv
000fc950 g    DF .text	00000008 _ZN9IDataPipe12GetLastSpeedEv
000e2a24 g    DF .text	0000007c _ZN23CommonConnectDispatcher26TryCloseLowSpeedMirrorPipeEv
000e2aa0 g    DF .text	00000074 _ZN23CommonConnectDispatcher23TryCloseLowSpeedCdnPipeEv
000e2b14 g    DF .text	000000c0 _ZN23CommonConnectDispatcher23CanCloseOriginFirstPipeEv
000e2bd4 g    DF .text	0000014c _ZN23CommonConnectDispatcher15TryCloseP2pPipeEv
001577bc g    DF .text	0000002c _ZNK10RangeQueue6SameToERKS_RS_
000e2d20 g    DF .text	0000007c _ZN23CommonConnectDispatcher33TryCloseLowSpeedAntiHijackCdnPipeEv
000e2d9c g    DF .text	0000007c _ZN23CommonConnectDispatcher35TryCloseLowSpeedAntiHijackHttpsPipeEv
000e2e18 g    DF .text	0000007c _ZN23CommonConnectDispatcher24TryCloseLowSpeedDcdnPipeEv
000e2e94 g    DF .text	0000007c _ZN23CommonConnectDispatcher24TryCloseLowSpeedExtpPipeEv
000e2f10 g    DF .text	00000094 _ZN23CommonConnectDispatcher15HandleClosePipeEv
000e2fa4 g    DF .text	00000134 _ZN23CommonConnectDispatcher22CalcMaxCreatePipeCountEv
000e30d8 g    DF .text	000000dc _ZN23CommonConnectDispatcher19DispatchCdnResourceEv
000e31b4 g    DF .text	000000c4 _ZN23CommonConnectDispatcher20DispatchHighResourceEv
000e3278 g    DF .text	000000b0 _ZNK23CommonConnectDispatcher17GetConnectedPipesERSt6vectorIP9IDataPipeSaIS2_EE
000e3328 g    DF .text	0000071c _ZN23CommonConnectDispatcher8OpenPipeEP9IResourcePP9IDataPipe
000e3a44 g    DF .text	0000019c _ZN23CommonConnectDispatcher15UpdateSpeedInfoEv
000fc958 g    DF .text	00000018 _ZN9IDataPipe11UpdateSpeedEv
000e3be0 g    DF .text	000000d4 _ZN23CommonConnectDispatcher11CanOpenPipeEP9IResourceyyy
000e3cb4 g    DF .text	0000017c _ZN23CommonConnectDispatcher22DispatchOriginResourceEv
000e4604  w   DF .text	00000010 _ZN9__gnu_cxx5__ops15_Iter_comp_iterIPFbP9IResourceS3_EEclINS_17__normal_iteratorIPS3_St6vectorIS3_SaIS3_EEEESD_EEbT_T0_
000e4614  w   DF .text	000000c8 _ZSt22__move_median_to_firstIN9__gnu_cxx17__normal_iteratorIPP9IResourceSt6vectorIS3_SaIS3_EEEENS0_5__ops15_Iter_comp_iterIPFbS3_S3_EEEEvT_SE_SE_SE_T0_
000e46dc  w   DF .text	00000038 _ZSt25__unguarded_linear_insertIN9__gnu_cxx17__normal_iteratorIPP9IResourceSt6vectorIS3_SaIS3_EEEENS0_5__ops14_Val_comp_iterIPFbS3_S3_EEEEvT_T0_
000e4714  w   DF .text	00000054 _ZSt13__lower_boundIN9__gnu_cxx17__normal_iteratorIPP9IResourceSt6vectorIS3_SaIS3_EEEES3_NS0_5__ops14_Iter_comp_valIPFbS3_S3_EEEET_SE_SE_RKT0_T1_
000e4768  w   DF .text	00000054 _ZSt13__upper_boundIN9__gnu_cxx17__normal_iteratorIPP9IResourceSt6vectorIS3_SaIS3_EEEES3_NS0_5__ops14_Val_comp_iterIPFbS3_S3_EEEET_SE_SE_RKT0_T1_
000e3e30 g    DF .text	00000260 _ZN23CommonConnectDispatcher9ClosePipeEP9IDataPipe
000e47bc  w   DF .text	0000012c _ZNSt8_Rb_treeIP9IResourceSt4pairIKS1_15ResDispatchInfoESt10_Select1stIS5_ESt4lessIS1_ESaIS5_EE5eraseERS3_
000e4090 g    DF .text	00000090 _ZN23CommonConnectDispatcher14RemoveResourceEP9IResource
000e48e8  w   DF .text	000000e8 _ZSt13__adjust_heapIN9__gnu_cxx17__normal_iteratorIPP9IResourceSt6vectorIS3_SaIS3_EEEEiS3_NS0_5__ops15_Iter_comp_iterIPFbS3_S3_EEEEvT_T0_SF_T1_T2_
000e49d0  w   DF .text	0000014c _ZSt16__introsort_loopIN9__gnu_cxx17__normal_iteratorIPP9IResourceSt6vectorIS3_SaIS3_EEEEiNS0_5__ops15_Iter_comp_iterIPFbS3_S3_EEEEvT_SE_T0_T1_
000e4b1c  w   DF .text	0000002c _ZNSt20__copy_move_backwardILb0ELb1ESt26random_access_iterator_tagE13__copy_move_bIP9IResourceEEPT_PKS5_S8_S6_
000e4b48  w   DF .text	0000007c _ZSt16__insertion_sortIN9__gnu_cxx17__normal_iteratorIPP9IResourceSt6vectorIS3_SaIS3_EEEENS0_5__ops15_Iter_comp_iterIPFbS3_S3_EEEEvT_SE_T0_
000e4bc4  w   DF .text	00000088 _ZSt4sortIN9__gnu_cxx17__normal_iteratorIPP9IResourceSt6vectorIS3_SaIS3_EEEEPFbS3_S3_EEvT_SB_T0_
000e4120 g    DF .text	000000f4 _ZN23CommonConnectDispatcher22DispatchMirrorResourceEv
000e4214 g    DF .text	00000100 _ZN23CommonConnectDispatcher29DispatchAntiHijackCdnResourceEv
000e4c4c  w   DF .text	00000034 _ZNSt11__copy_moveILb0ELb1ESt26random_access_iterator_tagE8__copy_mIP9IResourceEEPT_PKS5_S8_S6_
000e4c80  w   DF .text	00000074 _ZSt12__move_mergeIN9__gnu_cxx17__normal_iteratorIPP9IResourceSt6vectorIS3_SaIS3_EEEES4_NS0_5__ops15_Iter_comp_iterIPFbS3_S3_EEEET0_T_SF_SF_SF_SE_T1_
000e4cf4  w   DF .text	0000006c _ZSt12__move_mergeIPP9IResourceN9__gnu_cxx17__normal_iteratorIS2_St6vectorIS1_SaIS1_EEEENS3_5__ops15_Iter_comp_iterIPFbS1_S1_EEEET0_T_SF_SF_SF_SE_T1_
000e4d60  w   DF .text	00000148 _ZSt24__merge_sort_with_bufferIN9__gnu_cxx17__normal_iteratorIPP9IResourceSt6vectorIS3_SaIS3_EEEES4_NS0_5__ops15_Iter_comp_iterIPFbS3_S3_EEEEvT_SE_T0_T1_
00000000      DF *UND*	00000000 __aeabi_idivmod
000e4ea8  w   DF .text	00000150 _ZSt8__rotateIN9__gnu_cxx17__normal_iteratorIPP9IResourceSt6vectorIS3_SaIS3_EEEEEvT_S9_S9_St26random_access_iterator_tag
000e4ff8  w   DF .text	00000304 _ZSt16__merge_adaptiveIN9__gnu_cxx17__normal_iteratorIPP9IResourceSt6vectorIS3_SaIS3_EEEEiS4_NS0_5__ops15_Iter_comp_iterIPFbS3_S3_EEEEvT_SE_SE_T0_SF_T1_SF_T2_
000e52fc  w   DF .text	000000b4 _ZSt22__stable_sort_adaptiveIN9__gnu_cxx17__normal_iteratorIPP9IResourceSt6vectorIS3_SaIS3_EEEES4_iNS0_5__ops15_Iter_comp_iterIPFbS3_S3_EEEEvT_SE_T0_T1_T2_
000e53b0  w   DF .text	00000118 _ZSt22__merge_without_bufferIN9__gnu_cxx17__normal_iteratorIPP9IResourceSt6vectorIS3_SaIS3_EEEEiNS0_5__ops15_Iter_comp_iterIPFbS3_S3_EEEEvT_SE_SE_T0_SF_T1_
000e54c8  w   DF .text	00000074 _ZSt21__inplace_stable_sortIN9__gnu_cxx17__normal_iteratorIPP9IResourceSt6vectorIS3_SaIS3_EEEENS0_5__ops15_Iter_comp_iterIPFbS3_S3_EEEEvT_SE_T0_
000e553c  w   DF .text	0000009c _ZSt11stable_sortIN9__gnu_cxx17__normal_iteratorIPP9IResourceSt6vectorIS3_SaIS3_EEEEPFbS3_S3_EEvT_SB_T0_
00217bd4 g    DF .text	00000060 _ZnwjRKSt9nothrow_t
00217224 g    DF .text	00000004 _ZdlPvRKSt9nothrow_t
00000000      DO *UND*	00000000 _ZSt7nothrow
000e4314 g    DF .text	00000134 _ZN23CommonConnectDispatcher20DispatchDcdnResourceEv
000e4448 g    DF .text	0000016c _ZN23CommonConnectDispatcher20DispatchExtpResourceEv
000e45b4 g    DF .text	00000050 _ZN23CommonConnectDispatcher14HandleOpenPipeEv
00297abc g    DO .rodata	0000001a _ZTS23CommonConnectDispatcher
002df9e0 g    DO .data.rel.ro	0000000c _ZTI23CommonConnectDispatcher
001102d4 g    DF .text	00000028 _ZNK13TaskIndexInfo11GetFileSizeEv
000e5674 g    DF .text	0000000c _ZNK12DispatchInfo14IsContinueTaskEv
000e5754 g    DF .text	000000fc _ZNK12DispatchInfo29GetLowestSpeedDownloadingPipeEv
00156b28 g    DF .text	000000a0 _ZNK10RangeQueue7IsEqualERKS_
000e590c g    DF .text	00000054 _ZN16PipeDispatchInfoC2Ev
000e5960 g    DF .text	00000044 _ZN15ResDispatchInfoC2Ev
000e59a4 g    DF .text	00000160 _ZN12DispatchInfoC2Ev
000e5ccc  w   DF .text	00000038 _ZNSt8_Rb_treeIySt4pairIKyP9IDataPipeESt10_Select1stIS4_ESt4lessIyESaIS4_EE8_M_eraseEPSt13_Rb_tree_nodeIS4_E
000e5b04 g    DF .text	000000bc _ZN12DispatchInfoD2Ev
000e5bc0 g    DF .text	0000010c _ZN12DispatchInfo10GetPipeUrlEP9IDataPipe
000e64c4  w   DF .text	00000028 _ZN21DPlayDispatchStrategyD2Ev
000eae20 g    DF .text	00000028 _ZN23TmobileDispatchStrategyD2Ev
002dfa50 g    DO .data.rel.ro	0000003c _ZTV21DPlayDispatchStrategy
000e64c4  w   DF .text	00000028 _ZN21DPlayDispatchStrategyD1Ev
000e64ec  w   DF .text	0000001c _ZN21DPlayDispatchStrategyD0Ev
000e5d04 g    DF .text	00000160 _ZN21DPlayDispatchStrategyC2EP12DispatchInfoP18IConnectDispatcheryjP13DcdnControler
000eb230 g    DF .text	00000044 _ZN23TmobileDispatchStrategyC2EP12DispatchInfoP18IConnectDispatcheryjP13DcdnControler
000e6508  w   DF .text	0000009c _ZNSt8_Rb_treeIySt4pairIKyP9IDataPipeESt10_Select1stIS4_ESt4lessIyESaIS4_EE24_M_get_insert_unique_posERS1_
000e65a4  w   DF .text	000001b4 _ZNSt8_Rb_treeIySt4pairIKyP9IDataPipeESt10_Select1stIS4_ESt4lessIyESaIS4_EE17_M_insert_unique_ESt23_Rb_tree_const_iteratorIS4_ERKS4_
000e5e64 g    DF .text	00000438 _ZN21DPlayDispatchStrategy18DispatchPriorRangeEP9IDataPipe
000e9ed4 g    DF .text	000000a8 _ZN22CommonDispatchStrategy21CalcAssginRangeLengthEP9IDataPipe
000e6758  w   DF .text	00000010 _ZN9__gnu_cxx5__ops15_Iter_comp_iterIPFbP9IDataPipeS3_EEclINS_17__normal_iteratorIPS3_St6vectorIS3_SaIS3_EEEESD_EEbT_T0_
000e6768  w   DF .text	000000c8 _ZSt22__move_median_to_firstIN9__gnu_cxx17__normal_iteratorIPP9IDataPipeSt6vectorIS3_SaIS3_EEEENS0_5__ops15_Iter_comp_iterIPFbS3_S3_EEEEvT_SE_SE_SE_T0_
000e6830  w   DF .text	00000038 _ZSt25__unguarded_linear_insertIN9__gnu_cxx17__normal_iteratorIPP9IDataPipeSt6vectorIS3_SaIS3_EEEENS0_5__ops14_Val_comp_iterIPFbS3_S3_EEEEvT_T0_
000e6868  w   DF .text	00000084 _ZSt16__insertion_sortIN9__gnu_cxx17__normal_iteratorIPP9IDataPipeSt6vectorIS3_SaIS3_EEEENS0_5__ops15_Iter_comp_iterIPFbS3_S3_EEEEvT_SE_T0_
000e68ec  w   DF .text	000000e8 _ZSt13__adjust_heapIN9__gnu_cxx17__normal_iteratorIPP9IDataPipeSt6vectorIS3_SaIS3_EEEEiS3_NS0_5__ops15_Iter_comp_iterIPFbS3_S3_EEEEvT_T0_SF_T1_T2_
000e69d4  w   DF .text	0000014c _ZSt16__introsort_loopIN9__gnu_cxx17__normal_iteratorIPP9IDataPipeSt6vectorIS3_SaIS3_EEEEiNS0_5__ops15_Iter_comp_iterIPFbS3_S3_EEEEvT_SE_T0_T1_
000e629c g    DF .text	00000228 _ZN21DPlayDispatchStrategy16DispatchIdlePipeEv
000e9400 g    DF .text	00000030 _Z15CompPipeBySpeedP9IDataPipeS0_
00297ad8 g    DO .rodata	00000018 _ZTS21DPlayDispatchStrategy
002dfa40 g    DO .data.rel.ro	0000000c _ZTI21DPlayDispatchStrategy
002dfc58 g    DO .data.rel.ro	0000000c _ZTI23TmobileDispatchStrategy
000eae64 g    DF .text	00000028 _ZN23TmobileDispatchStrategy15GetStrategyNameEv
000ea894 g    DF .text	000000cc _ZN22CommonDispatchStrategy18UpdateDispatchInfoEv
000e9b68 g    DF .text	000000d8 _ZN22CommonDispatchStrategy23DispatchOriginFirstPipeEP9IDataPipe
000e9430 g    DF .text	000000e8 _ZN22CommonDispatchStrategy18DispatchNormalPipeEP9IDataPipe
000e9d2c g    DF .text	000001a8 _ZN22CommonDispatchStrategy18DispatchErrorRangeEP9IDataPipe
000eb4c0 g    DF .text	00000290 _ZN23TmobileDispatchStrategy23DispatchUncompleteRangeEP9IDataPipe
000eae8c g    DF .text	000003a4 _ZN23TmobileDispatchStrategy26DispatchOverlapAssignRangeEP9IDataPipe
000e931c g    DF .text	00000004 _ZN22CommonDispatchStrategy12DispatchStatEv
000e9c40 g    DF .text	000000ec _ZN22CommonDispatchStrategy17AssignRangeToPipeERK5rangeP9IDataPipe
000e6b20 g    DF .text	00000028 _ZN24TmobileConnectDispatcherD2Ev
002dfaa0 g    DO .data.rel.ro	0000004c _ZTV24TmobileConnectDispatcher
000e6b20 g    DF .text	00000028 _ZN24TmobileConnectDispatcherD1Ev
000e6b48 g    DF .text	0000001c _ZN24TmobileConnectDispatcherD0Ev
000e6b64 g    DF .text	00000068 _ZN24TmobileConnectDispatcher15getResourceListENS_25PipeCountLimitedResourcesERSt6vectorIP9IResourceSaIS3_EE
000e6bcc g    DF .text	0000002c _ZN24TmobileConnectDispatcher25PipeCountLimitedResourcesC2E11ResComeFrom
000e6bcc g    DF .text	0000002c _ZN24TmobileConnectDispatcher25PipeCountLimitedResourcesC1E11ResComeFrom
000e6bf8 g    DF .text	00000088 _ZN24TmobileConnectDispatcherC2EP12DispatchInfoP18IRessourceProviderP15IDataPipeEventsyjP13DcdnControlerP13AgipControler
000e6c80 g    DF .text	00000008 _ZN24TmobileConnectDispatcher25PipeCountLimitedResources15setMaxPipeCountEj
000e6c88 g    DF .text	00000078 _ZN24TmobileConnectDispatcher25PipeCountLimitedResources21IsReachPipeCountLimitEv
000e6d00 g    DF .text	00000070 _Z17getComeFromString11ResComeFrom
000e6d70 g    DF .text	00000138 _ZN24TmobileConnectDispatcher22DoDispatchPeerResourceERNS_25PipeCountLimitedResourcesE
000e6ea8 g    DF .text	0000002c _ZN24TmobileConnectDispatcher20DispatchPeerResourceEv
000e6ed4 g    DF .text	0000025c _ZN24TmobileConnectDispatcher20TryCloseLowSpeedPipeERKNS_25PipeCountLimitedResourcesE
000e7130 g    DF .text	000001b4 _ZN24TmobileConnectDispatcher8OpenPipeEP9IResourcePP9IDataPipe
000e72e4 g    DF .text	0000015c _ZN24TmobileConnectDispatcher9ClosePipeEP9IDataPipe
000e7440 g    DF .text	00000034 _ZN24TmobileConnectDispatcher15HandleClosePipeEv
000e7474 g    DF .text	000000d4 _ZN24TmobileConnectDispatcher15UpdateSpeedInfoEv
000e7548 g    DF .text	00000284 _ZN24TmobileConnectDispatcher22CalcMaxCreatePipeCountEv
00297af0 g    DO .rodata	0000001b _ZTS24TmobileConnectDispatcher
002dfa90 g    DO .data.rel.ro	0000000c _ZTI24TmobileConnectDispatcher
002dfaf8 g    DO .data.rel.ro	00000024 _ZTV17IDispatchStrategy
000e77d0 g    DF .text	0000001c _ZN17IDispatchStrategyC1EP12DispatchInfo
000e77ec g    DF .text	00000004 _ZN17IDispatchStrategyD1Ev
000e77f0 g    DF .text	0000001c _ZN17IDispatchStrategyD0Ev
00297b0c g    DO .rodata	00000014 _ZTS17IDispatchStrategy
000e785c g    DF .text	0000000c _ZNK25ThunderzConnectDispatcher16GetOpenPipeCountEv
000e7868 g    DF .text	00000004 _ZN25ThunderzConnectDispatcher26BeforeSwapToThisDispatcherEv
000e786c g    DF .text	00000010 _ZN25ThunderzConnectDispatcher14InsertResourceEP9IResource
000e787c g    DF .text	00000004 _ZN25ThunderzConnectDispatcher20HandleRemoveResourceEv
000e7880 g    DF .text	00000028 _ZN25ThunderzConnectDispatcherD2Ev
002dfb30 g    DO .data.rel.ro	0000003c _ZTV25ThunderzConnectDispatcher
000e7880 g    DF .text	00000028 _ZN25ThunderzConnectDispatcherD1Ev
000e78a8 g    DF .text	0000001c _ZN25ThunderzConnectDispatcherD0Ev
000e78c4 g    DF .text	00000054 _ZN25ThunderzConnectDispatcherC2EP12DispatchInfoP18IRessourceProviderP15IDataPipeEventsyj
000e7918 g    DF .text	00000004 _ZN25ThunderzConnectDispatcher23UpdateDispatchPipeCountE11ResComeFrom
000e791c g    DF .text	00000004 _ZN25ThunderzConnectDispatcher15UpdateSpeedInfoEv
000e7920 g    DF .text	0000006c _ZN25ThunderzConnectDispatcher22CalcMaxCreatePipeCountEv
000e798c g    DF .text	00000018 _ZN25ThunderzConnectDispatcher18UpdateDispatchInfoEv
000e79a4 g    DF .text	00000090 _ZN25ThunderzConnectDispatcher20TryCloseLowSpeedPipeEv
000e7a34 g    DF .text	00000004 _ZN25ThunderzConnectDispatcher15HandleClosePipeEv
000e7a38 g    DF .text	000000b0 _ZNK25ThunderzConnectDispatcher17GetConnectedPipesERSt6vectorIP9IDataPipeSaIS2_EE
000e7ae8 g    DF .text	0000013c _ZN25ThunderzConnectDispatcher8OpenPipeEP9IResourcePP9IDataPipe
000e7c24 g    DF .text	00000144 _ZN25ThunderzConnectDispatcher14HandleOpenPipeEv
000e7d68 g    DF .text	00000090 _ZN25ThunderzConnectDispatcher14RemoveResourceEP9IResource
000e7df8 g    DF .text	00000190 _ZN25ThunderzConnectDispatcher9ClosePipeEP9IDataPipe
00297b20 g    DO .rodata	0000001c _ZTS25ThunderzConnectDispatcher
002dfb20 g    DO .data.rel.ro	0000000c _ZTI25ThunderzConnectDispatcher
000e7f88 g    DF .text	00000004 _ZN23BrowserDispatchStrategy18UpdateDispatchInfoEv
000e7f8c g    DF .text	00000028 _ZN23BrowserDispatchStrategyD2Ev
002dfb80 g    DO .data.rel.ro	00000024 _ZTV23BrowserDispatchStrategy
000e7f8c g    DF .text	00000028 _ZN23BrowserDispatchStrategyD1Ev
000e7fb4 g    DF .text	0000001c _ZN23BrowserDispatchStrategyD0Ev
000e7fd0 g    DF .text	00000028 _ZN23BrowserDispatchStrategy15GetStrategyNameEv
000e7ff8 g    DF .text	00000030 _ZN23BrowserDispatchStrategyC2EP12DispatchInfoP18IConnectDispatcher
000e8028 g    DF .text	00000070 _ZNK23BrowserDispatchStrategy20CalcBeginDownloadPosEv
000e8098 g    DF .text	000000bc _ZN23BrowserDispatchStrategy17AssignRangeToPipeERK5rangeP9IDataPipe
001582c0 g    DF .text	000001a4 _ZN10RangeQueuemIERK5range
000e8154 g    DF .text	000000a8 _ZN23BrowserDispatchStrategy23DispatchOriginFirstPipeEP9IDataPipe
000e81fc g    DF .text	000000a4 _ZN23BrowserDispatchStrategy18DispatchNormalPipeEP9IDataPipe
000e82a0 g    DF .text	000000cc _ZN23BrowserDispatchStrategy16DispatchIdlePipeEv
00297b3c g    DO .rodata	0000001a _ZTS23BrowserDispatchStrategy
002dfb70 g    DO .data.rel.ro	0000000c _ZTI23BrowserDispatchStrategy
000e836c g    DF .text	00000028 _ZN22DPlayConnectDispatcher15GetStrategyNameEv
000e90e0  w   DF .text	00000028 _ZN22DPlayConnectDispatcherD2Ev
002dfbb8 g    DO .data.rel.ro	00000050 _ZTV22DPlayConnectDispatcher
000e90e0  w   DF .text	00000028 _ZN22DPlayConnectDispatcherD1Ev
000e9108  w   DF .text	0000001c _ZN22DPlayConnectDispatcherD0Ev
000e8394 g    DF .text	0000024c _ZN22DPlayConnectDispatcherC2EP12DispatchInfoP18IRessourceProviderP15IDataPipeEventsyjP13DcdnControlerP13AgipControler
000e85e0 g    DF .text	00000034 _ZN22DPlayConnectDispatcher14SafeDeletePipeEPP9IDataPipe
000e8614 g    DF .text	00000130 _ZN22DPlayConnectDispatcher24CloseWithoutIntersetPipeERK5range
000e8744 g    DF .text	00000244 _ZN22DPlayConnectDispatcher24ClosePipeForPriorSpeedUpERK10RangeQueue5range
000e9124  w   DF .text	00000058 _ZNKSt6vectorIP9IResourceSaIS1_EE12_M_check_lenEjPKc
000e8988 g    DF .text	0000028c _ZN22DPlayConnectDispatcher26TryClosePipeAndResForPriorEv
000e917c  w   DF .text	00000178 _ZNSt6vectorIP9IResourceSaIS1_EE15_M_range_insertIN9__gnu_cxx17__normal_iteratorIPS1_S3_EEEEvS8_T_S9_St20forward_iterator_tag
000e8c14 g    DF .text	000001b0 _ZN22DPlayConnectDispatcher13GetAllNeedResEPSt6vectorIP9IResourceSaIS2_EE
000e8dc4 g    DF .text	00000304 _ZN22DPlayConnectDispatcher14HandleOpenPipeEv
000e90c8 g    DF .text	00000018 _ZN22DPlayConnectDispatcher15HandleClosePipeEv
00297b58 g    DO .rodata	00000019 _ZTS22DPlayConnectDispatcher
002dfba8 g    DO .data.rel.ro	0000000c _ZTI22DPlayConnectDispatcher
000e92f4 g    DF .text	00000020 _Z14CompRangeByPosRK5rangeS1_
000e9314 g    DF .text	00000008 _ZN22CommonDispatchStrategy18DispatchPriorRangeEP9IDataPipe
000e9320 g    DF .text	0000009c _ZN22CommonDispatchStrategyD2Ev
002dfc18 g    DO .data.rel.ro	0000003c _ZTV22CommonDispatchStrategy
000e9320 g    DF .text	0000009c _ZN22CommonDispatchStrategyD1Ev
000e93bc g    DF .text	0000001c _ZN22CommonDispatchStrategyD0Ev
000e93d8 g    DF .text	00000028 _ZN22CommonDispatchStrategy15GetStrategyNameEv
000e9518 g    DF .text	000000d0 _ZN22CommonDispatchStrategyC2EP12DispatchInfoP18IConnectDispatcheryjP13DcdnControler
000e95e8 g    DF .text	00000098 _ZN22CommonDispatchStrategy16CanOverlapAssginEv
000e9680 g    DF .text	00000008 _ZN22CommonDispatchStrategy13GetBufferSizeEv
000e9688 g    DF .text	0000009c _ZN22CommonDispatchStrategy22GetCanAssignRangeLimitEv
000e9724 g    DF .text	00000444 _ZN22CommonDispatchStrategy15AssignRangeStatERK5rangeP9IDataPipe
00156fe0 g    DF .text	00000078 _ZNK10RangeQueue10IsRelevantERKS_
000e9f7c g    DF .text	00000204 _ZN22CommonDispatchStrategy23DispatchUncompleteRangeEP9IDataPipe
000ea180 g    DF .text	00000318 _ZN22CommonDispatchStrategy26DispatchOverlapAssignRangeEP9IDataPipe
000ea960  w   DF .text	00000010 _ZN9__gnu_cxx5__ops15_Iter_comp_iterIPFbRK5rangeS4_EEclINS_17__normal_iteratorIPS2_St6vectorIS2_SaIS2_EEEESE_EEbT_T0_
000ea970  w   DF .text	0000005c _ZSt25__unguarded_linear_insertIN9__gnu_cxx17__normal_iteratorIP5rangeSt6vectorIS2_SaIS2_EEEENS0_5__ops14_Val_comp_iterIPFbRKS2_SB_EEEEvT_T0_
000ea9cc  w   DF .text	00000058 _ZNSt20__copy_move_backwardILb0ELb0ESt26random_access_iterator_tagE13__copy_move_bIP5rangeS4_EET0_T_S6_S5_
000eaa24  w   DF .text	0000008c _ZSt16__insertion_sortIN9__gnu_cxx17__normal_iteratorIP5rangeSt6vectorIS2_SaIS2_EEEENS0_5__ops15_Iter_comp_iterIPFbRKS2_SB_EEEEvT_SF_T0_
000ea498 g    DF .text	0000015c _ZN22CommonDispatchStrategy16DispatchIdlePipeEv
000eaab0  w   DF .text	00000110 _ZSt13__adjust_heapIN9__gnu_cxx17__normal_iteratorIP5rangeSt6vectorIS2_SaIS2_EEEEiS2_NS0_5__ops15_Iter_comp_iterIPFbRKS2_SB_EEEEvT_T0_SG_T1_T2_
000eabc0  w   DF .text	00000054 _ZSt10__pop_heapIN9__gnu_cxx17__normal_iteratorIP5rangeSt6vectorIS2_SaIS2_EEEENS0_5__ops15_Iter_comp_iterIPFbRKS2_SB_EEEEvT_SF_SF_T0_
000eac14  w   DF .text	0000002c _ZSt4swapI5rangeEvRT_S2_
000eac40  w   DF .text	000001e0 _ZSt16__introsort_loopIN9__gnu_cxx17__normal_iteratorIP5rangeSt6vectorIS2_SaIS2_EEEEiNS0_5__ops15_Iter_comp_iterIPFbRKS2_SB_EEEEvT_SF_T0_T1_
000ea5f4 g    DF .text	000002a0 _ZN22CommonDispatchStrategy24UpdateOverlapAssignRangeEv
001569cc g    DF .text	00000098 _ZNK10RangeQueue12IsInnerRangeERK5range
00297b74 g    DO .rodata	00000019 _ZTS22CommonDispatchStrategy
002dfc08 g    DO .data.rel.ro	0000000c _ZTI22CommonDispatchStrategy
002dfc68 g    DO .data.rel.ro	0000003c _ZTV23TmobileDispatchStrategy
000eae20 g    DF .text	00000028 _ZN23TmobileDispatchStrategyD1Ev
000eae48 g    DF .text	0000001c _ZN23TmobileDispatchStrategyD0Ev
000eb750  w   DF .text	0000003c _ZNK5range3endEv
000eb274 g    DF .text	0000024c _ZN23TmobileDispatchStrategy24CalcRangeLengthForAssignEP9IDataPipeRb
00297b90 g    DO .rodata	0000001a _ZTS23TmobileDispatchStrategy
000eb86c  w   DF .text	00000004 _ZN15IP2spTaskEvents14OnPreTaskStartE20_XL_CREATE_TASK_MODERKSs
000eb870  w   DF .text	00000004 _ZN15IP2spTaskEvents13OnTaskStartedE20_XL_CREATE_TASK_MODE
000eb874  w   DF .text	00000004 _ZN15IP2spTaskEvents13OnPreTaskStopEv
000eb878  w   DF .text	00000004 _ZN15IP2spTaskEvents13OnTaskStoppedEv
000eb87c  w   DF .text	00000004 _ZN15IP2spTaskEvents16OnPreTaskSuccessEv
000eb880  w   DF .text	00000004 _ZN15IP2spTaskEvents15OnTaskSuccessedEv
000eb884  w   DF .text	00000004 _ZN15IP2spTaskEvents13OnPreTaskFailEv
000eb888  w   DF .text	00000004 _ZN15IP2spTaskEvents12OnTaskFailedEv
000eb88c  w   DF .text	00000004 _ZN15IP2spTaskEvents19OnOriginGetFileSizeEyb
000eb890  w   DF .text	00000004 _ZN15IP2spTaskEvents16OnQueryIndexFailE20QueryIndexFailReason
000eb894  w   DF .text	00000004 _ZN15IP2spTaskEvents26OnBeginQueryMirrorResourceEv
000eb898  w   DF .text	00000004 _ZN15IP2spTaskEvents25OnQueryMirrorResourceFailEi
000eb78c g    DF .text	00000040 _ZN19SpecailLogicManager13OnTaskStartedE20_XL_CREATE_TASK_MODE
000eb89c g    DF .text	0000007c _ZN15ThreeCIDHandlerC1EP12IDataManagerP9IResourcej
000eb7cc g    DF .text	0000001c _ZN19SpecailLogicManager19OnOriginGetFileSizeEyb
000eb91c g    DF .text	00000010 _ZN15ThreeCIDHandler23NotifyGetOriginFileSizeEy
000eb7e8 g    DF .text	00000018 _ZN19SpecailLogicManager16OnQueryIndexFailE20QueryIndexFailReason
000eb92c g    DF .text	0000000c _ZN15ThreeCIDHandler19NotifyNoneIndexInfoEv
000eb800 g    DF .text	00000030 _ZN19SpecailLogicManagerC2EP9IResourceP12IDataManagerj
002dfcf8 g    DO .data.rel.ro	00000038 _ZTV19SpecailLogicManager
000eb830 g    DF .text	0000003c _ZN19SpecailLogicManagerD2Ev
002dfca8  w   DO .data.rel.ro	00000008 _ZTI15IP2spTaskEvents
00297bac  w   DO .rodata	00000012 _ZTS15IP2spTaskEvents
00297bc0 g    DO .rodata	00000016 _ZTS19SpecailLogicManager
002dfce8 g    DO .data.rel.ro	0000000c _ZTI19SpecailLogicManager
002dfcb0  w   DO .data.rel.ro	00000038 _ZTV15IP2spTaskEvents
000ec030  w   DF .text	00000004 _ZN15ThreeCIDHandler12OnCreatePipeEP9IDataPipe
000ec034  w   DF .text	00000004 _ZN15ThreeCIDHandler12OnDeletePipeEP9IDataPipe
000ec038  w   DF .text	00000004 _ZN15ThreeCIDHandler7OnCloseEP9IDataPipe
000ec03c  w   DF .text	00000004 _ZN15ThreeCIDHandler10OnRecvDataEP9IDataPipeRK5range
000ec040  w   DF .text	00000004 _ZN15ThreeCIDHandler10OnSendDataEP9IDataPipeRK5range
000eb89c g    DF .text	0000007c _ZN15ThreeCIDHandlerC2EP12IDataManagerP9IResourcej
002dfd68 g    DO .data.rel.ro	00000048 _ZTV15ThreeCIDHandler
000eb918 g    DF .text	00000004 _ZN15ThreeCIDHandler18TryGetThreeCIDDataEv
000eb938 g    DF .text	0000029c _ZN15ThreeCIDHandler20StartGetThreeCIDDataEv
000ec0c8 g    DF .text	00000100 _ZN17ThreeCidDataWriteC1E10RangeQueueP15IDataMemoryFree
000ee28c g    DF .text	000000b8 _ZN9IResource14CreateDataPipeEPP9IDataPipe15DataPipeContext
000ebbd4 g    DF .text	00000008 _ZNK15ThreeCIDHandler15GetCIDDataStateEv
000ebbdc g    DF .text	00000038 _ZN15ThreeCIDHandler15ReleaseDataPipeEv
000ebc14 g    DF .text	000000ec _ZN15ThreeCIDHandlerD2Ev
000ebc14 g    DF .text	000000ec _ZN15ThreeCIDHandlerD1Ev
000ebd00 g    DF .text	0000001c _ZN15ThreeCIDHandlerD0Ev
000ebd1c g    DF .text	00000064 _ZN15ThreeCIDHandler12OnCalcFinishEPvy
0016df5c g    DF .text	000000a0 sd_cid_to_hex_string
000ebd80 g    DF .text	00000008 _ZThn4_N15ThreeCIDHandler12OnCalcFinishEPvy
000ebd88 g    DF .text	0000002c _ZN15ThreeCIDHandler12DisposeErrorEi
000ebdb4 g    DF .text	00000008 _ZN15ThreeCIDHandler11OnReconnectEP9IDataPipe
000ebdbc g    DF .text	00000008 _ZN15ThreeCIDHandler14OnFileNotExistEP9IDataPipe
000ebdc4 g    DF .text	000000a8 _ZN15ThreeCIDHandler14DoCalc3PartCIDEv
001919d0 g    DF .text	00000040 _ZN18DataCheckerFactory6CreateEP25IDataCheckerEventListeneri
000ec408 g    DF .text	00000054 _ZNK17ThreeCidDataWrite10GetCIDDataEPPcRj
000ebe6c g    DF .text	000000b8 _ZN15ThreeCIDHandler24HandlePipeCanRecvNewDataEv
000ebf24 g    DF .text	00000004 _ZN15ThreeCIDHandler6OnOpenEP9IDataPipe
000ebf28 g    DF .text	0000003c _ZN15ThreeCIDHandler15OnAllDataRecvedEP9IDataPipeRK5range
000ebf64 g    DF .text	000000cc _ZN15ThreeCIDHandler8OnFailedEP9IDataPipei
002dfd30  w   DO .data.rel.ro	00000008 _ZTI25IDataCheckerEventListener
00297bd8  w   DO .rodata	0000001c _ZTS25IDataCheckerEventListener
00297bf4 g    DO .rodata	00000012 _ZTS15ThreeCIDHandler
002dfd48 g    DO .data.rel.ro	00000020 _ZTI15ThreeCIDHandler
002dfd38  w   DO .data.rel.ro	0000000c _ZTV25IDataCheckerEventListener
000ec044 g    DF .text	00000068 _ZN17ThreeCidDataWriteD2Ev
002dfdc0 g    DO .data.rel.ro	00000018 _ZTV17ThreeCidDataWrite
000ec044 g    DF .text	00000068 _ZN17ThreeCidDataWriteD1Ev
000ec0ac g    DF .text	0000001c _ZN17ThreeCidDataWriteD0Ev
000ec0c8 g    DF .text	00000100 _ZN17ThreeCidDataWriteC2E10RangeQueueP15IDataMemoryFree
000ec1c8 g    DF .text	000001bc _ZNK17ThreeCidDataWrite19CalcDataRelativePosEyRy
001566e4 g    DF .text	00000008 _ZNK10RangeQueue6RangesEv
000ec384 g    DF .text	00000084 _ZN17ThreeCidDataWrite26OutputDataAndReleaseBufferEP9IResourcePPcyj
00297c08 g    DO .rodata	00000014 _ZTS17ThreeCidDataWrite
002dfdb0 g    DO .data.rel.ro	0000000c _ZTI17ThreeCidDataWrite
000ec45c g    DF .text	0000000c _ZN15ResourceManager18GetOrigionResourceEPP9IResource
000ec468 g    DF .text	0000005c _ZNK15ResourceManager21GetOriginTransferInfoEPyS0_
000edff0 g    DF .text	00000018 _ZN9IResource8GetSpeedEv
000ec4c4 g    DF .text	00000008 _ZThn4_NK15ResourceManager21GetOriginTransferInfoEPyS0_
000ec4cc g    DF .text	00000134 _ZNK15ResourceManager18GetP2sTransferInfoEPyS0_
000ec600 g    DF .text	00000008 _ZThn4_NK15ResourceManager18GetP2sTransferInfoEPyS0_
000ec608 g    DF .text	00000134 _ZNK15ResourceManager19GetDcdnTransferInfoEPyS0_
000ec73c g    DF .text	00000008 _ZThn4_NK15ResourceManager19GetDcdnTransferInfoEPyS0_
000ec744 g    DF .text	00000134 _ZNK15ResourceManager19GetAntiTransferInfoEPyS0_
000ec878 g    DF .text	00000008 _ZThn4_NK15ResourceManager19GetAntiTransferInfoEPyS0_
000ec880 g    DF .text	00000134 _ZNK15ResourceManager24GetAntiHttpsTransferInfoEPyS0_
000ec9b4 g    DF .text	00000008 _ZThn4_NK15ResourceManager24GetAntiHttpsTransferInfoEPyS0_
000ec9bc g    DF .text	00000134 _ZNK15ResourceManager19GetExtpTransferInfoEPyS0_
000ecaf0 g    DF .text	00000008 _ZThn4_NK15ResourceManager19GetExtpTransferInfoEPyS0_
000ecaf8 g    DF .text	00000040 _ZN15ResourceManager23GetOrigionResourceFroceEPP9IResource
000ecb38 g    DF .text	000000ec _ZN15ResourceManagerC2Ej
002dfe50 g    DO .data.rel.ro	00000094 _ZTV15ResourceManager
000ece64 g    DF .text	000000cc _ZN15ResourceManager15GetResOwnerListEP9IResource
000ecf30 g    DF .text	000000ac _ZN15ResourceManager18StatisticsResTotalEP9IResourceb
000ed058 g    DF .text	00000020 _ZN15ResourceManager17GetOriginResStateEv
000edb14  w   DF .text	00000040 _ZNSt8_Rb_treeISsSt4pairIKSsP9IResourceESt10_Select1stIS4_ESt4lessISsESaIS4_EE8_M_eraseEPSt13_Rb_tree_nodeIS4_E
000ed0ac g    DF .text	000000d4 _ZN15ResourceManager29GetSpecialTypeResTransferInfoEjPyS0_
000ed180 g    DF .text	00000008 _ZThn4_N15ResourceManager29GetSpecialTypeResTransferInfoEjPyS0_
000ed188 g    DF .text	000001d0 _ZN15ResourceManagerD2Ev
000ed188 g    DF .text	000001d0 _ZN15ResourceManagerD1Ev
000ed358 g    DF .text	0000001c _ZN15ResourceManagerD0Ev
000edb54  w   DF .text	000000a0 _ZNSt8_Rb_treeISsSt4pairIKSsP9IResourceESt10_Select1stIS4_ESt4lessISsESaIS4_EE24_M_get_insert_unique_posERS1_
000edbf4  w   DF .text	000001bc _ZNSt8_Rb_treeISsSt4pairIKSsP9IResourceESt10_Select1stIS4_ESt4lessISsESaIS4_EE17_M_insert_unique_ESt23_Rb_tree_const_iteratorIS4_ERKS4_
000eddb0  w   DF .text	000000c8 _ZNSt6vectorIP9IResourceSaIS1_EE9push_backERKS1_
000ed374 g    DF .text	00000050 _ZN15ResourceManager27GetSpecailResourcesFromListEjRKSt6vectorIP9IResourceSaIS2_EERS4_
000ed3c4 g    DF .text	00000064 _ZN15ResourceManager22GetSpecailResourceListEjRSt6vectorIP9IResourceSaIS2_EE
000ed428 g    DF .text	00000264 _ZN15ResourceManager14InsertResourceEP9IResource
000ed68c g    DF .text	00000130 _ZN15ResourceManager15AbandonResourceEP9IResource
000ed7bc g    DF .text	00000030 _ZN15ResourceManager28GetAntiHijackCdnResourceListERSt6vectorIP9IResourceSaIS2_EE
000ed7ec g    DF .text	00000030 _ZN15ResourceManager23GetThunderzResourceListERSt6vectorIP9IResourceSaIS2_EE
000ed81c g    DF .text	00000030 _ZN15ResourceManager19GetExtpResourceListERSt6vectorIP9IResourceSaIS2_EE
000ed84c g    DF .text	00000030 _ZN15ResourceManager22GetTrackerResourceListERSt6vectorIP9IResourceSaIS2_EE
000ed87c g    DF .text	00000030 _ZN15ResourceManager20GetDPhubResourceListERSt6vectorIP9IResourceSaIS2_EE
000ed8ac g    DF .text	00000030 _ZN15ResourceManager19GetPhubResourceListERSt6vectorIP9IResourceSaIS2_EE
000ed8dc g    DF .text	00000030 _ZN15ResourceManager19GetDcdnResourceListERSt6vectorIP9IResourceSaIS2_EE
000ed90c g    DF .text	00000030 _ZN15ResourceManager19GetHighResourceListERSt6vectorIP9IResourceSaIS2_EE
000ed93c g    DF .text	00000030 _ZN15ResourceManager18GetCdnResourceListERSt6vectorIP9IResourceSaIS2_EE
000ed96c g    DF .text	00000030 _ZN15ResourceManager22GetAbandonResourceListERSt6vectorIP9IResourceSaIS2_EE
000ed99c g    DF .text	00000030 _ZN15ResourceManager21GetMirrorResourceListERSt6vectorIP9IResourceSaIS2_EE
000ed9cc g    DF .text	0000006c _ZN15ResourceManager19GetPeerResourceListERSt6vectorIP9IResourceSaIS2_EE
000ede78  w   DF .text	00000178 _ZNSt6vectorIP9IResourceSaIS1_EE15_M_range_insertIN9__gnu_cxx17__normal_iteratorIPKS1_S3_EEEEvNS6_IPS1_S3_EET_SC_St20forward_iterator_tag
002dfdd8  w   DO .data.rel.ro	00000008 _ZTI18IRessourceProvider
00297c1c  w   DO .rodata	00000015 _ZTS18IRessourceProvider
00297c34 g    DO .rodata	00000012 _ZTS15ResourceManager
002dfe30 g    DO .data.rel.ro	00000020 _ZTI15ResourceManager
002dfde0  w   DO .data.rel.ro	0000004c _ZTV18IRessourceProvider
000ee4f8  w   DF .text	00000008 _ZN9IResource16GetResTargetSizeERy
000ee500  w   DF .text	00000008 _ZN9IResource17GetAvgConnectTimeEv
000ee508  w   DF .text	00000008 _ZN9IResource11SetReportIDEj
000ee510  w   DF .text	00000008 _ZN9IResource9IsStatbleEv
001728a0 g    DF .text	000000b8 _ZN16speed_calculator11speed_valueEv
000ee008 g    DF .text	00000018 _ZN9IResource11UpdateSpeedEv
000ee020 g    DF .text	00000008 _ZN9IResource12GetLastSpeedEv
000ee028 g    DF .text	00000020 _ZN9IResource23OnConnectFailureDetailsEi
000ee518  w   DF .text	00000038 _ZNSt8_Rb_treeIP9IDataPipeSt4pairIKS1_15DataPipeContextESt10_Select1stIS5_ESt4lessIS1_ESaIS5_EE8_M_eraseEPSt13_Rb_tree_nodeIS5_E
000ee550  w   DF .text	00000108 _ZNSt8_Rb_treeIP9IDataPipeSt4pairIKS1_15DataPipeContextESt10_Select1stIS5_ESt4lessIS1_ESaIS5_EE16_M_insert_uniqueERKS5_
000ee344 g    DF .text	00000138 _ZN9IResourceC2EP18IDataMemoryManagerP21IDataManagerWriteData
001726e8 g    DF .text	00000074 _ZN16speed_calculatorC1Eyy
00172698 g    DF .text	00000034 _ZN16speed_calculatorD1Ev
002dfef0 g    DO .data.rel.ro	0000003c _ZTV9IResource
002f04e0 g    DO .bss	00000008 _ZN9IResource14ms_lluResTotalE
000ee344 g    DF .text	00000138 _ZN9IResourceC1EP18IDataMemoryManagerP21IDataManagerWriteData
000ee47c g    DF .text	00000060 _ZN9IResourceD2Ev
000ee47c g    DF .text	00000060 _ZN9IResourceD1Ev
000ee4dc g    DF .text	0000001c _ZN9IResourceD0Ev
00297c48 g    DO .rodata	0000000b _ZTS9IResource
000ee658 g    DF .text	00000008 _ZN15ResourceBuilderC2EP18IDataMemoryManagerP21IDataManagerWriteDataP15IResourceEvents
000f79f4 g    DF .text	00000044 _ZN3Uri11SetNamePassERKSsSsRS_
000fd718 g    DF .text	00000138 _ZN12HttpResourceC1EP18IDataMemoryManagerP21IDataManagerWriteDataRK3UriP15IResourceEvents
000f7e50 g    DF .text	00000030 _ZN3Uri12HostIsDomainERKSs
000ef334 g    DF .text	000000f0 _ZN11FtpResourceC1EP18IDataMemoryManagerP21IDataManagerWriteDataRK3UriP15IResourceEvents
000eff74 g    DF .text	000000c0 _ZN11P2pResourceC1EP18IDataMemoryManagerP21IDataManagerWriteData12P2P_RESOURCEP15IResourceEvents
000f0034 g    DF .text	00000028 _ZN11P2pResource9setJmpKeyERKSs
000f005c g    DF .text	00000024 _ZN11P2pResource13setVipCdnAuthERKSs
000febb8 g    DF .text	00000088 _ZN12ExtpResourceC1EP18IDataMemoryManagerP21IDataManagerWriteData13EXTP_RESOURCEP15IResourceEvents
000f0718 g    DF .text	0000009c _ZN16ThunderzResourceC1EP18IDataMemoryManagerP21IDataManagerWriteDataRK3UriP15IResourceEventsSs
000ef8ac  w   DF .text	0000002c _ZN11FtpResource17GetAvgConnectTimeEv
000ef8d8  w   DF .text	00000018 _ZN23FtpResourceOnCreatePipe10do_executeEv
000eed54 g    DF .text	0000002c _ZN11FtpResource17SubDeleteDataPipeEP9IDataPipe
000eed80 g    DF .text	00000008 _ZN11FtpResource15GetResourceTypeEv
000eed88 g    DF .text	00000014 _ZN11FtpResource16GetResTargetSizeERy
000eed9c g    DF .text	00000020 _ZN11FtpResource15GetTransferInfoEPyS0_
000ef8f0  w   DF .text	00000018 _ZN21FtpResourceOnPipeOpen10do_executeEv
000ef908  w   DF .text	0000003c _ZN30FtpResourceOnFirstPipeResponse10do_executeEv
000ef944  w   DF .text	00000040 _ZN21FtpResourceOnRecvDataD2Ev
002e0010  w   DO .data.rel.ro	00000014 _ZTV21FtpResourceOnRecvData
000ef944  w   DF .text	00000040 _ZN21FtpResourceOnRecvDataD1Ev
000ef984  w   DF .text	00000040 _ZN21FtpResourceOnRecvData10do_executeEv
000ef9c4  w   DF .text	0000001c _ZN21FtpDataPipeOnRecvData10do_executeEv
000ef9e0  w   DF .text	0000001c _ZN23FtpResourceOnErrorEvent10do_executeEv
000ef9fc  w   DF .text	00000018 _ZN23FtpResourceFileNotExist10do_executeEv
000eedd8 g    DF .text	00000018 _ZN11FtpResource15OnDnsParseErrorEv
000eedf0 g    DF .text	00000008 _ZThn260_N11FtpResource15OnDnsParseErrorEv
000eedf8 g    DF .text	00000028 _ZN11FtpResource15OnConnectTimeMsEy
000eee20 g    DF .text	00000008 _ZThn260_N11FtpResource15OnConnectTimeMsEy
000eee28 g    DF .text	00000008 _ZN11FtpResource14IsSupportRangeEv
000eee30 g    DF .text	00000008 _ZN11FtpResource9IsStatbleEv
000efa14  w   DF .text	00000060 _ZN11FtpResource6GetUriER3Uri
000efa74  w   DF .text	00000008 _ZThn208_N11FtpResource6GetUriER3Uri
000efa7c  w   DF .text	00000004 _ZN23FtpResourceFileNotExistD2Ev
000efa7c  w   DF .text	00000004 _ZN23FtpResourceFileNotExistD1Ev
000efa80  w   DF .text	00000004 _ZN23FtpResourceOnErrorEventD2Ev
000efa80  w   DF .text	00000004 _ZN23FtpResourceOnErrorEventD1Ev
000efa84  w   DF .text	00000004 _ZN21FtpDataPipeOnRecvDataD2Ev
000efa84  w   DF .text	00000004 _ZN21FtpDataPipeOnRecvDataD1Ev
000efa88  w   DF .text	00000004 _ZN30FtpResourceOnFirstPipeResponseD2Ev
000efa88  w   DF .text	00000004 _ZN30FtpResourceOnFirstPipeResponseD1Ev
000efa8c  w   DF .text	00000004 _ZN21FtpResourceOnPipeOpenD2Ev
000efa8c  w   DF .text	00000004 _ZN21FtpResourceOnPipeOpenD1Ev
000efa90  w   DF .text	00000004 _ZN23FtpResourceOnCreatePipeD2Ev
000efa90  w   DF .text	00000004 _ZN23FtpResourceOnCreatePipeD1Ev
000efa94  w   DF .text	00000014 _ZN23FtpResourceOnCreatePipeD0Ev
000efaa8  w   DF .text	00000014 _ZN21FtpResourceOnPipeOpenD0Ev
000efabc  w   DF .text	00000014 _ZN30FtpResourceOnFirstPipeResponseD0Ev
000efad0  w   DF .text	0000001c _ZN21FtpResourceOnRecvDataD0Ev
000efaec  w   DF .text	00000014 _ZN21FtpDataPipeOnRecvDataD0Ev
000efb00  w   DF .text	00000014 _ZN23FtpResourceOnErrorEventD0Ev
000efb14  w   DF .text	00000014 _ZN23FtpResourceFileNotExistD0Ev
000eee50 g    DF .text	00000018 _ZN11FtpResource13GetResourceIdEv
000eee68 g    DF .text	00000058 _ZN11FtpResource16OnConnectFailureEP11FtpDataPipei
000f90b4 g    DF .text	00000070 _ZN18ResourceDnsAdapter20NotifyIpAddressValidERK9SD_IPADDRb
000eeec0 g    DF .text	00000008 _ZThn260_N11FtpResource16OnConnectFailureEP11FtpDataPipei
000eeec8 g    DF .text	00000040 _ZN11FtpResource20GetCanDownloadRangesER10RangeQueue
000eef08 g    DF .text	00000038 _ZN11FtpResource16OnConnectSuccessEP11FtpDataPipe
000eef40 g    DF .text	00000008 _ZThn260_N11FtpResource16OnConnectSuccessEP11FtpDataPipe
000eef48 g    DF .text	0000017c _ZN11FtpResource17SubCreateDataPipeEPP9IDataPipe15DataPipeContext
000f9370 g    DF .text	0000008c _ZN18ResourceDnsAdapterC1ERKSsb
00101c28 g    DF .text	000001a4 _ZN11FtpDataPipeC1EP16IFtpResourceInfoP25IFtpDataPipeEventListenerP18IDataMemoryManagerP15IDataMemoryFreeP21IDataManagerWriteDataP18ResourceDnsAdapterb
000fc930 g    DF .text	00000008 _ZN9IDataPipe13SetResourceIdESs
000fc918 g    DF .text	00000008 _ZN9IDataPipe15PostSdAsynEventEP10IAsynEvent
002dffc8  w   DO .data.rel.ro	00000014 _ZTV23FtpResourceOnCreatePipe
000ef0c4 g    DF .text	000000a4 _ZN11FtpResource13OnGetUserNameERSs
000ef168 g    DF .text	00000008 _ZThn260_N11FtpResource13OnGetUserNameERSs
000ef170 g    DF .text	000000d0 _ZN11FtpResource13OnGetPassWordERSs
000ef240 g    DF .text	00000008 _ZThn260_N11FtpResource13OnGetPassWordERSs
000efb28  w   DF .text	0000005c _ZN16IFtpResourceInfoD2Ev
002e04b0 g    DO .data.rel.ro	00000024 _ZTV16IFtpResourceInfo
000efb28  w   DF .text	0000005c _ZN16IFtpResourceInfoD1Ev
000ef248 g    DF .text	000000c0 _ZN11FtpResourceD2Ev
000f93fc g    DF .text	00000078 _ZN18ResourceDnsAdapterD1Ev
002e00a8 g    DO .data.rel.ro	000000cc _ZTV11FtpResource
000ef248 g    DF .text	000000c0 _ZN11FtpResourceD1Ev
000ef308 g    DF .text	00000008 _ZThn208_N11FtpResourceD1Ev
000ef310 g    DF .text	0000001c _ZN11FtpResourceD0Ev
000ef32c g    DF .text	00000008 _ZThn208_N11FtpResourceD0Ev
000efb84  w   DF .text	0000001c _ZN16IFtpResourceInfoD0Ev
000ef334 g    DF .text	000000f0 _ZN11FtpResourceC2EP18IDataMemoryManagerP21IDataManagerWriteDataRK3UriP15IResourceEvents
000f6ab0 g    DF .text	0000014c _ZN16IFtpResourceInfoC2ERK3Uri
000efba0  w   DF .text	00000058 _ZNSt8_Rb_treeIP9IDataPipeSt4pairIKS1_15DataPipeContextESt10_Select1stIS5_ESt4lessIS1_ESaIS5_EE4findERS3_
000ef424 g    DF .text	0000005c _ZN11FtpResource7OnReadyEP11FtpDataPipe
002dffe0  w   DO .data.rel.ro	00000014 _ZTV21FtpResourceOnPipeOpen
000ef480 g    DF .text	00000008 _ZThn260_N11FtpResource7OnReadyEP11FtpDataPipe
000ef488 g    DF .text	000000f8 _ZN11FtpResource10OnRecvDataEP11FtpDataPipePcP5range
00172844 g    DF .text	0000005c _ZN16speed_calculator9add_bytesEj
002e0028  w   DO .data.rel.ro	00000014 _ZTV21FtpDataPipeOnRecvData
000ef580 g    DF .text	00000008 _ZThn260_N11FtpResource10OnRecvDataEP11FtpDataPipePcP5range
000ef588 g    DF .text	000000c8 _ZN11FtpResource15OnAllDataRecvedEP11FtpDataPipeRK5rangeb
002dfff8  w   DO .data.rel.ro	00000014 _ZTV30FtpResourceOnFirstPipeResponse
000ef650 g    DF .text	00000008 _ZThn260_N11FtpResource15OnAllDataRecvedEP11FtpDataPipeRK5rangeb
000ef658 g    DF .text	0000008c _ZN11FtpResource7OnErrorEP11FtpDataPipei
002e0040  w   DO .data.rel.ro	00000014 _ZTV23FtpResourceOnErrorEvent
000ef6e4 g    DF .text	00000008 _ZThn260_N11FtpResource7OnErrorEP11FtpDataPipei
000ef6ec g    DF .text	00000070 _ZN11FtpResource18OnResourceNotExistEP11FtpDataPipe
002e0058  w   DO .data.rel.ro	00000014 _ZTV23FtpResourceFileNotExist
000ef75c g    DF .text	00000008 _ZThn260_N11FtpResource18OnResourceNotExistEP11FtpDataPipe
000ef764 g    DF .text	00000140 _ZN11FtpResource17OnPipeGetFileSizeEP11FtpDataPipey
000ef8a4 g    DF .text	00000008 _ZThn260_N11FtpResource17OnPipeGetFileSizeEP11FtpDataPipey
002dff30  w   DO .data.rel.ro	00000008 _ZTI25IFtpDataPipeEventListener
00297c54  w   DO .rodata	0000001c _ZTS25IFtpDataPipeEventListener
00297d88 g    DO .rodata	0000000e _ZTS11FtpResource
002e007c g    DO .data.rel.ro	00000028 _ZTI11FtpResource
002dff38  w   DO .data.rel.ro	0000000c _ZTI23FtpResourceOnCreatePipe
00297c70  w   DO .rodata	0000001a _ZTS23FtpResourceOnCreatePipe
002dff44  w   DO .data.rel.ro	0000000c _ZTI21FtpResourceOnPipeOpen
00297c8c  w   DO .rodata	00000018 _ZTS21FtpResourceOnPipeOpen
002dff50  w   DO .data.rel.ro	0000000c _ZTI30FtpResourceOnFirstPipeResponse
00297ca4  w   DO .rodata	00000021 _ZTS30FtpResourceOnFirstPipeResponse
002dff5c  w   DO .data.rel.ro	0000000c _ZTI21FtpResourceOnRecvData
00297cc8  w   DO .rodata	00000018 _ZTS21FtpResourceOnRecvData
002dff68  w   DO .data.rel.ro	0000000c _ZTI21FtpDataPipeOnRecvData
00297ce0  w   DO .rodata	00000018 _ZTS21FtpDataPipeOnRecvData
002dff74  w   DO .data.rel.ro	0000000c _ZTI23FtpResourceOnErrorEvent
00297cf8  w   DO .rodata	0000001a _ZTS23FtpResourceOnErrorEvent
002dff80  w   DO .data.rel.ro	0000000c _ZTI23FtpResourceFileNotExist
00297d14  w   DO .rodata	0000001a _ZTS23FtpResourceFileNotExist
002dff90  w   DO .data.rel.ro	00000038 _ZTV25IFtpDataPipeEventListener
002e04a8 g    DO .data.rel.ro	00000008 _ZTI16IFtpResourceInfo
000f6988 g    DF .text	00000020 _ZN16IFtpResourceInfo18HasEncodePathToTryEv
000f69c4 g    DF .text	00000038 _ZN16IFtpResourceInfo20GetCurrentEncodePathERSsRs
000f69c0 g    DF .text	00000004 _ZN16IFtpResourceInfo14NotifyEncodeOkEs
000f69a8 g    DF .text	00000018 _ZN16IFtpResourceInfo16NotifyEncodeFailEsi
000efbf8 g    DF .text	00000008 _ZN11P2pResource15GetResourceTypeEv
000efc00 g    DF .text	00000008 _ZN11P2pResource14IsSupportRangeEv
000efc08 g    DF .text	00000020 _ZN11P2pResource15GetTransferInfoEPyS0_
000efc28 g    DF .text	00000024 _ZN11P2pResource8GetSpeedEv
000f02bc  w   DF .text	00000040 _ZN21P2PResourceOutputDataD2Ev
002e01e0  w   DO .data.rel.ro	00000014 _ZTV21P2PResourceOutputData
000f02bc  w   DF .text	00000040 _ZN21P2PResourceOutputDataD1Ev
000f02fc  w   DF .text	00000040 _ZN21P2PResourceOutputData10do_executeEv
000f033c  w   DF .text	0000001c _ZN25P2pNotifyDataPipeRecvData10do_executeEv
000efc4c g    DF .text	00000004 _ZN11P2pResource18OnResourceNotExistEP11P2pDataPipe
000efc50 g    DF .text	00000008 _ZThn208_N11P2pResource18OnResourceNotExistEP11P2pDataPipe
000f0358  w   DF .text	0000001c _ZN20P2pEventOnErrorEvent10do_executeEv
000f0374  w   DF .text	00000018 _ZN21P2pDataPipeOnPipeOpen10do_executeEv
000f038c  w   DF .text	0000001c _ZN27P2pPipeEventOnAllDataRecved10do_executeEv
000f03a8  w   DF .text	00000004 _ZN27P2pPipeEventOnAllDataRecvedD2Ev
000f03a8  w   DF .text	00000004 _ZN27P2pPipeEventOnAllDataRecvedD1Ev
000f03ac  w   DF .text	00000004 _ZN21P2pDataPipeOnPipeOpenD2Ev
000f03ac  w   DF .text	00000004 _ZN21P2pDataPipeOnPipeOpenD1Ev
000f03b0  w   DF .text	00000004 _ZN20P2pEventOnErrorEventD2Ev
000f03b0  w   DF .text	00000004 _ZN20P2pEventOnErrorEventD1Ev
000f03b4  w   DF .text	00000004 _ZN25P2pNotifyDataPipeRecvDataD2Ev
000f03b4  w   DF .text	00000004 _ZN25P2pNotifyDataPipeRecvDataD1Ev
000f03b8  w   DF .text	0000001c _ZN21P2PResourceOutputDataD0Ev
000f03d4  w   DF .text	00000014 _ZN25P2pNotifyDataPipeRecvDataD0Ev
000f03e8  w   DF .text	00000014 _ZN20P2pEventOnErrorEventD0Ev
000f03fc  w   DF .text	00000014 _ZN21P2pDataPipeOnPipeOpenD0Ev
000f0410  w   DF .text	00000014 _ZN27P2pPipeEventOnAllDataRecvedD0Ev
000efc58 g    DF .text	000000dc _ZN11P2pResource17SubCreateDataPipeEPP9IDataPipe15DataPipeContext
00105fbc g    DF .text	000000f8 _ZN11P2pDataPipeC1EP25IP2pDataPipeEventListenerP12P2P_RESOURCEP18IDataMemoryManagerP15IDataMemoryFreeP21IDataManagerWriteData
00130090 g    DF .text	000001c4 _ZN11P2pStatInfo17CreateP2pStatInfoESsj
000efd34 g    DF .text	00000094 _ZN11P2pResource13GetResourceIdEv
000efdc8 g    DF .text	0000002c _ZN11P2pResource20GetCanDownloadRangesER10RangeQueue
000efdf4 g    DF .text	00000018 _ZN11P2pResource22OnGetCanDownloadRangesEP11P2pDataPipeRK10RangeQueue
000efe0c g    DF .text	00000008 _ZThn208_N11P2pResource22OnGetCanDownloadRangesEP11P2pDataPipeRK10RangeQueue
000efe14 g    DF .text	00000048 _ZN11P2pResource17SubDeleteDataPipeEP9IDataPipe
000efe5c g    DF .text	00000110 _ZN11P2pResource10OnRecvDataEP11P2pDataPipePcP5range
002e01f8  w   DO .data.rel.ro	00000014 _ZTV25P2pNotifyDataPipeRecvData
000eff6c g    DF .text	00000008 _ZThn208_N11P2pResource10OnRecvDataEP11P2pDataPipePcP5range
000eff74 g    DF .text	000000c0 _ZN11P2pResourceC2EP18IDataMemoryManagerP21IDataManagerWriteData12P2P_RESOURCEP15IResourceEvents
002e0278 g    DO .data.rel.ro	00000078 _ZTV11P2pResource
000f0424  w   DF .text	00000090 _ZNSt8_Rb_treeIP9IDataPipeSt4pairIKS1_15DataPipeContextESt10_Select1stIS5_ESt4lessIS1_ESaIS5_EE24_M_get_insert_unique_posERS3_
000f04b4  w   DF .text	000001a8 _ZNSt8_Rb_treeIP9IDataPipeSt4pairIKS1_15DataPipeContextESt10_Select1stIS5_ESt4lessIS1_ESaIS5_EE17_M_insert_unique_ESt23_Rb_tree_const_iteratorIS5_ERKS5_
000f065c  w   DF .text	000000a8 _ZNSt3mapIP9IDataPipe15DataPipeContextSt4lessIS1_ESaISt4pairIKS1_S2_EEEixERS6_
000f0098 g    DF .text	0000005c _ZN11P2pResource7OnErrorEP11P2pDataPipei
002e0210  w   DO .data.rel.ro	00000014 _ZTV20P2pEventOnErrorEvent
000f00f4 g    DF .text	00000008 _ZThn208_N11P2pResource7OnErrorEP11P2pDataPipei
000f00fc g    DF .text	00000050 _ZN11P2pResource6OnOpenEP11P2pDataPipe
002e0228  w   DO .data.rel.ro	00000014 _ZTV21P2pDataPipeOnPipeOpen
000f014c g    DF .text	00000008 _ZThn208_N11P2pResource6OnOpenEP11P2pDataPipe
000f0154 g    DF .text	00000064 _ZN11P2pResource15OnAllDataRecvedEP11P2pDataPipeRK5range
002e0240  w   DO .data.rel.ro	00000014 _ZTV27P2pPipeEventOnAllDataRecved
000f01b8 g    DF .text	00000008 _ZThn208_N11P2pResource15OnAllDataRecvedEP11P2pDataPipeRK5range
000f01c0 g    DF .text	000000e0 _ZN11P2pResourceD2Ev
000f01c0 g    DF .text	000000e0 _ZN11P2pResourceD1Ev
000f02a0 g    DF .text	0000001c _ZN11P2pResourceD0Ev
002e0178  w   DO .data.rel.ro	00000008 _ZTI25IP2pDataPipeEventListener
00297d98  w   DO .rodata	0000001c _ZTS25IP2pDataPipeEventListener
00297e38 g    DO .rodata	0000000e _ZTS11P2pResource
002e0180  w   DO .data.rel.ro	0000000c _ZTI21P2PResourceOutputData
00297db4  w   DO .rodata	00000018 _ZTS21P2PResourceOutputData
002e018c  w   DO .data.rel.ro	0000000c _ZTI25P2pNotifyDataPipeRecvData
00297dcc  w   DO .rodata	0000001c _ZTS25P2pNotifyDataPipeRecvData
002e0198  w   DO .data.rel.ro	0000000c _ZTI20P2pEventOnErrorEvent
00297de8  w   DO .rodata	00000017 _ZTS20P2pEventOnErrorEvent
002e01a4  w   DO .data.rel.ro	0000000c _ZTI21P2pDataPipeOnPipeOpen
00297e00  w   DO .rodata	00000018 _ZTS21P2pDataPipeOnPipeOpen
002e01b0  w   DO .data.rel.ro	0000000c _ZTI27P2pPipeEventOnAllDataRecved
00297e18  w   DO .rodata	0000001e _ZTS27P2pPipeEventOnAllDataRecved
002e01c0  w   DO .data.rel.ro	00000020 _ZTV25IP2pDataPipeEventListener
000f0ea8  w   DF .text	0000002c _ZN12HttpResource17GetAvgConnectTimeEv
000f0ed4  w   DF .text	00000048 _ZN26ThunderzResourceOutputData10do_executeEv
000f0f1c  w   DF .text	0000001c _ZN31ThunderzResourceOnAllDataRecved10do_executeEv
000f0704 g    DF .text	0000000c _ZN16ThunderzResource18NotifyGzipCompressEv
000f0710 g    DF .text	00000008 _ZThn312_N16ThunderzResource18NotifyGzipCompressEv
000f0f38  w   DF .text	0000005c _ZN26ThunderzResourceOutputDataD2Ev
002e0308  w   DO .data.rel.ro	00000014 _ZTV26ThunderzResourceOutputData
000f0f38  w   DF .text	0000005c _ZN26ThunderzResourceOutputDataD1Ev
000f0f94  w   DF .text	00000008 _ZN12HttpResource12SetUserAgentERKSs
000f0f9c  w   DF .text	00000008 _ZThn208_N12HttpResource12SetUserAgentERKSs
000f0fa4  w   DF .text	00000010 _ZN12HttpResource12GetUserAgentERSs
000f0fb4  w   DF .text	00000008 _ZThn208_N12HttpResource12GetUserAgentERSs
000f0fbc  w   DF .text	00000014 _ZN12HttpResource11GetPostDataERSs
000f0fd0  w   DF .text	00000008 _ZThn208_N12HttpResource11GetPostDataERSs
000f0fd8  w   DF .text	00000004 _ZN31ThunderzResourceOnAllDataRecvedD2Ev
000f0fd8  w   DF .text	00000004 _ZN31ThunderzResourceOnAllDataRecvedD1Ev
000f0fdc  w   DF .text	00000014 _ZN31ThunderzResourceOnAllDataRecvedD0Ev
000f0ff0  w   DF .text	0000001c _ZN26ThunderzResourceOutputDataD0Ev
000f100c  w   DF .text	00000060 _ZN3UriaSERKS_
000f106c  w   DF .text	00000008 _ZN12HttpResource9SetRefUriERK3Uri
000f1074  w   DF .text	00000008 _ZThn208_N12HttpResource9SetRefUriERK3Uri
000f107c  w   DF .text	00000010 _ZN12HttpResource9GetRefUriER3Uri
000f108c  w   DF .text	00000008 _ZThn208_N12HttpResource9GetRefUriER3Uri
000f1094  w   DF .text	00000010 _ZN12HttpResource14GetRedirectUriER3Uri
000f10a4  w   DF .text	00000008 _ZThn208_N12HttpResource14GetRedirectUriER3Uri
000f10ac  w   DF .text	0000001c _ZN12HttpResource6GetUriER3Uri
000f10c8  w   DF .text	00000008 _ZThn208_N12HttpResource6GetUriER3Uri
000f0718 g    DF .text	0000009c _ZN16ThunderzResourceC2EP18IDataMemoryManagerP21IDataManagerWriteDataRK3UriP15IResourceEventsSs
000fd718 g    DF .text	00000138 _ZN12HttpResourceC2EP18IDataMemoryManagerP21IDataManagerWriteDataRK3UriP15IResourceEvents
000fd850 g    DF .text	00000114 _ZN12HttpResourceD2Ev
002e0348 g    DO .data.rel.ro	0000015c _ZTV16ThunderzResource
000f07b4 g    DF .text	00000084 _ZN16ThunderzResource10DeleteDataEv
000f0838 g    DF .text	0000008c _ZN16ThunderzResourceD2Ev
000f0838 g    DF .text	0000008c _ZN16ThunderzResourceD1Ev
000f08c4 g    DF .text	00000008 _ZThn208_N16ThunderzResourceD1Ev
000f08cc g    DF .text	0000001c _ZN16ThunderzResourceD0Ev
000f08e8 g    DF .text	00000008 _ZThn208_N16ThunderzResourceD0Ev
000f08f0 g    DF .text	000000d4 _ZN16ThunderzResource14MakeTorrenFileEP18IDataMemoryManagerP15IDataMemoryFree
000f09c4 g    DF .text	000003c0 _ZN16ThunderzResource15OnAllDataRecvedEP12HttpDataPipeRK5rangeb
00177b84 g    DF .text	00000190 _ZN4Gzip10UncompressEPcRyPKcy
00170288 g    DF .text	00000044 _ZN8ThunderzC1EPKvj
002e0320  w   DO .data.rel.ro	00000014 _ZTV31ThunderzResourceOnAllDataRecved
000f0d84 g    DF .text	00000008 _ZThn312_N16ThunderzResource15OnAllDataRecvedEP12HttpDataPipeRK5rangeb
000f10d0  w   DF .text	00000120 _ZNSt6vectorIPN16ThunderzResource8DataNodeESaIS2_EE13_M_insert_auxEN9__gnu_cxx17__normal_iteratorIPS2_S4_EERKS2_
000f0d8c g    DF .text	000000b8 _ZN16ThunderzResource10OnRecvDataEP12HttpDataPipePcP5range
000f0e44 g    DF .text	00000008 _ZThn312_N16ThunderzResource10OnRecvDataEP12HttpDataPipePcP5range
000f11f0  w   DF .text	00000030 _ZSt10_ConstructI8KeyValueISsSsES1_EvPT_RKT0_
000f1220  w   DF .text	00000240 _ZNSt6vectorI8KeyValueISsSsESaIS1_EEaSERKS3_
000f1460  w   DF .text	00000008 _ZN12HttpResource21SetHttpHeaderPropertyERSt6vectorI8KeyValueISsSsESaIS2_EE
000f1468  w   DF .text	00000008 _ZThn208_N12HttpResource21SetHttpHeaderPropertyERSt6vectorI8KeyValueISsSsESaIS2_EE
000f1470  w   DF .text	00000010 _ZN12HttpResource21GetHttpHeaderPropertyERSt6vectorI8KeyValueISsSsESaIS2_EE
000f1480  w   DF .text	00000008 _ZThn208_N12HttpResource21GetHttpHeaderPropertyERSt6vectorI8KeyValueISsSsESaIS2_EE
000f0e4c g    DF .text	0000005c _ZN16ThunderzResource17SubCreateDataPipeEPP9IDataPipe15DataPipeContext
000fd36c g    DF .text	000003ac _ZN12HttpResource17SubCreateDataPipeEPP9IDataPipe15DataPipeContext
00297e8c g    DO .rodata	00000013 _ZTS16ThunderzResource
002e0338 g    DO .data.rel.ro	0000000c _ZTI16ThunderzResource
002e02f0  w   DO .data.rel.ro	0000000c _ZTI26ThunderzResourceOutputData
00297e48  w   DO .rodata	0000001d _ZTS26ThunderzResourceOutputData
002e02fc  w   DO .data.rel.ro	0000000c _ZTI31ThunderzResourceOnAllDataRecved
00297e68  w   DO .rodata	00000022 _ZTS31ThunderzResourceOnAllDataRecved
000fcc8c g    DF .text	00000018 _ZN12HttpResource13GetResourceIdEv
000fcb5c g    DF .text	00000008 _ZN12HttpResource15GetResourceTypeEv
000fcb64 g    DF .text	00000014 _ZN12HttpResource16GetResTargetSizeERy
000fcbd4 g    DF .text	00000030 _ZN12HttpResource14IsSupportRangeEv
000fcf10 g    DF .text	00000040 _ZN12HttpResource20GetCanDownloadRangesER10RangeQueue
000fcb78 g    DF .text	00000020 _ZN12HttpResource15GetTransferInfoEPyS0_
000fcc6c g    DF .text	00000008 _ZN12HttpResource9IsStatbleEv
000fcca4 g    DF .text	00000154 _ZN12HttpResource17SubDeleteDataPipeEP9IDataPipe
000fcf08 g    DF .text	00000008 _ZN12HttpResource8GetSpeedEv
000fd990 g    DF .text	0000008c _ZN12HttpResource16OnConnectSuccessEP12HttpDataPipe
000fcea8 g    DF .text	00000058 _ZN12HttpResource16OnConnectFailureEP12HttpDataPipei
000fdd10 g    DF .text	00000228 _ZN12HttpResource10OnRedirectEP12HttpDataPipeRK3Uri
000fcf50 g    DF .text	000000b0 _ZN12HttpResource31OnGetResourceSupportRangeStatusE18RangeSupportStatus
000fdbf8 g    DF .text	00000110 _ZN12HttpResource7OnErrorEP12HttpDataPipei
000fdf40 g    DF .text	000000a4 _ZN12HttpResource18OnResourceNotExistEP12HttpDataPipe
000fcc04 g    DF .text	00000040 _ZN12HttpResource12OnGetCookiesERKSt6vectorI10HttpCookieSaIS1_EE
000fdfec g    DF .text	00000550 _ZN12HttpResource16OnRecvHttpHeaderEP12HttpDataPipeiix5RCPtrI18HttpResponseHeaderE
000fcc4c g    DF .text	00000018 _ZN12HttpResource15OnDnsParseErrorEv
000fcdf8 g    DF .text	000000a8 _ZN12HttpResource15OnConnectTimeMsEy
000fd220 g    DF .text	00000144 _ZN12HttpResource35ReportOriginResourceServerIpAddressERK9SD_IPADDR
000fd180 g    DF .text	00000098 _ZN12HttpResource36ReportOriginResourceConnectFailCountERK9SD_IPADDR
000fd0e0 g    DF .text	00000098 _ZN12HttpResource39ReportOriginResourceConnectSuccessCountERK9SD_IPADDR
000fd040 g    DF .text	00000098 _ZN12HttpResource37ReportOriginResourceConnectTotalCountERK9SD_IPADDR
000fd008 g    DF .text	00000030 _ZN12HttpResource27AbandonResourceExpectOriginEv
000fcb98 g    DF .text	00000018 _ZN12HttpResource23ResetFilesizeByCompressEy
00102410 g    DF .text	00000130 _ZN17IHttpResourceInfo9SetCookieERKSs
00102664 g    DF .text	000000e4 _ZN17IHttpResourceInfo9SetCookieERK10HttpCookie
0010229c g    DF .text	00000138 _ZN17IHttpResourceInfo9GetCookieERK3UriRSs
001021d4 g    DF .text	00000020 _ZN17IHttpResourceInfo18HasEncodePathToTryEv
001021f4 g    DF .text	00000038 _ZN17IHttpResourceInfo20GetCurrentEncodePathERSsRs
001021b8 g    DF .text	00000004 _ZN17IHttpResourceInfo14NotifyEncodeOkEs
001021bc g    DF .text	00000018 _ZN17IHttpResourceInfo16NotifyEncodeFailEsi
000fd364 g    DF .text	00000008 _ZThn296_N12HttpResource35ReportOriginResourceServerIpAddressERK9SD_IPADDR
000fd218 g    DF .text	00000008 _ZThn296_N12HttpResource36ReportOriginResourceConnectFailCountERK9SD_IPADDR
000fd178 g    DF .text	00000008 _ZThn296_N12HttpResource39ReportOriginResourceConnectSuccessCountERK9SD_IPADDR
000fd0d8 g    DF .text	00000008 _ZThn296_N12HttpResource37ReportOriginResourceConnectTotalCountERK9SD_IPADDR
000fda1c g    DF .text	00000008 _ZThn312_N12HttpResource16OnConnectSuccessEP12HttpDataPipe
000fcf00 g    DF .text	00000008 _ZThn312_N12HttpResource16OnConnectFailureEP12HttpDataPipei
000fdd08 g    DF .text	00000008 _ZThn312_N12HttpResource7OnErrorEP12HttpDataPipei
000fe53c g    DF .text	00000008 _ZThn312_N12HttpResource16OnRecvHttpHeaderEP12HttpDataPipeiix5RCPtrI18HttpResponseHeaderE
000fcc64 g    DF .text	00000008 _ZThn312_N12HttpResource15OnDnsParseErrorEv
000fcc44 g    DF .text	00000008 _ZThn312_N12HttpResource12OnGetCookiesERKSt6vectorI10HttpCookieSaIS1_EE
000fd000 g    DF .text	00000008 _ZThn312_N12HttpResource31OnGetResourceSupportRangeStatusE18RangeSupportStatus
000fdf38 g    DF .text	00000008 _ZThn312_N12HttpResource10OnRedirectEP12HttpDataPipeRK3Uri
000fdfe4 g    DF .text	00000008 _ZThn312_N12HttpResource18OnResourceNotExistEP12HttpDataPipe
000fcea0 g    DF .text	00000008 _ZThn312_N12HttpResource15OnConnectTimeMsEy
000fd038 g    DF .text	00000008 _ZThn312_N12HttpResource27AbandonResourceExpectOriginEv
000fcbb0 g    DF .text	00000008 _ZThn312_N12HttpResource23ResetFilesizeByCompressEy
000f1488 g    DF .text	00000004 _ZN17http_content_typeC2Ev
000f1488 g    DF .text	00000004 _ZN17http_content_typeC1Ev
000f148c g    DF .text	00000004 _ZN17http_content_typeD2Ev
000f148c g    DF .text	00000004 _ZN17http_content_typeD1Ev
000f6548  w   DF .text	0000004c _ZNSt8_Rb_treeISsSt4pairIKSsSsESt10_Select1stIS2_ESt4lessISsESaIS2_EE8_M_eraseEPSt13_Rb_tree_nodeIS2_E
000f6594  w   DF .text	00000018 _ZNSt3mapISsSsSt4lessISsESaISt4pairIKSsSsEEED2Ev
000f6594  w   DF .text	00000018 _ZNSt3mapISsSsSt4lessISsESaISt4pairIKSsSsEEED1Ev
000f65ac  w   DF .text	00000068 _ZNSt8_Rb_treeISsSt4pairIKSsSsESt10_Select1stIS2_ESt4lessISsESaIS2_EE4findERS1_
000f6614  w   DF .text	000000a0 _ZNSt8_Rb_treeISsSt4pairIKSsSsESt10_Select1stIS2_ESt4lessISsESaIS2_EE24_M_get_insert_unique_posERS1_
000f66b4  w   DF .text	000001d8 _ZNSt8_Rb_treeISsSt4pairIKSsSsESt10_Select1stIS2_ESt4lessISsESaIS2_EE17_M_insert_unique_ESt23_Rb_tree_const_iteratorIS2_ERKS2_
000f688c  w   DF .text	000000fc _ZNSt3mapISsSsSt4lessISsESaISt4pairIKSsSsEEEixERS3_
000f1490 g    DF .text	000020bc _ZN17http_content_type15init_file_typesEv
002f04e8 g    DO .bss	00000018 _ZN17http_content_type11_file_typesE
000f354c g    DF .text	00000088 _ZN17http_content_type13get_file_typeERKSs
000f35d4 g    DF .text	00002e64 _ZN17http_content_type18init_content_typesEv
002f0500 g    DO .bss	00000018 _ZN17http_content_type14_content_typesE
000f69fc g    DF .text	0000003c _ZN16IFtpResourceInfo15ClearPathEncodeEv
000f6a38 g    DF .text	00000078 _ZN16IFtpResourceInfo14InitPathEncodeERKSs
000f6ab0 g    DF .text	0000014c _ZN16IFtpResourceInfoC1ERK3Uri
00297ea0 g    DO .rodata	00000013 _ZTS16IFtpResourceInfo
000f6bfc g    DF .text	000000dc _ZN13P2pUploadPipeC2Ev
0012fcd4 g    DF .text	00000010 _ZN11P2pStatInfo22IncreasePassivePipeNumEv
002e0500 g    DO .data.rel.ro	0000000c _ZTV13P2pUploadPipe
002f0530 g    DO .bss	00000008 _ZN9IDataPipe15ms_ullPipeTotalE
000f6bfc g    DF .text	000000dc _ZN13P2pUploadPipeC1Ev
000f6cd8 g    DF .text	0000003c _ZN13P2pUploadPipe13BuildResourceEPKcS1_y
000f6d14 g    DF .text	00000064 _ZN13P2pUploadPipe15NoitfyConnectedEv
000fba34 g    DF .text	00000044 _Z29VodNewP2pPipe_free_cmd_bufferP17VOD_P2P_DATA_PIPE
0011f868 g    DF .text	00000058 TcpConnectionNew_connect_callback
00123a58 g    DF .text	00000064 UdtConnectionNew_connect_callback
000f6d78 g    DF .text	0000004c _ZN13P2pUploadPipe17GetUploadAvgSpeedEv
000f6dc4 g    DF .text	00000050 _ZN13P2pUploadPipe10StartTimerEv
000f7610 g    DF .text	00000004 _ZN13P2pUploadPipe13HandleTimeOutEPvS0_
000f6e14 g    DF .text	0000003c _ZN13P2pUploadPipe11CancelTimerEv
000fc130 g    DF .text	00000064 _Z21VodNewP2pPipe_destoryP17VOD_P2P_DATA_PIPE
000f6f98 g    DF .text	000000e4 _ZN13P2pUploadPipe13RecvHandShakeEv
000fb704 g    DF .text	0000004c _Z30VodNewP2pPipe_alloc_cmd_bufferP17VOD_P2P_DATA_PIPEi
0011fba0 g    DF .text	0000002c P2pConnectionNew_recv
000f707c g    DF .text	00000098 _ZN13P2pUploadPipe16CreateWithSocketEP16VOD_SOCKET_PROXY
000fb224 g    DF .text	0000021c _Z20VodNewP2pPipe_createyP7ev_loopP12P2P_RESOURCEPFiPvP13VOD_DATA_PIPEiiiEPFiS3_S5_P9VOD_RANGEiiS3_ES3_b16P2P_CONNECT_TYPE
00120ee0 g    DF .text	00000018 VodNewSocketProxy_tcp_set_callback
000f71bc g    DF .text	0000003c _ZN13P2pUploadPipe18HandleStateChangedEPvP13VOD_DATA_PIPEiii
0011f848 g    DF .text	00000010 TcpConnectionNew_send_callback
0011f858 g    DF .text	00000010 TcpConnectionNew_recv_callback
000f7114 g    DF .text	000000a8 _ZN13P2pUploadPipe16CreateWithDeviceEP17tagVOD_UDT_DEVICE
0011f018 g    DF .text	0000002c VodNewUdtInterface_set_device_args
00123a48 g    DF .text	00000010 UdtConnectionNew_recv_callback
00123a38 g    DF .text	00000010 UdtConnectionNew_send_callback
0012fd64 g    DF .text	00000010 _ZN11P2pStatInfo26IncreaseUploadPipeCloseNumEv
000f71f8 g    DF .text	00000050 _ZN13P2pUploadPipeD2Ev
000f71f8 g    DF .text	00000050 _ZN13P2pUploadPipeD1Ev
000f77d4  w   DF .text	00000120 _ZNSt6vectorIP16P2P_UPLOAD_BLOCKSaIS1_EE13_M_insert_auxEN9__gnu_cxx17__normal_iteratorIPS1_S3_EERKS1_
000f78f4  w   DF .text	00000048 _ZNSt6vectorIP16P2P_UPLOAD_BLOCKSaIS1_EE8_M_eraseEN9__gnu_cxx17__normal_iteratorIPS1_S3_EE
000f7248 g    DF .text	000002c4 _ZN13P2pUploadPipe18ProcessUploadQueueEv
0014f3e0 g    DF .text	0000008c _ZN12SpeedLimitor19GetUploadSpeedCacheEv
000ff7ec g    DF .text	00000090 VodNewP2pCmdHandler_send_request_resp
0014f46c g    DF .text	0000002c _ZN12SpeedLimitor17UpdateUploadCacheEx
000f750c g    DF .text	000000e8 _ZN13P2pUploadPipe19HandleUploadRequestEyyj
000f75f4 g    DF .text	0000001c _ZN13P2pUploadPipe21HandleTimeOutInternalEv
000f7614 g    DF .text	000001c0 _ZN13P2pUploadPipe9OnGetDataEi5rangePKc
002e04d8  w   DO .data.rel.ro	00000008 _ZTI15GetDataListener
00297eb4  w   DO .rodata	00000012 _ZTS15GetDataListener
00297ec8 g    DO .rodata	00000010 _ZTS13P2pUploadPipe
002e04f0 g    DO .data.rel.ro	0000000c _ZTI13P2pUploadPipe
002e04e0  w   DO .data.rel.ro	0000000c _ZTV15GetDataListener
000f793c g    DF .text	00000030 _ZN3UriC2Ev
000f796c g    DF .text	00000088 _ZN3Uri14trim_pre_spaceERSs
000f7a38 g    DF .text	00000070 _ZN3Uri12get_file_posERKSs
000f7aa8 g    DF .text	00000070 _ZNK3Uri4pathEv
000f7ba8 g    DF .text	0000001c _ZN3Uri8null_urlEv
000f7bc4 g    DF .text	0000005c _ZNK3Uri14file_name_partEv
000f7c20 g    DF .text	00000018 _ZN3Uri8is_alphaEc
000f7c38 g    DF .text	00000014 _ZN3Uri8is_digitEc
000f7c4c g    DF .text	00000108 _ZNK3Uri10get_parentEv
000f7df4 g    DF .text	0000002c _ZN3Uri16default_port_forE11SCHEMA_TYPE
000f7e20 g    DF .text	00000030 _ZN3Uri13IsPortDefaultEj11SCHEMA_TYPE
000f7e80 g    DF .text	0000006c _ZN3Uri11need_escapeEc
000f7eec g    DF .text	00000038 _ZN3Uri11is_reservedEc
000f8e48  w   DF .text	00000014 _ZSteqIcSt11char_traitsIcESaIcEEbRKSbIT_T0_T1_EPKS3_
000f7f24 g    DF .text	000001c8 _ZN3Uri15schema_type_forERKSs
000f80ec g    DF .text	00000004 _ZNK3Uri11schema_typeEv
000f80f0 g    DF .text	00000010 _ZNK3Uri12default_portEv
00168f98 g    DF .text	00000058 _ZN19BasicTypeConversion8Long2StrEl
000f8214 g    DF .text	00000230 _Z19is_class_top_domainRKSs
000f8444 g    DF .text	000001b8 _ZNK3Uri6domainEv
00169104 g    DF .text	00000008 _ZN19BasicTypeConversion8Str2LongERKSs
00000000      DO *UND*	00000000 _ZTISt9exception
000f8b98 g    DF .text	00000234 _ZN3Uri10RedirectToERKS_RKSsRS_
000f8dcc g    DF .text	0000007c _ZeqRK3UriS1_
000f94e8  w   DF .text	00000060 _ZN9SD_IPADDReqERKS_
000f9548  w   DF .text	00000050 _ZN9SD_IPADDR6_resetEv
000f8e5c g    DF .text	00000058 _ZN18ResourceDnsAdapter10StartTimerEjNS_19DnsParseTimeOutTypeE
000f9190 g    DF .text	00000070 _ZN18ResourceDnsAdapter13HandleTimeOutEPvS0_
000f8eb4 g    DF .text	00000088 _ZN18ResourceDnsAdapter11DoDnsParserEv
00153748 g    DF .text	0000004c _Z22xl_parse_dns_with_typePKcPFviPvPKvES1_Pyj
000f9258 g    DF .text	0000003c _ZN18ResourceDnsAdapter6HandleEiPvPKv
000f8f3c g    DF .text	0000013c _ZN18ResourceDnsAdapter14QueryIpAddressEP18IDnsParserListener
000f9078 g    DF .text	0000003c _ZN18ResourceDnsAdapter11CancelTimerEv
001529d0 g    DF .text	00000030 _Z11xl_dns_votePKcRK9SD_IPADDRb
000f9598  w   DF .text	00000038 _ZNSt8_Rb_treeIP18IDnsParserListenerS1_St9_IdentityIS1_ESt4lessIS1_ESaIS1_EE8_M_eraseEPSt13_Rb_tree_nodeIS1_E
000f9124 g    DF .text	0000006c _ZN18ResourceDnsAdapter19NotifyDnsParseFinshEiRK9SD_IPADDR
000f9200 g    DF .text	00000058 _ZN18ResourceDnsAdapter22HandleDnsParseResponseEiPK21TAG_DNS_RESPONSE_DATA
000f9294 g    DF .text	000000dc _ZN18ResourceDnsAdapter18OnResourceRedirectERKSs
0016e82c g    DF .text	00000124 _Z27sd_try_convert_host2addressRKSsR9SD_IPADDR
000f9370 g    DF .text	0000008c _ZN18ResourceDnsAdapterC2ERKSsb
000f93fc g    DF .text	00000078 _ZN18ResourceDnsAdapterD2Ev
000f95d0  w   DF .text	00000058 _ZNSt8_Rb_treeIP18IDnsParserListenerS1_St9_IdentityIS1_ESt4lessIS1_ESaIS1_EE4findERKS1_
000f9474 g    DF .text	00000044 _ZN18ResourceDnsAdapter6DetachEP18IDnsParserListener
000f94b8 g    DF .text	00000030 _ZN18ResourceDnsAdapter10IsListenedEP18IDnsParserListener
000f9628 g    DF .text	000000bc _ZN12MetadataPipe4initEP14IMetaPipeEventPKhy
000f96e4 g    DF .text	00000058 _ZN12MetadataPipeC2EP14IMetaPipeEventPKhy
00151930 g    DF .text	00000004 _Z9xl_socketiiiPjj
00151cd8 g    DF .text	00000048 _Z16xl_asyn_connect1jRK9SD_IPADDRtPFviPvPKvES2_Py
000fa940 g    DF .text	00000028 _ZN12MetadataPipe17sHandleNetConnectEiPvPKv
00151888 g    DF .text	000000a4 _Z17xl_cancel_net_msgy
000f98d0 g    DF .text	00000084 _ZN12MetadataPipeD2Ev
00151938 g    DF .text	00000004 _Z8xl_closej
000f9974 g    DF .text	00000078 _ZN12MetadataPipeC2EP14IMetaPipeEventPKhjt
000f9974 g    DF .text	00000078 _ZN12MetadataPipeC1EP14IMetaPipeEventPKhjt
000f99ec g    DF .text	000001cc _ZN12MetadataPipe30BuildXtProtocolExtendHandShakeEv
0016bddc g    DF .text	00000024 bencode_create_m
0016be2c g    DF .text	00000020 bencode_create_b
0016be00 g    DF .text	0000002c bencode_create_i
0016b7c0 g    DF .text	00000018 bencode_make_brother
0016bed8 g    DF .text	0000004c bencode_make_child
0016c008 g    DF .text	00000054 bencode_encode
0016b878 g    DF .text	00000028 bencode_free_node_solo
0016d608 g    DF .text	00000008 sd_htonl
000f9bb8 g    DF .text	00000138 _ZN12MetadataPipe22BuildXtMetadataRequestEhi
000f9cf0 g    DF .text	00000024 _ZN12MetadataPipe11DoErrorStopEi
000f9d14 g    DF .text	0000005c _ZN12MetadataPipe7SendOutEv
0015193c g    DF .text	00000174 _Z12xl_asyn_sendjPKcjPFviPvPKvES1_Py
000f9e68 g    DF .text	0000004c _ZN12MetadataPipe14sHandleNetSendEiPvPKv
000f9d70 g    DF .text	00000064 _ZN12MetadataPipe6DoRecvEv
00151ab0 g    DF .text	0000016c _Z12xl_asyn_recvjPcjPFviPvPKvES0_Pyj
000fa678 g    DF .text	0000004c _ZN12MetadataPipe14sHandleNetRecvEiPvPKv
000f9dd4 g    DF .text	00000094 _ZN12MetadataPipe13handleNetSendEiP22TAG_NET_SEND_RESP_DATA
000f9eb4 g    DF .text	00000154 _ZN12MetadataPipe23HandleHandShakeXtExtendEPKci
0016d61c g    DF .text	00000008 sd_ntohl
0016bc30 g    DF .text	00000038 bencode_decode
0016c05c g    DF .text	00000094 bencode_find_value
0016b7d8 g    DF .text	00000048 bencode_free_node_tree
000fa008 g    DF .text	00000314 _ZN12MetadataPipe15HandleMetaReplyEPKci
000fa31c g    DF .text	00000180 _ZN12MetadataPipe17HandleHandShakeXTEPKci
00167974 g    DF .text	0000005c _ZN10CheckConst6getBltEv
001678d4 g    DF .text	00000044 _ZN10CheckConst11getthunderZEv
000fa49c g    DF .text	00000050 _ZN12MetadataPipe12OnRecvPacketEPKci
000fa4ec g    DF .text	0000018c _ZN12MetadataPipe13handleNetRecvEiP22TAG_NET_RECV_RESP_DATA
000fa6c4 g    DF .text	000000e0 _ZN12MetadataPipe11SetXtPeerIDEPc
000fa7a4 g    DF .text	00000160 _ZN12MetadataPipe24BuildXtProtocolHandShakeEv
000fa904 g    DF .text	0000003c _ZN12MetadataPipe16handleNetConnectEi
00169164 g    DF .text	00000034 _ZN19BasicTypeConversion14IsHexCharVaildEc
000fa9e8 g    DF .text	00000124 _ZN3url13UrlEncodeArgsERKSs
00169294 g    DF .text	0000009c _ZN19BasicTypeConversion9CharToHexEh
00169354 g    DF .text	0000003c _ZN19BasicTypeConversion9HexToCharEPcS0_
000fac10 g    DF .text	00000064 _ZN3url16IsCharNeedEncodeEc
000fac74 g    DF .text	000000dc _ZN3url9UrlEncodeERKSs
000fad50 g    DF .text	000000f0 _ZN3url20DefaultPortForSchemeEPKci
00000000      DF *UND*	00000000 strncmp
000fae40 g    DF .text	00000014 _Z12ToLowerASCIIc
000fae54 g    DF .text	00000060 _ZN3url20LowerCaseEqualsASCIIEPKcS1_S1_
000faeb4 g    DF .text	00000058 _ZN3url20LowerCaseEqualsASCIIEPKcS1_S1_S1_
000faf0c g    DF .text	00000094 _ZN3url13GetPathParentERKSs
000fafa0 g    DF .text	00000284 _ZN3url16GetFileNameByUrlERKSsRSs
001221b4 g    DF .text	00000170 P2pTransferLayerNew_create_upload_p2p_connection
001220e8 g    DF .text	000000cc P2pTransferLayerNew_create_download_p2p_connection
000fc4a0 g    DF .text	0000004c VodNewP2pSendingQueue_create
00107948 g    DF .text	00000020 P2pPipeSpeedEstimater_reset
001599ec g    DF .text	00000038 vt_async_msg_new_queue_init
000fb750 g    DF .text	000002d8 _Z37VodNewP2pPipe_socket_connect_callbackiPvS_
000fb61c g    DF .text	000000e8 _Z34VodNewP2pPipe_socket_send_callbackiPvS_
000fc404 g    DF .text	0000009c _Z34VodNewP2pPipe_socket_recv_callbackiPvS_
002f052c g    DO .bss	00000004 g_p2p_pipe_count_4_ml
000fb440 g    DF .text	00000018 _Z26VodNewP2pPipe_is_connectedP17VOD_P2P_DATA_PIPE
000fb458 g    DF .text	00000008 _Z34VodNewP2pPipe_is_can_retry_connectP17VOD_P2P_DATA_PIPE
000fb460 g    DF .text	00000008 _Z30VodNewP2pPipe_get_assign_rangeP17VOD_P2P_DATA_PIPE
000fb468 g    DF .text	00000054 _Z35VodNewP2pPipe_cancel_assigned_rangeP17VOD_P2P_DATA_PIPE
000ff4fc g    DF .text	00000030 VodNewP2pCmdHandler_send_cancel
000fb4bc g    DF .text	00000030 _Z36VodNewP2pPipe_is_in_can_assign_stateP17VOD_P2P_DATA_PIPE
000fb4ec g    DF .text	00000008 _Z29VodNewP2pPipe_get_ranges_listP17VOD_P2P_DATA_PIPE
000fb4f4 g    DF .text	00000008 _Z29VodNewP2pPipe_get_data_bufferP17VOD_P2P_DATA_PIPE
000fb4fc g    DF .text	00000008 _Z26VodNewP2pPipe_get_data_lenP17VOD_P2P_DATA_PIPE
000fb504 g    DF .text	00000014 _Z32VodNewP2pPipe_curren_recv_offsetP17VOD_P2P_DATA_PIPE
000fb518 g    DF .text	0000006c _Z38VodNewP2pPipe_renotify_download_resultP17VOD_P2P_DATA_PIPE
000fb584 g    DF .text	00000054 _Z36VodNewP2pPipe_change_state_with_codeP17VOD_P2P_DATA_PIPE14P2P_PIPE_STATEj
000fb5d8 g    DF .text	00000008 _Z26VodNewP2pPipe_change_stateP17VOD_P2P_DATA_PIPE14P2P_PIPE_STATE
000fb5e0 g    DF .text	0000003c _Z18VodNewP2pPipe_openP17VOD_P2P_DATA_PIPEj
0011fb00 g    DF .text	00000028 P2pConnectionNew_connect
0012fbf4 g    DF .text	00000010 _ZN11P2pStatInfo27IncreaseFailSendCallbackNumEv
000fc608 g    DF .text	0000006c VodNewP2pSendingQueue_free_msg
000fc4ec g    DF .text	00000090 VodNewP2pSendingQueue_pop
0011fb64 g    DF .text	0000002c P2pConnectionNew_send
0012fc04 g    DF .text	00000010 _ZN11P2pStatInfo23IncreaseFailSendNextNumEv
0012fbd4 g    DF .text	00000010 _ZN11P2pStatInfo26IncreaseFailAllocCmdbufNumEv
00170fd8 g    DF .text	00000008 _Z32P2pCapability_is_support_extdataj
000ffa28 g    DF .text	000000ac VodNewP2pCmdHandler_send_hanshake_resp
0012fd04 g    DF .text	00000010 _ZN11P2pStatInfo38IncreasePassiveTcpFailHandshakeRespNumEv
0012fd14 g    DF .text	00000010 _ZN11P2pStatInfo38IncreasePassiveUdpFailHandshakeRespNumEv
0012fbb4 g    DF .text	00000010 _ZN11P2pStatInfo24IncreaseSendHandShakeNumEv
000ff87c g    DF .text	000001ac VodNewP2pCmdHandler_send_hanshake
0012fbe4 g    DF .text	00000010 _ZN11P2pStatInfo28IncreaseFailSendHandshakeNumEv
0012faec g    DF .text	00000010 _ZN11P2pStatInfo25IncreaseSendP2pAccCertNumEv
000ff6e8 g    DF .text	00000090 VodNewP2pCmdHandler_send_p2p_acc_cert
002f0524 g    DO .bss	00000004 g_max_recv_cmd_buffer_len
000fba28 g    DF .text	0000000c _Z30VodNewP2pPipe_reset_cmd_bufferP17VOD_P2P_DATA_PIPE
000fba78 g    DF .text	00000018 _Z31VodNewP2pPipe_reset_data_bufferP17VOD_P2P_DATA_PIPE
000fba90 g    DF .text	00000048 _Z30VodNewP2pPipe_free_data_bufferP17VOD_P2P_DATA_PIPE
000fbad8 g    DF .text	00000078 _Z31VodNewP2pPipe_alloc_data_bufferP17VOD_P2P_DATA_PIPEi
000fbb50 g    DF .text	0000010c _Z26VodNewP2pPipe_assign_rangeP17VOD_P2P_DATA_PIPEP9VOD_RANGEPv
000ff224 g    DF .text	00000158 VodNewP2pCmdHandler_request_data
002f0528 g    DO .bss	00000004 g_p2p_data_buffer_len
000fbc5c g    DF .text	000000fc _Z29VodNewP2pPipe_handle_recv_cmdP17VOD_P2P_DATA_PIPEhPcj
000fef1c g    DF .text	000000cc VodNewP2pCmdHandler_recv_hanshake
000ff044 g    DF .text	000000b0 VodNewP2pCmdHandler_recv_hanshake_resp
000ffad4 g    DF .text	0000021c VodNewP2pCmdHandler_recv_interested
000ff0f4 g    DF .text	00000130 VodNewP2pCmdHandler_recv_interested_resp
000ff778 g    DF .text	00000074 VodNewP2pCmdHandler_recv_request
000ff37c g    DF .text	00000180 VodNewP2pCmdHandler_recv_request_resp
000ff52c g    DF .text	00000044 VodNewP2pCmdHandler_recv_cancel_resp
000ff570 g    DF .text	00000030 VodNewP2pCmdHandler_recv_choke
000ff5a0 g    DF .text	00000070 VodNewP2pCmdHandler_recv_unchoke
000ff610 g    DF .text	00000030 VodNewP2pCmdHandler_recv_fin
000ff6c4 g    DF .text	00000024 VodNewP2pCmdHandler_recv_extra_data_resp
000fbd58 g    DF .text	00000284 _Z22VodNewP2pPipe_recv_cmdP17VOD_P2P_DATA_PIPEi
0015cf58 g    DF .text	00000084 VodNewByteBuffer_get_int32_from_lt
0015d05c g    DF .text	00000034 VodNewByteBuffer_get_int8
0012fc24 g    DF .text	00000010 _ZN11P2pStatInfo29IncreaseFailRecvCmdLen2bigNumEv
0012fc64 g    DF .text	00000010 _ZN11P2pStatInfo22IncreaseFailRecvCmdNumEv
0012fc34 g    DF .text	00000010 _ZN11P2pStatInfo31IncreaseFailRecvCmdLen2smallNumEv
0012fc44 g    DF .text	00000010 _ZN11P2pStatInfo23IncreaseFailRecvNextNumEv
002f0520 g    DO .bss	00000004 g_p2p_cmd_max_len
000fbfdc g    DF .text	0000004c _Z18VodNewP2pPipe_sendP17VOD_P2P_DATA_PIPEP19VOD_P2P_SENDING_MSG
0010799c g    DF .text	00000034 P2pPipeSpeedEstimater_statistic_start
000fc6b0 g    DF .text	00000198 VodNewP2pSendingQueue_push
000fc028 g    DF .text	00000060 _Z44VodNewP2pPipe_clear_can_download_ranges_listP17VOD_P2P_DATA_PIPE
000fc088 g    DF .text	000000a8 _Z19VodNewP2pPipe_closeP17VOD_P2P_DATA_PIPE
0011fc24 g    DF .text	0000002c P2pConnectionNew_close
00159a24 g    DF .text	0000008c vt_async_msg_new_queue_uninit
000fc848 g    DF .text	00000068 VodNewP2pSendingQueue_close
000fc194 g    DF .text	00000008 _Z36VodNewP2pPipe_add_can_download_rangeP17VOD_P2P_DATA_PIPEP9VOD_RANGE
000fc19c g    DF .text	00000028 _Z26VodNewP2pPipe_handle_closePv
000fc1c4 g    DF .text	00000064 _Z36VodNewP2pPipe_support_range_downloadP17VOD_P2P_DATA_PIPEP9VOD_RANGE
000fc228 g    DF .text	00000008 _Z23VodNewP2pPipe_get_speedP17VOD_P2P_DATA_PIPE
00107968 g    DF .text	00000034 P2pPipeSpeedEstimater_get_speed
000fc230 g    DF .text	00000074 _Z32VodNewP2pPipe_continue_recv_dataP17VOD_P2P_DATA_PIPE
000fc2a4 g    DF .text	000000c8 _Z30VodNewP2pPipe_handle_recv_dataP17VOD_P2P_DATA_PIPE
000fc36c g    DF .text	0000000c _Z31VodNewP2pPipe_recv_discard_dataP17VOD_P2P_DATA_PIPEi
000fc378 g    DF .text	0000008c _Z23VodNewP2pPipe_recv_dataP17VOD_P2P_DATA_PIPEi
001079d0 g    DF .text	000000a0 P2pPipeSpeedEstimater_statistic_add
0012fc14 g    DF .text	00000010 _ZN11P2pStatInfo27IncreaseFailRecvCallbackNumEv
000fc57c g    DF .text	0000008c VodNewP2pSendingQueue_alloc_msg
000fc674 g    DF .text	0000003c VodNewP2pSendingQueue_clear
000fc8b0 g    DF .text	00000008 _ZNK9IDataPipe16IsCanAllocBufferEv
000fc8b8 g    DF .text	00000024 _ZN9IDataPipe4OpenEv
000fc8dc g    DF .text	0000003c _ZN9IDataPipe19GetCanDownloadRangeEv
000fc928 g    DF .text	00000008 _ZN9IDataPipe14GetCreatedTimeEv
000fc938 g    DF .text	00000018 _ZNK9IDataPipe13GetResourceIdEv
000fc970 g    DF .text	00000018 _ZN9IDataPipe8GetSpeedEv
000fc9e8 g    DF .text	000000fc _ZN9IDataPipeC2EP18IDataMemoryManagerP15IDataMemoryFreeP21IDataManagerWriteData
002e0518 g    DO .data.rel.ro	0000004c _ZTV9IDataPipe
000fc9e8 g    DF .text	000000fc _ZN9IDataPipeC1EP18IDataMemoryManagerP15IDataMemoryFreeP21IDataManagerWriteData
000fcae4 g    DF .text	0000005c _ZN9IDataPipeD2Ev
000fcae4 g    DF .text	0000005c _ZN9IDataPipeD1Ev
000fcb40 g    DF .text	0000001c _ZN9IDataPipeD0Ev
00297f04 g    DO .rodata	0000000b _ZTS9IDataPipe
002e0510 g    DO .data.rel.ro	00000008 _ZTI9IDataPipe
000fe544  w   DF .text	00000004 _ZN26IHttpDataPipeEventListener18NotifyGzipCompressEv
000fe548  w   DF .text	00000018 _ZN24HttpResourceOnCreatePipe10do_executeEv
000fe560  w   DF .text	00000018 _ZN22HttpResourceOnPipeOpen10do_executeEv
000fe578  w   DF .text	0000003c _ZN31HttpResourceOnFirstPipeResponse10do_executeEv
000fe5b4  w   DF .text	00000040 _ZN22HttpResourceOutputDataD2Ev
002e0680  w   DO .data.rel.ro	00000014 _ZTV22HttpResourceOutputData
000fe5b4  w   DF .text	00000040 _ZN22HttpResourceOutputDataD1Ev
000fe5f4  w   DF .text	00000040 _ZN22HttpResourceOutputData10do_executeEv
000fe634  w   DF .text	0000001c _ZN26HttpNotifyDataPipeRecvData10do_executeEv
000fe650  w   DF .text	0000001c _ZN24HttpResourceOnErrorEvent10do_executeEv
000fe66c  w   DF .text	00000018 _ZN24HttpResourceFileNotExist10do_executeEv
000fe684  w   DF .text	00000004 _ZN24HttpResourceFileNotExistD2Ev
000fe684  w   DF .text	00000004 _ZN24HttpResourceFileNotExistD1Ev
000fe688  w   DF .text	00000004 _ZN24HttpResourceOnErrorEventD2Ev
000fe688  w   DF .text	00000004 _ZN24HttpResourceOnErrorEventD1Ev
000fe68c  w   DF .text	00000004 _ZN26HttpNotifyDataPipeRecvDataD2Ev
000fe68c  w   DF .text	00000004 _ZN26HttpNotifyDataPipeRecvDataD1Ev
000fe690  w   DF .text	00000004 _ZN31HttpResourceOnFirstPipeResponseD2Ev
000fe690  w   DF .text	00000004 _ZN31HttpResourceOnFirstPipeResponseD1Ev
000fe694  w   DF .text	00000004 _ZN22HttpResourceOnPipeOpenD2Ev
000fe694  w   DF .text	00000004 _ZN22HttpResourceOnPipeOpenD1Ev
000fe698  w   DF .text	00000004 _ZN24HttpResourceOnCreatePipeD2Ev
000fe698  w   DF .text	00000004 _ZN24HttpResourceOnCreatePipeD1Ev
000fe69c  w   DF .text	00000014 _ZN24HttpResourceOnCreatePipeD0Ev
000fe6b0  w   DF .text	00000014 _ZN22HttpResourceOnPipeOpenD0Ev
000fe6c4  w   DF .text	0000001c _ZN22HttpResourceOutputDataD0Ev
000fe6e0  w   DF .text	00000014 _ZN26HttpNotifyDataPipeRecvDataD0Ev
000fe6f4  w   DF .text	00000014 _ZN31HttpResourceOnFirstPipeResponseD0Ev
000fe708  w   DF .text	00000014 _ZN24HttpResourceOnErrorEventD0Ev
000fe71c  w   DF .text	00000014 _ZN24HttpResourceFileNotExistD0Ev
00000000      DF *UND*	00000000 inet_ntop
0010b234 g    DF .text	000001fc _ZN12HttpDataPipeC1EP17IHttpResourceInfoP26IHttpDataPipeEventListenerP18IDataMemoryManagerP15IDataMemoryFreeP21IDataManagerWriteDataP18ResourceDnsAdapter
0010a3a0 g    DF .text	00000008 _ZN12HttpDataPipe23SetOriginResourceReportEP21IOriginResourceReport
0010a380 g    DF .text	00000008 _ZN12HttpDataPipe17SetConnectTimeoutEj
0010a390 g    DF .text	00000008 _ZN12HttpDataPipe17GetConnectTimeoutEv
0010a398 g    DF .text	00000008 _ZN12HttpDataPipe14GetRecvTimeoutEv
0010a388 g    DF .text	00000008 _ZN12HttpDataPipe14SetRecvTimeoutEj
002e0638  w   DO .data.rel.ro	00000014 _ZTV24HttpResourceOnCreatePipe
000fe730  w   DF .text	000000e4 _ZN17IHttpResourceInfoD2Ev
002e0ab8 g    DO .data.rel.ro	00000050 _ZTV17IHttpResourceInfo
000fe730  w   DF .text	000000e4 _ZN17IHttpResourceInfoD1Ev
000fe814  w   DF .text	0000001c _ZN17IHttpResourceInfoD0Ev
001025a4 g    DF .text	000000c0 _ZN17IHttpResourceInfoC2ERK3Uri
002e0738 g    DO .data.rel.ro	00000158 _ZTV12HttpResource
002e05d8  w   DO .data.rel.ro	00000018 _ZTV21IOriginResourceReport
000fd850 g    DF .text	00000114 _ZN12HttpResourceD1Ev
000fd964 g    DF .text	00000008 _ZThn208_N12HttpResourceD1Ev
000fd96c g    DF .text	0000001c _ZN12HttpResourceD0Ev
000fd988 g    DF .text	00000008 _ZThn208_N12HttpResourceD0Ev
002e0650  w   DO .data.rel.ro	00000014 _ZTV22HttpResourceOnPipeOpen
000fda24 g    DF .text	000000f8 _ZN12HttpResource10OnRecvDataEP12HttpDataPipePcP5range
002e0698  w   DO .data.rel.ro	00000014 _ZTV26HttpNotifyDataPipeRecvData
000fdb1c g    DF .text	00000008 _ZThn312_N12HttpResource10OnRecvDataEP12HttpDataPipePcP5range
000fdb24 g    DF .text	000000cc _ZN12HttpResource15OnAllDataRecvedEP12HttpDataPipeRK5rangeb
002e0668  w   DO .data.rel.ro	00000014 _ZTV31HttpResourceOnFirstPipeResponse
000fdbf0 g    DF .text	00000008 _ZThn312_N12HttpResource15OnAllDataRecvedEP12HttpDataPipeRK5rangeb
002e06b0  w   DO .data.rel.ro	00000014 _ZTV24HttpResourceOnErrorEvent
001023d4 g    DF .text	0000003c _ZN17IHttpResourceInfo15ClearPathEncodeEv
00102540 g    DF .text	00000064 _ZN17IHttpResourceInfo14InitPathEncodeERKSs
002e06c8  w   DO .data.rel.ro	00000014 _ZTV24HttpResourceFileNotExist
000fe830  w   DF .text	00000028 _ZN5RCPtrI18HttpResponseHeaderE10AbandonObjEv
000fe858  w   DF .text	0000006c _ZN23HttpResourceOnHeaderGot10do_executeEv
000fe8c4  w   DF .text	00000028 _ZN23HttpResourceOnHeaderGotD2Ev
002e06e0  w   DO .data.rel.ro	00000014 _ZTV23HttpResourceOnHeaderGot
000fe8c4  w   DF .text	00000028 _ZN23HttpResourceOnHeaderGotD1Ev
000fe8ec  w   DF .text	0000001c _ZN23HttpResourceOnHeaderGotD0Ev
001051d8 g    DF .text	0000015c _ZN18HttpResponseHeader12content_typeEv
00103df4 g    DF .text	000000ac _ZN18HttpResponseHeader9to_stringEv
002e0568  w   DO .data.rel.ro	00000008 _ZTI21IOriginResourceReport
00297f10  w   DO .rodata	00000018 _ZTS21IOriginResourceReport
002e0570  w   DO .data.rel.ro	00000008 _ZTI26IHttpDataPipeEventListener
00297f28  w   DO .rodata	0000001d _ZTS26IHttpDataPipeEventListener
00298090 g    DO .rodata	0000000f _ZTS12HttpResource
002e0578  w   DO .data.rel.ro	0000000c _ZTI24HttpResourceOnCreatePipe
00297f48  w   DO .rodata	0000001b _ZTS24HttpResourceOnCreatePipe
002e0584  w   DO .data.rel.ro	0000000c _ZTI22HttpResourceOnPipeOpen
00297f64  w   DO .rodata	00000019 _ZTS22HttpResourceOnPipeOpen
002e0590  w   DO .data.rel.ro	0000000c _ZTI31HttpResourceOnFirstPipeResponse
00297f80  w   DO .rodata	00000022 _ZTS31HttpResourceOnFirstPipeResponse
002e059c  w   DO .data.rel.ro	0000000c _ZTI22HttpResourceOutputData
00297fa4  w   DO .rodata	00000019 _ZTS22HttpResourceOutputData
002e05a8  w   DO .data.rel.ro	0000000c _ZTI26HttpNotifyDataPipeRecvData
00297fc0  w   DO .rodata	0000001d _ZTS26HttpNotifyDataPipeRecvData
002e05b4  w   DO .data.rel.ro	0000000c _ZTI24HttpResourceOnErrorEvent
00297fe0  w   DO .rodata	0000001b _ZTS24HttpResourceOnErrorEvent
002e05c0  w   DO .data.rel.ro	0000000c _ZTI24HttpResourceFileNotExist
00297ffc  w   DO .rodata	0000001b _ZTS24HttpResourceFileNotExist
002e05cc  w   DO .data.rel.ro	0000000c _ZTI23HttpResourceOnHeaderGot
00298018  w   DO .rodata	0000001a _ZTS23HttpResourceOnHeaderGot
002e05f0  w   DO .data.rel.ro	00000044 _ZTV26IHttpDataPipeEventListener
002e0ab0 g    DO .data.rel.ro	00000008 _ZTI17IHttpResourceInfo
000fedd0  w   DF .text	00000008 _ZN12ExtpResource15GetResourceTypeEv
000fedd8  w   DF .text	00000008 _ZN12ExtpResource14IsSupportRangeEv
000fede0  w   DF .text	00000020 _ZN12ExtpResource15GetTransferInfoEPyS0_
000fe908 g    DF .text	0000002c _ZN12ExtpResource17SubDeleteDataPipeEP9IDataPipe
000fee00  w   DF .text	00000040 _ZN22ExtpResourceOutputDataD2Ev
002e08d0  w   DO .data.rel.ro	00000014 _ZTV22ExtpResourceOutputData
000fee00  w   DF .text	00000040 _ZN22ExtpResourceOutputDataD1Ev
000fee40  w   DF .text	00000040 _ZN22ExtpResourceOutputData10do_executeEv
000fee80  w   DF .text	0000001c _ZN26ExtpNotifyDataPipeRecvData10do_executeEv
000fe934 g    DF .text	00000004 _ZN12ExtpResource18OnResourceNotExistEP9IDataPipe
000fe938 g    DF .text	00000008 _ZThn208_N12ExtpResource18OnResourceNotExistEP9IDataPipe
000fee9c  w   DF .text	00000004 _ZN26ExtpNotifyDataPipeRecvDataD2Ev
000fee9c  w   DF .text	00000004 _ZN26ExtpNotifyDataPipeRecvDataD1Ev
000feea0  w   DF .text	0000001c _ZN22ExtpResourceOutputDataD0Ev
000feebc  w   DF .text	00000014 _ZN26ExtpNotifyDataPipeRecvDataD0Ev
000fe940 g    DF .text	00000088 _ZN12ExtpResource17SubCreateDataPipeEPP9IDataPipe15DataPipeContext
00108460 g    DF .text	0000018c _ZN12AgipDataPipeC1EP22IDataPipeEventListenerjtPKcP18IDataMemoryManagerP15IDataMemoryFreeP21IDataManagerWriteData
000fe9c8 g    DF .text	000000b8 _ZN12ExtpResource13GetResourceIdEv
0016d610 g    DF .text	0000000c sd_ntohs
000fea80 g    DF .text	00000018 _ZN12ExtpResource22OnGetCanDownloadRangesEP9IDataPipeRK10RangeQueue
000fea98 g    DF .text	00000008 _ZThn208_N12ExtpResource22OnGetCanDownloadRangesEP9IDataPipeRK10RangeQueue
000feed0  w   DF .text	0000002c _ZN12ExtpResource20GetCanDownloadRangesER10RangeQueue
000feefc  w   DF .text	00000020 _ZN12ExtpResource12GetOriginUrlEv
000feaa0 g    DF .text	00000110 _ZN12ExtpResource10OnRecvDataEP9IDataPipePcP5range
002e08e8  w   DO .data.rel.ro	00000014 _ZTV26ExtpNotifyDataPipeRecvData
000febb0 g    DF .text	00000008 _ZThn208_N12ExtpResource10OnRecvDataEP9IDataPipePcP5range
000febb8 g    DF .text	00000088 _ZN12ExtpResourceC2EP18IDataMemoryManagerP21IDataManagerWriteData13EXTP_RESOURCEP15IResourceEvents
002e0920 g    DO .data.rel.ro	00000078 _ZTV12ExtpResource
000fec40 g    DF .text	00000058 _ZN12ExtpResource7OnErrorEP9IDataPipei
000fec98 g    DF .text	00000008 _ZThn208_N12ExtpResource7OnErrorEP9IDataPipei
000feca0 g    DF .text	00000050 _ZN12ExtpResource6OnOpenEP9IDataPipe
000fecf0 g    DF .text	00000008 _ZThn208_N12ExtpResource6OnOpenEP9IDataPipe
000fecf8 g    DF .text	00000068 _ZN12ExtpResource15OnAllDataRecvedEP9IDataPipeRK5range
000fed60 g    DF .text	00000008 _ZThn208_N12ExtpResource15OnAllDataRecvedEP9IDataPipeRK5range
000fed68 g    DF .text	0000004c _ZN12ExtpResourceD2Ev
000fed68 g    DF .text	0000004c _ZN12ExtpResourceD1Ev
000fedb4 g    DF .text	0000001c _ZN12ExtpResourceD0Ev
002e0890  w   DO .data.rel.ro	00000008 _ZTI22IDataPipeEventListener
002980a0  w   DO .rodata	00000019 _ZTS22IDataPipeEventListener
002980f8 g    DO .rodata	0000000f _ZTS12ExtpResource
002e0900 g    DO .data.rel.ro	00000020 _ZTI12ExtpResource
002e0898  w   DO .data.rel.ro	0000000c _ZTI22ExtpResourceOutputData
002980bc  w   DO .rodata	00000019 _ZTS22ExtpResourceOutputData
002e08a4  w   DO .data.rel.ro	0000000c _ZTI26ExtpNotifyDataPipeRecvData
002980d8  w   DO .rodata	0000001d _ZTS26ExtpNotifyDataPipeRecvData
002e08b0  w   DO .data.rel.ro	00000020 _ZTV22IDataPipeEventListener
0010bb9c g    DF .text	00000268 VodNewP2pCmdExtractor_extract_handshake_cmd
0012fce4 g    DF .text	00000010 _ZN11P2pStatInfo41IncreasePassiveTcpFailExtractHandshakeNumEv
0012fcf4 g    DF .text	00000010 _ZN11P2pStatInfo41IncreasePassiveUdpFailExtractHandshakeNumEv
00170fe0 g    DF .text	00000008 _Z38P2pCapability_is_support_choke_unchokej
0012fb5c g    DF .text	00000010 _ZN11P2pStatInfo29IncreaseSupportUnchokePeerNumEv
00108df4 g    DF .text	00000414 P2pPassive_noitfy_connected
000fefe8 g    DF .text	0000005c VodNewP2pCmdHandler_send_interested
00103314 g    DF .text	000000e0 VodNewP2pCmdBuilder_build_interested_cmd
0012fadc g    DF .text	00000010 _ZN11P2pStatInfo25IncreaseSendInterestedNumEv
0010be04 g    DF .text	000001f4 VodNewP2pCmdExtractor_extract_handshake_resp_cmd
0012fc74 g    DF .text	00000010 _ZN11P2pStatInfo35IncreaseFailExtractHandshakeRespNumEv
0012fa8c g    DF .text	00000028 _ZN11P2pStatInfo31IncreaseSuccessHandShakePeerNumEP26P2P_CONNECTION_STATIC_INFO
0012fbc4 g    DF .text	00000010 _ZN11P2pStatInfo28IncreaseFailHandShakePeerNumEv
00130334 g    DF .text	00000084 _ZN11P2pStatInfo24IncreaseHandShakeErrCodeEh
0010c098 g    DF .text	00000228 VodNewP2pCmdExtractor_extract_interested_resp_cmd
0012fab4 g    DF .text	00000028 _ZN11P2pStatInfo32IncreaseSuccessInterestedPeerNumEP26P2P_CONNECTION_STATIC_INFO
00103764 g    DF .text	00000160 VodNewP2pCmdBuilder_build_request_cmd
0012fafc g    DF .text	00000028 _ZN11P2pStatInfo22IncreaseSendRequestNumEP26P2P_CONNECTION_STATIC_INFO
002f0740 g    DO .bss	00000004 g_p2p_request_package_max_size
0010c414 g    DF .text	000000c0 VodNewP2pCmdExtractor_extract_request_resp_cmd
0012fb24 g    DF .text	00000010 _ZN11P2pStatInfo22IncreaseFailReqRespNumEv
0010363c g    DF .text	00000094 VodNewP2pCmdBuilder_build_cancel_cmd
0010c4d4 g    DF .text	00000050 VodNewP2pCmdExtractor_extract_cancel_resp_cmd
0012fb6c g    DF .text	00000010 _ZN11P2pStatInfo25IncreaseRecvChokedPeerNumEv
0012fb34 g    DF .text	00000028 _ZN11P2pStatInfo30IncreaseSuccessUnchokedPeerNumEP26P2P_CONNECTION_STATIC_INFO
00103ad8 g    DF .text	00000094 VodNewP2pCmdBuilder_build_fin_resp_cmd
000ff640 g    DF .text	00000030 VodNewP2pCmdHandler_send_keepalive
00103a28 g    DF .text	000000b0 VodNewP2pCmdBuilder_build_keepalive_cmd
000ff670 g    DF .text	00000054 VodNewP2pCmdHandler_send_extra_data
00103b6c g    DF .text	000000e4 VodNewP2pCmdBuilder_build_extra_data_cmd
0010c524 g    DF .text	00000084 VodNewP2pCmdExtractor_extract_extra_data_resp_cmd
0010b6a4 g    DF .text	000004f8 _Z17p2p_acc_make_certiiPcPj
0012fd44 g    DF .text	00000010 _ZN11P2pStatInfo22IncreaseRecvRequestNumEv
00170cc8 g    DF .text	00000014 _Z39PeerCapability_get_self_support_new_p2pv
0010c2c0 g    DF .text	00000154 VodNewP2pCmdExtractor_extract_request_cmd
0012fd54 g    DF .text	00000010 _ZN11P2pStatInfo26IncreaseSendRequestRespNumEv
001038c4 g    DF .text	00000164 VodNewP2pCmdBuilder_build_request_resp_cmd
00173170 g    DF .text	00000008 _ZN10GlobalInfo12GetPeeridPtrEv
0016e224 g    DF .text	00000114 sd_get_local_ip
00120c04 g    DF .text	00000014 PtlNewPassiveTcpDirectly_get_local_port
0017302c g    DF .text	00000008 _ZN10GlobalInfo14GetProductFlagEv
00170cb4 g    DF .text	00000014 _Z33PeerCapability_get_self_is_in_natv
00170fb4 g    DF .text	00000024 _Z32P2pCapability_get_p2p_capabilityv
00102cfc g    DF .text	00000394 VodNewP2pCmdBuilder_build_handshake_cmd
00103090 g    DF .text	000001e0 VodNewP2pCmdBuilder_build_handshake_resp_cmd
0012fd24 g    DF .text	00000010 _ZN11P2pStatInfo25IncreaseRecvInterestedNumEv
0010bff8 g    DF .text	000000a0 VodNewP2pCmdExtractor_extract_interested_cmd
0012fd34 g    DF .text	00000010 _ZN11P2pStatInfo32IncreaseFailExtractInterestedNumEv
001034cc g    DF .text	00000170 VodNewP2pCmdBuilder_build_interested_resp_cmd
00101e94  w   DF .text	00000004 _ZN18ConnectionListener12HandleAcceptEiPK24TAG_NET_ACCEPT_RESP_DATA
00101e98  w   DF .text	00000004 _ZN18ConnectionListener15OnAcceptTimeOutEv
000ffcf0 g    DF .text	00000008 _ZN11FtpDataPipe14IsSupportRangeEv
000ffcf8 g    DF .text	00000008 _ZN11FtpDataPipe14ForceFullRangeEv
000ffd00 g    DF .text	00000018 _ZN11FtpDataPipe16UncompleteRangesEP5range
000ffd18 g    DF .text	00000008 _ZN11FtpDataPipe15RequestedRangesEP5range
000ffd20 g    DF .text	00000008 _ZN11FtpDataPipe19CanAcceptMultiRangeEv
000ffd28 g    DF .text	0000002c _ZN11FtpDataPipe12GetPipeStateEv
000ffd54 g    DF .text	00000008 _ZN11FtpDataPipe11GetPipeTypeEv
000ffd5c g    DF .text	0000000c _ZN11FtpDataPipe12GetRecvBytesEv
000ffd68 g    DF .text	0000001c _ZN11FtpDataPipe12RecvedRangesEP10RangeQueue
000ffd84 g    DF .text	0000003c _ZN11FtpDataPipe19GetCanDownloadRangeEv
000ffdc0 g    DF .text	00000018 _ZNK11FtpDataPipe16IsCanAllocBufferEv
0014f0e4 g    DF .text	00000008 _ZNK13TcpConnection10IsCanAllocEv
000ffdd8 g    DF .text	00000090 _ZN11FtpDataPipe5CloseEv
00101e9c  w   DF .text	0000003c _ZN9SD_IPADDRaSERKS_
00101ed8  w   DF .text	00000028 _ZN11FtpDataPipe11FtpPipeInfoD2Ev
00101ed8  w   DF .text	00000028 _ZN11FtpDataPipe11FtpPipeInfoD1Ev
000ffe68 g    DF .text	0000009c _ZN11FtpDataPipe9DoConnectERK9SD_IPADDRt
000fff04 g    DF .text	00000034 _ZN11FtpDataPipe11FailureExitEi
000fff38 g    DF .text	0000003c _ZN11FtpDataPipe7SubOpenEv
000fff74 g    DF .text	000000a4 _ZN11FtpDataPipe16DoConnectDataTcpEv
0014eac8 g    DF .text	000000e4 _ZN13TcpConnectionC1EP18ConnectionListenerP18IDataMemoryManagerP15IDataMemoryFreeb
00100018 g    DF .text	00000008 _ZN11FtpDataPipe13OnSendTimeOutEv
00100020 g    DF .text	00000008 _ZThn172_N11FtpDataPipe13OnSendTimeOutEv
00100028 g    DF .text	00000008 _ZN11FtpDataPipe13OnRecvTimeOutEv
00100030 g    DF .text	00000008 _ZThn172_N11FtpDataPipe13OnRecvTimeOutEv
00100038 g    DF .text	00000008 _ZN11FtpDataPipe15OnAcceptTimeOutEv
00100040 g    DF .text	00000008 _ZThn172_N11FtpDataPipe15OnAcceptTimeOutEv
00100048 g    DF .text	000000c8 _ZN11FtpDataPipe15OnDnsParseFinshEiRK9SD_IPADDR
00100110 g    DF .text	00000008 _ZThn168_N11FtpDataPipe15OnDnsParseFinshEiRK9SD_IPADDR
00100118 g    DF .text	00000120 _ZN11FtpDataPipe7GetAddrEPNS_11FtpPipeInfoEPKc
00000000      DF *UND*	00000000 strchr
00000000      DF *UND*	00000000 sscanf
00000000      DF *UND*	00000000 strncpy
00000000      DF *UND*	00000000 inet_addr
00100238 g    DF .text	0000006c _ZN11FtpDataPipe11GetEPSVPortEPNS_11FtpPipeInfoEPKc
001002a4 g    DF .text	0000001c _ZN11FtpDataPipe17DoSendCtrlCommandESs
001002c0 g    DF .text	00000098 _ZN11FtpDataPipe9DoSetRETREv
00100358 g    DF .text	00000078 _ZN11FtpDataPipe13DoSendSetTypeEv
001003d0 g    DF .text	00000078 _ZN11FtpDataPipe13DoSendSetPASVEv
00100448 g    DF .text	00000078 _ZN11FtpDataPipe13DoSendSetEPSVEv
001004c0 g    DF .text	000000a8 _ZN11FtpDataPipe13DoSendSetRESTEv
00000000      DF *UND*	00000000 snprintf
00100568 g    DF .text	00000034 _ZN11FtpDataPipe19HandleDataConnectOKEiPK25TAG_NET_CONNECT_RESP_DATA
0010059c g    DF .text	00000098 _ZN11FtpDataPipe13DoGetFileSizeEv
00100634 g    DF .text	000000dc _ZN11FtpDataPipe7DoLoginEv
00100710 g    DF .text	000000dc _ZN11FtpDataPipe14DoSendPassWordEv
001007ec g    DF .text	00000090 _ZN11FtpDataPipe13ReturnCommandEPcj
00000000      DF *UND*	00000000 atoi
0010087c g    DF .text	000000a4 _ZN11FtpDataPipe16HandleRecvOnPortEiPK22TAG_NET_RECV_RESP_DATA
00100920 g    DF .text	000001ac _ZN11FtpDataPipe12DoSendAcceptER14tagSD_SOCKADDR
0016e804 g    DF .text	00000028 sd_inet6_ntop
00100acc g    DF .text	000000f0 _ZN11FtpDataPipe12ActiveMode_1Ev
0014f0fc g    DF .text	00000008 _ZN13TcpConnection11GetSockNameEP14tagSD_SOCKADDR
00100bbc g    DF .text	00000108 _ZN11FtpDataPipe12ChangeRangesEP10RangeQueue
00100cc4 g    DF .text	00000038 _ZN11FtpDataPipe22TryToDownDataForActiveEv
00100cfc g    DF .text	000004cc _ZN11FtpDataPipe17WorkByCtrlCommandEv
001012d0 g    DF .text	00000028 _ZN11FtpDataPipe13TryToDownDataEv
00000000      DF *UND*	00000000 atoll
001011c8 g    DF .text	0000003c _ZN11FtpDataPipe17DoRecvCtrlCommandEv
00101204 g    DF .text	00000004 _ZN11FtpDataPipe13DoConnectRecvEv
00101208 g    DF .text	00000004 _ZN11FtpDataPipe16DoRecvNameReturnEv
0010120c g    DF .text	00000034 _ZN11FtpDataPipe16HandleSendNameOKEiPK22TAG_NET_SEND_RESP_DATA
00101240 g    DF .text	00000004 _ZN11FtpDataPipe9DoRecvEndEv
00101244 g    DF .text	0000008c _ZN11FtpDataPipe16DoRecvDataReturnEv
0014f370 g    DF .text	00000044 _ZN12SpeedLimitor16GetDownloadCacheEx
001012f8 g    DF .text	00000214 _ZN11FtpDataPipe16HandleRecvDataOKEiPK22TAG_NET_RECV_RESP_DATA
0014f0c8 g    DF .text	0000001c _ZN13TcpConnection12MemDelegatedEv
0010150c g    DF .text	00000004 _ZN11FtpDataPipe19DoRecvSetPASVReturnEv
00101510 g    DF .text	00000034 _ZN11FtpDataPipe19HandleSendSetPASVOKEiPK22TAG_NET_SEND_RESP_DATA
00101544 g    DF .text	00000004 _ZN11FtpDataPipe19DoRecvSetEPSVReturnEv
00101548 g    DF .text	00000034 _ZN11FtpDataPipe19HandleSendSetEPSVOKEiPK22TAG_NET_SEND_RESP_DATA
0010157c g    DF .text	00000004 _ZN11FtpDataPipe20DoRecvPassWordReturnEv
00101580 g    DF .text	00000034 _ZN11FtpDataPipe20HandleSendPassWordOKEiPK22TAG_NET_SEND_RESP_DATA
001015b4 g    DF .text	00000004 _ZN11FtpDataPipe19DoRecvSetTypeReturnEv
001015b8 g    DF .text	00000034 _ZN11FtpDataPipe19HandleSendSetTypeOKEiPK22TAG_NET_SEND_RESP_DATA
001015ec g    DF .text	00000004 _ZN11FtpDataPipe19DoWaitCommandReturnEv
001015f0 g    DF .text	00000004 _ZN11FtpDataPipe19DoRecvSetRESTReturnEv
001015f4 g    DF .text	00000034 _ZN11FtpDataPipe19HandleSendSetRESTOKEiPK22TAG_NET_SEND_RESP_DATA
00101628 g    DF .text	00000004 _ZN11FtpDataPipe16DoRecvRETRReturnEv
0010162c g    DF .text	00000034 _ZN11FtpDataPipe16HandleSendRETROKEiPK22TAG_NET_SEND_RESP_DATA
00101660 g    DF .text	00000004 _ZN11FtpDataPipe20DoRecvFileSizeReturnEv
00101664 g    DF .text	00000034 _ZN11FtpDataPipe19HandLeGetFileSizeOKEiPK22TAG_NET_SEND_RESP_DATA
00101698 g    DF .text	00000004 _ZN11FtpDataPipe14DoRecvTransferEv
0010169c g    DF .text	00000004 _ZN11FtpDataPipe12DoRecvAcceptEv
001016a0 g    DF .text	00000034 _ZN11FtpDataPipe18HandleSendAcceptOKEiPK22TAG_NET_SEND_RESP_DATA
001016d4 g    DF .text	0000007c _ZN11FtpDataPipe10HandleSendEiPK22TAG_NET_SEND_RESP_DATA
00101750 g    DF .text	00000008 _ZThn172_N11FtpDataPipe10HandleSendEiPK22TAG_NET_SEND_RESP_DATA
00101758 g    DF .text	0000006c _ZN11FtpDataPipe18HandleRecvOnAcceptEiPK24TAG_NET_ACCEPT_RESP_DATA
0014f0ec g    DF .text	00000008 _ZN13TcpConnection7SetSockEj
001017c4 g    DF .text	00000010 _ZN11FtpDataPipe12HandleAcceptEiPK24TAG_NET_ACCEPT_RESP_DATA
001017d4 g    DF .text	00000008 _ZThn172_N11FtpDataPipe12HandleAcceptEiPK24TAG_NET_ACCEPT_RESP_DATA
001017dc g    DF .text	0000003c _ZN11FtpDataPipe20HandleConnectTimeoutEv
00101818 g    DF .text	00000004 _ZN11FtpDataPipe16OnConnectTimeOutEv
0010181c g    DF .text	00000008 _ZThn172_N11FtpDataPipe16OnConnectTimeOutEv
00101824 g    DF .text	00000048 _ZN11FtpDataPipe17CalcConnectTimeMsEv
0010186c g    DF .text	000000e8 _ZN11FtpDataPipe19HandleConnectNotifyEiPK25TAG_NET_CONNECT_RESP_DATA
00101954 g    DF .text	0000001c _ZN11FtpDataPipe13HandleConnectEiPK25TAG_NET_CONNECT_RESP_DATA
00101970 g    DF .text	00000008 _ZThn172_N11FtpDataPipe13HandleConnectEiPK25TAG_NET_CONNECT_RESP_DATA
00101f00  w   DF .text	0000003c _ZNSt6vectorIN11FtpDataPipe11CommandNodeESaIS1_EED2Ev
00101f00  w   DF .text	0000003c _ZNSt6vectorIN11FtpDataPipe11CommandNodeESaIS1_EED1Ev
00101f3c  w   DF .text	00000078 _ZNSt20__uninitialized_copyILb0EE13__uninit_copyIPN11FtpDataPipe11CommandNodeES4_EET0_T_S6_S5_
00101fb4  w   DF .text	00000204 _ZNSt6vectorIN11FtpDataPipe11CommandNodeESaIS1_EE13_M_insert_auxEN9__gnu_cxx17__normal_iteratorIPS1_S3_EERKS1_
00101978 g    DF .text	00000178 _ZN11FtpDataPipe16InsertComToQueueEPcj
00101af0 g    DF .text	0000007c _ZN11FtpDataPipe19HandleRecvOnRecvingEiPK22TAG_NET_RECV_RESP_DATA
00101b6c g    DF .text	000000b4 _ZN11FtpDataPipe10HandleRecvEiPK22TAG_NET_RECV_RESP_DATA
00101c20 g    DF .text	00000008 _ZThn172_N11FtpDataPipe10HandleRecvEiPK22TAG_NET_RECV_RESP_DATA
00101c28 g    DF .text	000001a4 _ZN11FtpDataPipeC2EP16IFtpResourceInfoP25IFtpDataPipeEventListenerP18IDataMemoryManagerP15IDataMemoryFreeP21IDataManagerWriteDataP18ResourceDnsAdapterb
002e0a08 g    DO .data.rel.ro	000000a4 _ZTV11FtpDataPipe
00101dcc g    DF .text	000000ac _ZN11FtpDataPipeD2Ev
00101dcc g    DF .text	000000ac _ZN11FtpDataPipeD1Ev
00101e78 g    DF .text	0000001c _ZN11FtpDataPipeD0Ev
002e0998  w   DO .data.rel.ro	00000008 _ZTI18IDnsParserListener
00298108  w   DO .rodata	00000015 _ZTS18IDnsParserListener
002e09a0  w   DO .data.rel.ro	00000008 _ZTI18ConnectionListener
00298120  w   DO .rodata	00000015 _ZTS18ConnectionListener
00298164 g    DO .rodata	0000000e _ZTS11FtpDataPipe
002e09e0 g    DO .data.rel.ro	00000028 _ZTI11FtpDataPipe
002e09a8  w   DO .data.rel.ro	0000000c _ZTV18IDnsParserListener
002e09b8  w   DO .data.rel.ro	00000028 _ZTV18ConnectionListener
00102748  w   DF .text	00000004 _ZN17IHttpResourceInfo12SetUserAgentERKSs
0010274c  w   DF .text	00000004 _ZN17IHttpResourceInfo12GetUserAgentERSs
00102750  w   DF .text	00000004 _ZN17IHttpResourceInfo21GetHttpHeaderPropertyERSt6vectorI8KeyValueISsSsESaIS2_EE
00102754  w   DF .text	00000004 _ZN17IHttpResourceInfo21SetHttpHeaderPropertyERSt6vectorI8KeyValueISsSsESaIS2_EE
00102758  w   DF .text	000000c4 _ZN3UriC2ERKS_
00102758  w   DF .text	000000c4 _ZN3UriC1ERKS_
001073e8 g    DF .text	000000bc _ZN10HttpCookie11DomainMatchERKSs
0010281c  w   DF .text	00000040 _ZNSt10_List_baseI8KeyValueISsSsESaIS1_EE8_M_clearEv
0010285c  w   DF .text	00000038 _ZN10HttpCookieD2Ev
0010285c  w   DF .text	00000038 _ZN10HttpCookieD1Ev
00107174 g    DF .text	00000074 _ZN10HttpCookieC1ERKSsS1_
001074a4 g    DF .text	000004a4 _ZN10HttpCookie21ConvertStringToCookieERKSsRS_
00102894  w   DF .text	000000f0 _ZNSt4listI8KeyValueISsSsESaIS1_EEaSERKS3_
00102984  w   DF .text	00000058 _ZN10HttpCookieaSERKS_
001029dc  w   DF .text	000000bc _ZN10HttpCookieC2ERKS_
001029dc  w   DF .text	000000bc _ZN10HttpCookieC1ERKS_
001025a4 g    DF .text	000000c0 _ZN17IHttpResourceInfoC1ERK3Uri
00102a98  w   DF .text	0000006c _ZNSt20__uninitialized_copyILb0EE13__uninit_copyIP10HttpCookieS3_EET0_T_S5_S4_
00102b04  w   DF .text	000001f8 _ZNSt6vectorI10HttpCookieSaIS0_EE13_M_insert_auxEN9__gnu_cxx17__normal_iteratorIPS0_S2_EERKS0_
00298174 g    DO .rodata	00000014 _ZTS17IHttpResourceInfo
0015d2b4 g    DF .text	00000088 VodNewByteBuffer_set_int32_to_lt
0015d3c0 g    DF .text	00000030 VodNewByteBuffer_set_int8
0015d448 g    DF .text	0000006c VodNewByteBuffer_set_bytes
0015d228 g    DF .text	0000008c VodNewByteBuffer_set_int64_to_lt
00103270 g    DF .text	000000a4 VodNewP2pCmdBuilder_build_choke_cmd
001033f4 g    DF .text	000000d8 _Z47VodNewP2pCmdBuilder_build_interested_resp_blockPPcPiyy
001036d0 g    DF .text	00000094 VodNewP2pCmdBuilder_build_cancel_resp_cmd
00103cc0 g    DF .text	0000000c _ZN18HttpResponseHeader15search_line_endEPKcj
00000000      DF *UND*	00000000 memchr
00105a10  w   DF .text	00000020 _ZNSt4pairISsSsED2Ev
00105a10  w   DF .text	00000020 _ZNSt4pairISsSsED1Ev
00103ccc g    DF .text	00000128 _ZN18HttpResponseHeader10StatusCodeEv
00000000      DO *UND*	00000000 _ctype_
00103ea0 g    DF .text	00000094 _ZNK18HttpResponseHeader10is_equalexERKSsS1_
00103f34 g    DF .text	000001ec _ZN18HttpResponseHeader16SupportKeepAliveEv
00104120 g    DF .text	00000138 _ZN18HttpResponseHeader19SupportGzipEncodingEv
00104258 g    DF .text	00000090 _ZNK18HttpResponseHeader16HasContentLengthEv
001042e8 g    DF .text	000000d4 _ZNK18HttpResponseHeader13ContentLengthEv
0016951c g    DF .text	00000034 _ZN19BasicTypeConversion4TrimERKSs
0016912c g    DF .text	00000008 _ZN19BasicTypeConversion12Str2LongLongERKSs
001043bc g    DF .text	000000f0 _ZN18HttpResponseHeader15HasEntityLengthEv
001044ac g    DF .text	00000188 _ZN18HttpResponseHeader12EntityLengthEv
00104634 g    DF .text	000001b0 _ZN18HttpResponseHeader10entity_posEv
001047e4 g    DF .text	00000090 _ZN18HttpResponseHeader13has_file_nameEv
00104874 g    DF .text	00000350 _ZN18HttpResponseHeader9file_nameEv
00104bc4 g    DF .text	00000090 _ZN18HttpResponseHeader13has_file_typeEv
00104c54 g    DF .text	00000100 _ZN18HttpResponseHeader9IsChunkedEv
00104d54 g    DF .text	000000d8 _ZN18HttpResponseHeader8LocationEv
00104e2c g    DF .text	000003ac _ZN18HttpResponseHeader12ContentRangeER5range
00000000      DF *UND*	00000000 _ZNSt9exceptionD1Ev
00000000      DO *UND*	00000000 _ZTVSt9exception
00105334 g    DF .text	000000e0 _ZN18HttpResponseHeader12AcceptRangesEv
00105414 g    DF .text	00000080 _ZN18HttpResponseHeader14GetValuebyNameERKSs
00105a30  w   DF .text	0000003c _ZNSt6vectorISt4pairISsSsESaIS1_EED2Ev
00105a30  w   DF .text	0000003c _ZNSt6vectorISt4pairISsSsESaIS1_EED1Ev
00105494 g    DF .text	00000030 _ZN18HttpResponseHeaderD2Ev
002e0b18 g    DO .data.rel.ro	00000010 _ZTV18HttpResponseHeader
00105494 g    DF .text	00000030 _ZN18HttpResponseHeaderD1Ev
001054c4 g    DF .text	0000001c _ZN18HttpResponseHeaderD0Ev
00105a6c  w   DF .text	00000030 _ZNSt4pairISsSsEC2ERKS0_
00105a6c  w   DF .text	00000030 _ZNSt4pairISsSsEC1ERKS0_
00105a9c  w   DF .text	0000006c _ZNSt20__uninitialized_copyILb0EE13__uninit_copyIPSt4pairISsSsES4_EET0_T_S6_S5_
00105b08  w   DF .text	000001f0 _ZNSt6vectorISt4pairISsSsESaIS1_EE13_M_insert_auxEN9__gnu_cxx17__normal_iteratorIPS1_S3_EERKS1_
001054e0 g    DF .text	00000188 _ZN18HttpResponseHeader14parse_one_lineERKSs
00105668 g    DF .text	000001a0 _ZN18HttpResponseHeader5parseEPKcj
00105808 g    DF .text	00000070 _ZN18HttpResponseHeaderC2EP16IHttpRequestInfoPKcj
00105808 g    DF .text	00000070 _ZN18HttpResponseHeaderC1EP16IHttpRequestInfoPKcj
00105878 g    DF .text	00000198 _ZN18HttpResponseHeader9CookieSetEv
00298188 g    DO .rodata	00000015 _ZTS18HttpResponseHeader
002e0b08 g    DO .data.rel.ro	0000000c _ZTI18HttpResponseHeader
00105cf8 g    DF .text	00000008 _ZN11P2pDataPipe19CanAcceptMultiRangeEv
00105d00 g    DF .text	00000008 _ZN11P2pDataPipe12CanReconnectEv
00105d08 g    DF .text	00000008 _ZN11P2pDataPipe12GetPipeStateEv
00105d10 g    DF .text	00000008 _ZN11P2pDataPipe11GetPipeTypeEv
00105d18 g    DF .text	0000000c _ZN11P2pDataPipe12GetRecvBytesEv
00105d24 g    DF .text	00000008 _ZN11P2pDataPipe14IsSupportRangeEv
00105d2c g    DF .text	00000008 _ZN11P2pDataPipe14ForceFullRangeEv
00105d34 g    DF .text	00000008 _ZN11P2pDataPipe15RequestedRangesEP5range
00105d3c g    DF .text	00000084 _ZN11P2pDataPipeD2Ev
002e0b38 g    DO .data.rel.ro	00000054 _ZTV11P2pDataPipe
00105d3c g    DF .text	00000084 _ZN11P2pDataPipeD1Ev
00105dc0 g    DF .text	0000001c _ZN11P2pDataPipeD0Ev
00105ddc g    DF .text	0000001c _ZN11P2pDataPipe12RecvedRangesEP10RangeQueue
00105df8 g    DF .text	00000020 _ZN11P2pDataPipe8GetSpeedEv
00105e18 g    DF .text	00000110 _ZN11P2pDataPipe16UncompleteRangesEP5range
00105f28 g    DF .text	00000094 _ZN11P2pDataPipe19GetCanDownloadRangeEv
00105fbc g    DF .text	000000f8 _ZN11P2pDataPipeC2EP25IP2pDataPipeEventListenerP12P2P_RESOURCEP18IDataMemoryManagerP15IDataMemoryFreeP21IDataManagerWriteData
001060b4 g    DF .text	00000088 _ZN11P2pDataPipe17HandlePipeFailureEP17VOD_P2P_DATA_PIPE
00159ab0 g    DF .text	0000005c vt_async_msg_new_post_function
0010613c g    DF .text	00000008 _ZN11P2pDataPipe11ChangeStateE15DATA_PIPE_STATE
00106144 g    DF .text	0000011c _ZN11P2pDataPipe11FailureExitEi
0012fba4 g    DF .text	00000010 _ZN11P2pStatInfo19IncreaseFailPeerNumEv
00106260 g    DF .text	0000003c _ZN11P2pDataPipe10StartTimerEjj
00106680 g    DF .text	00000024 _ZN11P2pDataPipe8sTimeoutEyPvS0_
0010629c g    DF .text	00000180 _ZN11P2pDataPipe7SubOpenEv
0012fa3c g    DF .text	00000028 _ZN11P2pStatInfo22IncreaseConnectPeerNumEP26P2P_CONNECTION_STATIC_INFO
0012fc54 g    DF .text	00000010 _ZN11P2pStatInfo22IncreaseConnectAntiNumEv
001070b4 g    DF .text	000000c0 _ZN11P2pDataPipe18HandleStateChangedEPvP13VOD_DATA_PIPEiii
00106e60 g    DF .text	00000040 _ZN11P2pDataPipe20HandleDownloadResultEPvP13VOD_DATA_PIPEP9VOD_RANGEiiS0_
0010641c g    DF .text	00000030 _ZN11P2pDataPipe11CancelTimerERy
0010644c g    DF .text	000001b4 _ZN11P2pDataPipe15NoitfyConnectedEv
0012fb7c g    DF .text	00000028 _ZN11P2pStatInfo26IncreaseCanDownloadPeerNumEP26P2P_CONNECTION_STATIC_INFO
00106600 g    DF .text	00000080 _ZN11P2pDataPipe13HandleTimeoutEyPv
001066a4 g    DF .text	00000174 _ZN11P2pDataPipe15StatBeforeCloseEv
00106818 g    DF .text	00000060 _ZN11P2pDataPipe5CloseEv
00106878 g    DF .text	00000158 _ZN11P2pDataPipe19StatOnAllDataRecvedEv
001069d0 g    DF .text	0000036c _ZN11P2pDataPipe20HandleDownloadResultEP13VOD_DATA_PIPEP9VOD_RANGEiiPv
00106d3c g    DF .text	00000038 _ZN11P2pDataPipe14ResetRecvTimerEv
00106d74 g    DF .text	000000ec _ZN11P2pDataPipe12ChangeRangesEP10RangeQueue
00106ea0 g    DF .text	00000214 _ZN11P2pDataPipe9RetryOpenEv
00123cb8 g    DF .text	000000cc _Z35PtlNewStaticInfo_set_connection_num20P2P_CONNECT_STRATEGY
00123d84 g    DF .text	00000064 _Z34PtlNewStaticInfo_set_reconnect_num22P2P_RECONNECT_STRATEGY
00121688 g    DF .text	00000030 VodNewSocketProxy_tcp_destory
0011f8c0 g    DF .text	00000094 TcpConnectionNew_create
00123b50 g    DF .text	0000007c UdtConnectionNew_close
0011fb90 g    DF .text	00000010 P2pConnectionNew_send_cb
0011fbcc g    DF .text	00000058 P2pConnectionNew_recv_cb
0011fb28 g    DF .text	0000003c P2pConnectionNew_connect_cb
0012fa64 g    DF .text	00000028 _ZN11P2pStatInfo32IncreaseSuccessPtlConnectPeerNumEP26P2P_CONNECTION_STATIC_INFO
002981a0 g    DO .rodata	0000000e _ZTS11P2pDataPipe
002e0b28 g    DO .data.rel.ro	0000000c _ZTI11P2pDataPipe
00107174 g    DF .text	00000074 _ZN10HttpCookieC2ERKSsS1_
001071e8 g    DF .text	00000080 _ZN10HttpCookieC2ERKSsS1_S1_
001071e8 g    DF .text	00000080 _ZN10HttpCookieC1ERKSsS1_S1_
00107268 g    DF .text	0000010c _ZN10HttpCookie9InserAttrERKSsS1_
00107374 g    DF .text	00000074 _ZN10HttpCookie23ParseCookieNameAndValueERKSsRSsS2_
001695c4 g    DF .text	0000008c _ZN19BasicTypeConversion8IsSuffixERKSsS1_
00107a70 g    DF .text	00000008 _ZN12AgipDataPipe12GetPipeStateEv
00107a78 g    DF .text	00000008 _ZN12AgipDataPipe11GetPipeTypeEv
00107a80 g    DF .text	00000008 _ZN12AgipDataPipe12GetRecvBytesEv
00107a88 g    DF .text	00000008 _ZN12AgipDataPipe12RecvedRangesEP10RangeQueue
00107a90 g    DF .text	00000008 _ZN12AgipDataPipe19CanAcceptMultiRangeEv
00107a98 g    DF .text	00000008 _ZN12AgipDataPipe14IsSupportRangeEv
00107aa0 g    DF .text	00000008 _ZN12AgipDataPipe14ForceFullRangeEv
00107aa8 g    DF .text	00000008 _ZN12AgipDataPipe16UncompleteRangesEP5range
00107ab0 g    DF .text	00000008 _ZN12AgipDataPipe15RequestedRangesEP5range
00107ab8 g    DF .text	00000120 _ZN12AgipDataPipe5CloseEv
00183d3c g    DF .text	00000094 agip_pipe_destroy
00107bd8 g    DF .text	00000278 _ZN12AgipDataPipe12ChangeRangesEP10RangeQueue
001839cc g    DF .text	000000d0 agip_pipe_request
001088f8 g    DF .text	00000024 _ZN12AgipDataPipe8sTimeoutEyPvS0_
00108450 g    DF .text	00000010 _ZN12AgipDataPipe20sAgipRequestCallbackEiPv
00107e50 g    DF .text	0000005c _ZN12AgipDataPipe7SubOpenEv
00183848 g    DF .text	000000b4 agip_pipe_create
0010891c  w   DF .text	0000008c _ZN14AgipPipeHelper9PostErrorEP12AgipDataPipei
00000000      DF *UND*	00000000 ev_async_send
00107eac g    DF .text	0000009c _ZN12AgipDataPipe15HandleAgipErrorEi
00107f48 g    DF .text	0000023c _ZN12AgipDataPipe18HandleAgipResponseEPcyy
001089a8  w   DF .text	000000ec _ZN14AgipPipeHelper22AgipPipeHelperCallbackEP7ev_loopP8ev_asynci
002f074c  w   DO .bss	00000004 _ZZN11SingletonExI14AgipPipeHelperE9_instanceEvE1p
00108184 g    DF .text	00000240 _ZN12AgipDataPipe22HandleResponseCallbackEiPcyy
00183b60 g    DF .text	00000140 agip_pipe_response
001083c4 g    DF .text	00000034 _ZN12AgipDataPipe21sAgipResponseCallbackEiPcyyPv
001083f8 g    DF .text	00000058 _ZN12AgipDataPipe17HandleAgipRequestEi
00108a94  w   DF .text	00000028 _ZNSt10_List_baseIN14AgipPipeHelper9QueueUnitESaIS1_EE8_M_clearEv
00108abc  w   DF .text	000000b0 _ZN11SingletonExI14AgipPipeHelperE6_mutexEv
002f0758  w   DO .bss	00000004 _ZGVZN11SingletonExI14AgipPipeHelperE6_mutexEvE1m
002f0750  w   DO .bss	00000008 _ZZN11SingletonExI14AgipPipeHelperE6_mutexEvE1m
00108460 g    DF .text	0000018c _ZN12AgipDataPipeC2EP22IDataPipeEventListenerjtPKcP18IDataMemoryManagerP15IDataMemoryFreeP21IDataManagerWriteData
001835ec g    DF .text	000000d0 agip_init
00000000      DF *UND*	00000000 ev_async_start
002e0ba0 g    DO .data.rel.ro	0000004c _ZTV12AgipDataPipe
002f0748  w   DO .bss	00000004 _ZZN11SingletonExI14AgipPipeHelperE4_refEvE3ref
001085ec g    DF .text	0000014c _ZN12AgipDataPipeD2Ev
00000000      DF *UND*	00000000 ev_async_stop
001836bc g    DF .text	000000c4 agip_uninit
001085ec g    DF .text	0000014c _ZN12AgipDataPipeD1Ev
00108738 g    DF .text	0000001c _ZN12AgipDataPipeD0Ev
00108754 g    DF .text	000001a4 _ZN12AgipDataPipe13HandleTimeoutEyPv
002981b0 g    DO .rodata	0000000f _ZTS12AgipDataPipe
002e0b90 g    DO .data.rel.ro	0000000c _ZTI12AgipDataPipe
00109348  w   DF .text	00000020 _ZNSt6vectorIP13P2pUploadPipeSaIS1_EED2Ev
00109348  w   DF .text	00000020 _ZNSt6vectorIP13P2pUploadPipeSaIS1_EED1Ev
00108b6c g    DF .text	00000008 P2pPassive_init
00108b74 g    DF .text	00000094 P2pPassive_uninit
00108c08 g    DF .text	0000001c P2pPassive_get_connect_count
00108c24 g    DF .text	000000f4 _Z33P2pPassive_can_create_upload_pipev
00109368  w   DF .text	00000120 _ZNSt6vectorIP13P2pUploadPipeSaIS1_EE13_M_insert_auxEN9__gnu_cxx17__normal_iteratorIPS1_S3_EERKS1_
00109488  w   DF .text	00000038 _ZNSt6vectorIP13P2pUploadPipeSaIS1_EE9push_backERKS1_
00108d18 g    DF .text	000000dc _Z29P2pPassive_remove_upload_pipeP13P2pUploadPipej
00109208 g    DF .text	000000a0 P2pPassive_create_upload_pipe_with_sock
001092a8 g    DF .text	000000a0 P2pPassive_create_upload_pipe_with_device
001094c0 g    DF .text	00000008 _ZN12HttpDataPipe14IsSupportRangeEv
001094c8 g    DF .text	00000008 _ZN12HttpDataPipe14ForceFullRangeEv
001094d0 g    DF .text	00000018 _ZN12HttpDataPipe16UncompleteRangesEP5range
001094e8 g    DF .text	00000008 _ZN12HttpDataPipe15RequestedRangesEP5range
001094f0 g    DF .text	00000008 _ZN12HttpDataPipe19CanAcceptMultiRangeEv
001094f8 g    DF .text	00000094 _ZN12HttpDataPipe12GetPipeStateEv
0010958c g    DF .text	00000008 _ZN12HttpDataPipe11GetPipeTypeEv
00109594 g    DF .text	0000000c _ZN12HttpDataPipe12GetRecvBytesEv
001095a0 g    DF .text	000000f4 _ZN12HttpDataPipe5CloseEv
0010d360 g    DF .text	00000034 _ZN10HttpStream5ResetEv
00109694 g    DF .text	0000001c _ZN12HttpDataPipe12RecvedRangesEP10RangeQueue
001096b0 g    DF .text	0000003c _ZN12HttpDataPipe19GetCanDownloadRangeEv
001096ec g    DF .text	00000008 _ZN12HttpDataPipe12MemDelegatedEv
001096f4 g    DF .text	00000008 _ZNK12HttpDataPipe16IsCanAllocBufferEv
001096fc g    DF .text	0000015c _ZN12HttpDataPipe9DoConnectERK9SD_IPADDRt
00109858 g    DF .text	00000020 _ZN12HttpDataPipe9DoRequestERKSs
00109878 g    DF .text	00000020 _ZN12HttpDataPipe16DoRecvHttpHeaderEv
00109898 g    DF .text	00000154 _ZN12HttpDataPipe29TryAllocDataBufferAndRecvBodyEv
0010c814 g    DF .text	00000140 _ZNK10HttpStream18GetUncompleteRangeEv
0010c954 g    DF .text	00000008 _ZNK10HttpStream13ContentLengthEv
001099ec g    DF .text	00000058 _ZN12HttpDataPipe15IsAllDataRecvedER5range
0010c7b8 g    DF .text	0000005c _ZNK10HttpStream15IsDataAllRecvedEv
0010c96c g    DF .text	00000050 _ZNK10HttpStream15GetReponseRangeEv
00109a44 g    DF .text	00000030 _ZN12HttpDataPipe15IsAllDataRecvedEv
00109a74 g    DF .text	00000070 _ZN12HttpDataPipe11FailureExitEi
00109ae4 g    DF .text	0000003c _ZN12HttpDataPipe7SubOpenEv
00109b20 g    DF .text	0000003c _ZN12HttpDataPipe25HandleSendRequestHeaderOkEiPK22TAG_NET_SEND_RESP_DATA
00109b5c g    DF .text	00000010 _ZN12HttpDataPipe10HandleSendEiPK22TAG_NET_SEND_RESP_DATA
00109b6c g    DF .text	00000008 _ZThn172_N12HttpDataPipe10HandleSendEiPK22TAG_NET_SEND_RESP_DATA
00109b74 g    DF .text	00000248 _ZN12HttpDataPipe14GzipUncompressEPci
00109dbc g    DF .text	000000d4 _ZN12HttpDataPipe20OnRecvUncompressDataEPci
00109e90 g    DF .text	0000009c _ZN12HttpDataPipe12ResetConnectEv
00109f2c g    DF .text	00000078 _ZN12HttpDataPipe21HandleSendRecvTimeoutEv
00109fa4 g    DF .text	00000004 _ZN12HttpDataPipe13OnSendTimeOutEv
00109fa8 g    DF .text	00000008 _ZThn172_N12HttpDataPipe13OnSendTimeOutEv
00109fb0 g    DF .text	00000004 _ZN12HttpDataPipe13OnRecvTimeOutEv
00109fb4 g    DF .text	00000008 _ZThn172_N12HttpDataPipe13OnRecvTimeOutEv
00109fbc g    DF .text	0000010c _ZN12HttpDataPipe15OnDnsParseFinshEiRK9SD_IPADDR
0010a0c8 g    DF .text	00000008 _ZThn168_N12HttpDataPipe15OnDnsParseFinshEiRK9SD_IPADDR
0010a0d0 g    DF .text	0000005c _ZN12HttpDataPipe22PrefetchHeaderIsEnoughEPci
0010a12c g    DF .text	0000005c _ZN12HttpDataPipe20HandleConnectTimeoutEv
0010a188 g    DF .text	00000004 _ZN12HttpDataPipe16OnConnectTimeOutEv
0010a18c g    DF .text	00000008 _ZThn172_N12HttpDataPipe16OnConnectTimeOutEv
0010a194 g    DF .text	00000068 _ZN12HttpDataPipe6ReOpenEv
0010a1fc g    DF .text	00000184 _ZN12HttpDataPipe10DoRedirectERKSsb
0010d5c4 g    DF .text	0000005c _ZN10HttpStream19CreateRequestHeaderERK5rangeRSs
0010a3a8 g    DF .text	00000048 _ZN12HttpDataPipe17CalcConnectTimeMsEv
0010b614  w   DF .text	0000008c _ZNSt6vectorI10HttpCookieSaIS0_EED2Ev
0010b614  w   DF .text	0000008c _ZNSt6vectorI10HttpCookieSaIS0_EED1Ev
0010a3f0 g    DF .text	00000210 _ZN12HttpDataPipe14HandleRecvDataEPci
0010c78c g    DF .text	0000002c _ZNK10HttpStream17GetResponseHeaderEv
0010d6ac g    DF .text	00000030 _ZN18HttpChunkedDecoderC1Ev
0010d934 g    DF .text	000000b8 _ZN18HttpChunkedDecoder9FilterBufEPci
0010c6fc g    DF .text	00000090 _ZN10HttpStream8RecvDataEjR5range
0010a600 g    DF .text	000000b8 _ZN12HttpDataPipe21RedirectDataIsRecvEndEPcj
0010a6b8 g    DF .text	00000188 _ZN12HttpDataPipe14HandleRecvBodyEiPcj
0010a840 g    DF .text	00000010 _ZN12HttpDataPipe23HandleRecvOnDownloadingEiPK22TAG_NET_RECV_RESP_DATA
0010a850 g    DF .text	00000144 _ZN12HttpDataPipe22IsAssignOnPrefetchPipeER5range
0010a994 g    DF .text	00000108 _ZN12HttpDataPipe12ChangeRangesEP10RangeQueue
0010aa9c g    DF .text	00000490 _ZN12HttpDataPipe20HandleHeaderResponseE5RCPtrI18HttpResponseHeaderE
0010c9bc g    DF .text	00000108 _ZNK10HttpStream21GetRangeSupportStatusEv
0010af2c g    DF .text	000002d8 _ZN12HttpDataPipe25HandleRecvOnRecvingHeaderEiPK22TAG_NET_RECV_RESP_DATA
0010d3e8 g    DF .text	000001dc _ZN10HttpStream14RecvHeaderDataEPKcjPPc
0010b204 g    DF .text	00000028 _ZN12HttpDataPipe10HandleRecvEiPK22TAG_NET_RECV_RESP_DATA
0010b22c g    DF .text	00000008 _ZThn172_N12HttpDataPipe10HandleRecvEiPK22TAG_NET_RECV_RESP_DATA
0010b234 g    DF .text	000001fc _ZN12HttpDataPipeC2EP17IHttpResourceInfoP26IHttpDataPipeEventListenerP18IDataMemoryManagerP15IDataMemoryFreeP21IDataManagerWriteDataP18ResourceDnsAdapter
0010c604 g    DF .text	00000058 _ZN10HttpStreamC1EP17IHttpResourceInfo
0010d394 g    DF .text	00000054 _ZN10HttpStreamD1Ev
002e0c18 g    DO .data.rel.ro	000000a0 _ZTV12HttpDataPipe
0010b430 g    DF .text	000000c8 _ZN12HttpDataPipeD2Ev
0010b430 g    DF .text	000000c8 _ZN12HttpDataPipeD1Ev
0010b4f8 g    DF .text	0000001c _ZN12HttpDataPipeD0Ev
0010b514 g    DF .text	000000e8 _ZN12HttpDataPipe19HandleConnectNotifyEiPK25TAG_NET_CONNECT_RESP_DATA
0010b5fc g    DF .text	00000010 _ZN12HttpDataPipe13HandleConnectEiPK25TAG_NET_CONNECT_RESP_DATA
0010b60c g    DF .text	00000008 _ZThn172_N12HttpDataPipe13HandleConnectEiPK25TAG_NET_CONNECT_RESP_DATA
002981c0 g    DO .rodata	0000000f _ZTS12HttpDataPipe
002e0bf0 g    DO .data.rel.ro	00000028 _ZTI12HttpDataPipe
0010b6a0 g    DF .text	00000004 _Z5f_rngPv
00000000      DF *UND*	00000000 lrand48
00176da0 g    DF .text	00000038 rsa_init
00165878 g    DF .text	000001ac mpi_read_string
00164cf0 g    DF .text	0000005c mpi_msb
0017742c g    DF .text	0000029c rsa_pkcs1_sign
00177878 g    DF .text	00000068 rsa_free
0015d3f0 g    DF .text	00000058 VodNewByteBuffer_get_bytes
0015ced4 g    DF .text	00000084 VodNewByteBuffer_get_int64_from_lt
00000000      DF *UND*	00000000 __aeabi_llsl
0010d620  w   DF .text	0000003c _ZNK5range13is_full_rangeEv
0010c5a8 g    DF .text	0000005c _ZN10HttpStream6DomainEv
0010c604 g    DF .text	00000058 _ZN10HttpStreamC2EP17IHttpResourceInfo
002e0ce0 g    DO .data.rel.ro	0000000c _ZTV10HttpStream
0010d65c  w   DF .text	00000020 _ZN8KeyValueISsSsED2Ev
0010d65c  w   DF .text	00000020 _ZN8KeyValueISsSsED1Ev
0010c65c g    DF .text	00000054 _ZNK10HttpStream13FindHeaderEndERKSs
0010c6b0 g    DF .text	0000004c _ZNK10HttpStream13FindHeaderEndEPKc
00000000      DF *UND*	00000000 strstr
0010c95c g    DF .text	00000010 _ZN10HttpStream16HasContentLengthEv
0010d67c  w   DF .text	00000030 _ZN8KeyValueISsSsEC2ERKSsS2_
0010d67c  w   DF .text	00000030 _ZN8KeyValueISsSsEC1ERKSsS2_
0010cac4 g    DF .text	0000089c _ZN10HttpStream18BuildRequestHeaderEP18HttpRequestMessageRK5range
0010da94 g    DF .text	0000008c _ZN18HttpRequestMessage14SetRequestLineERKSsS1_S1_
0010dd50 g    DF .text	00000108 _ZN18HttpRequestMessage15InsertOneHeaderERK8KeyValueISsSsE
00169058 g    DF .text	00000044 _ZN19BasicTypeConversion9ULong2StrEm
001690c4 g    DF .text	00000040 _ZN19BasicTypeConversion13ULongLong2StrEy
00176750 g    DF .text	00000184 sd_base64_encode
0010d394 g    DF .text	00000054 _ZN10HttpStreamD2Ev
0010da30 g    DF .text	00000064 _ZN18HttpRequestMessageC1Ev
0010e010 g    DF .text	00000268 _ZN18HttpRequestMessage8ToStringERSs
0010db50 g    DF .text	000000dc _ZN18HttpRequestMessageD1Ev
002e0cb8  w   DO .data.rel.ro	00000008 _ZTI16IHttpRequestInfo
002981d0  w   DO .rodata	00000013 _ZTS16IHttpRequestInfo
002981e4 g    DO .rodata	0000000d _ZTS10HttpStream
002e0cd0 g    DO .data.rel.ro	0000000c _ZTI10HttpStream
002e0cc0  w   DO .data.rel.ro	0000000c _ZTV16IHttpRequestInfo
0010d6ac g    DF .text	00000030 _ZN18HttpChunkedDecoderC2Ev
0010d6dc g    DF .text	000000c0 _ZN18HttpChunkedDecoder14ParseChunkSizeEPKciPi
00169200 g    DF .text	00000094 _ZN19BasicTypeConversion14HexStringToIntERKSsPi
0010d79c g    DF .text	00000198 _ZN18HttpChunkedDecoder21ScanForChunkRemainingEPKci
002981f4 g    DO .rodata	00000004 _ZN18HttpChunkedDecoder14kMaxLineBufLenE
0010e278  w   DF .text	00000034 _ZN11RequestBodyD2Ev
002e0cf8  w   DO .data.rel.ro	00000010 _ZTV11RequestBody
0010e278  w   DF .text	00000034 _ZN11RequestBodyD1Ev
0010e2ac  w   DF .text	0000001c _ZN11RequestBodyD0Ev
0010d9ec g    DF .text	00000044 _ZN11RequestBody10SetContentEmPKc
0010da30 g    DF .text	00000064 _ZN18HttpRequestMessageC2Ev
002e0d10 g    DO .data.rel.ro	00000010 _ZTV18HttpRequestMessage
00000000      DO *UND*	00000000 _toupper_tab_
0010db20 g    DF .text	00000008 _ZN18HttpRequestMessage14SetRequestBodyEmPKc
0010db28 g    DF .text	00000028 _ZN18HttpRequestMessage16ClearRequestBodyEv
0010db50 g    DF .text	000000dc _ZN18HttpRequestMessageD2Ev
0010dc2c g    DF .text	0000001c _ZN18HttpRequestMessageD0Ev
0010dc48 g    DF .text	0000009c _ZN18HttpRequestMessage16GetMessageHeaderESsRSs
0010dce4 g    DF .text	0000006c _ZN18HttpRequestMessage15RemoveOneHeaderERK8KeyValueISsSsE
0010de58 g    DF .text	00000038 _ZN18HttpRequestMessage13InsertHeadersERKSt6vectorI8KeyValueISsSsESaIS2_EE
0010de90 g    DF .text	00000178 _ZN18HttpRequestMessage23FixRequestContentLengthEv
0010e2c8  w   DF .text	00000168 _ZN18KeyValueCollectionISsSsE10GetAllItemERSt6vectorI8KeyValueISsSsESaIS3_EE
0010e008 g    DF .text	00000008 _ZN18HttpRequestMessage13GetAllHeadersERSt6vectorI8KeyValueISsSsESaIS2_EE
002e0cf0  w   DO .data.rel.ro	00000008 _ZTI11RequestBody
002981f8  w   DO .rodata	0000000e _ZTS11RequestBody
00298208 g    DO .rodata	00000015 _ZTS18HttpRequestMessage
002e0d08 g    DO .data.rel.ro	00000008 _ZTI18HttpRequestMessage
0010f8b0  w   DF .text	00000004 _ZN18QueryCtrlInfoParam9OutputLogEv
0010e430 g    DF .text	0000004c _ZN14SettingManagerC2Ev
002e0d80 g    DO .data.rel.ro	00000010 _ZTV14SettingManager
0010e47c g    DF .text	00000404 _ZN14SettingManager8InitStatEv
00134908 g    DF .text	00000014 _ZN14TaskStatModule10StartEventEi
0010e880 g    DF .text	0000003c _ZN14SettingManager9StopTimerEv
0010e8bc g    DF .text	00000054 _ZN14SettingManager10StartTimerEj
0010ef34 g    DF .text	00000004 _ZN14SettingManager13HandleTimeoutEPvS0_
0010e910 g    DF .text	000000dc _ZN14SettingManager21IsNeedQueryNewSettingEv
00176afc g    DF .text	00000030 sd_time
00179cb0 g    DF .text	00000008 _ZNK4Json5Value4typeEv
0017b340 g    DF .text	00000008 _ZN4Json5ValueixEPKc
0017a84c g    DF .text	00000080 _ZNK4Json5ValueixEPKc
00179e9c g    DF .text	00000060 _ZNK4Json5Value5asIntEv
0010f8b4  w   DF .text	0000013c _ZN4Json6ReaderD2Ev
0010f8b4  w   DF .text	0000013c _ZN4Json6ReaderD1Ev
0010e9ec g    DF .text	000000b4 _ZN14SettingManager19UpdateLastQueryTickEv
00179994 g    DF .text	000000a8 _ZN4Json5ValueC1ENS_9ValueTypeE
00179a54 g    DF .text	00000018 _ZN4Json5ValueC1Ej
0017ab70 g    DF .text	00000044 _ZN4Json5ValueaSERKS0_
0017a71c g    DF .text	000000b4 _ZN4Json5ValueD1Ev
001388bc g    DF .text	00000040 _ZN21ProtocolFlowCtrlQueryC1EP14IQueryHubEvent
0010eb94 g    DF .text	0000028c _ZN14SettingManager13MakeQueryPackEP18QueryCtrlInfoParam
00179a84 g    DF .text	00000050 _ZN4Json5ValueC1EPKc
0017301c g    DF .text	00000008 _ZN10GlobalInfo9GetAppKeyEv
00179b28 g    DF .text	00000050 _ZN4Json5ValueC1ERKSs
00173034 g    DF .text	00000008 _ZN10GlobalInfo13GetAppVersionEv
00173018 g    DF .text	00000004 _ZN10GlobalInfo9GetPeeridEv
0010ee20 g    DF .text	00000114 _ZN14SettingManager15QueryNewSettingEv
001388fc g    DF .text	00000088 _ZN21ProtocolFlowCtrlQuery13QueryFlowCtrlEP18QueryCtrlInfoParam
002e0d50  w   DO .data.rel.ro	0000000c _ZTV18QueryCtrlInfoParam
0010ef38 g    DF .text	000000b0 _ZN14SettingManager10UninitStatEv
00135474 g    DF .text	000001d8 _ZN14TaskStatModule9StopEventEi
0010f020 g    DF .text	00000070 _ZN14SettingManager16GetLocalFilePathEv
00173044 g    DF .text	00000008 _ZN10GlobalInfo15GetStatSavePathEv
0016b53c g    DF .text	00000048 _Z11append_pathRSsRKSs
0010f090 g    DF .text	0000013c _ZN14SettingManager18SaveSettingsToFileEv
0017a2c0 g    DF .text	00000010 _ZNK4Json5Value6isNullEv
0017ae98 g    DF .text	0000004c _ZNK4Json5Value14toStyledStringEv
0010f1cc g    DF .text	00000064 _ZN14SettingManagerD2Ev
0010f230 g    DF .text	00000258 _ZN14SettingManager14OnQuerySuccessEP12IHubProtocolP16ProtocolResponse
0010f488 g    DF .text	000000f8 _ZN14SettingManager13OnQueryFailedEP12IHubProtocoli
0010f580 g    DF .text	00000314 _ZN14SettingManager19LoadSettingFromFileEv
0017ead4 g    DF .text	000000ec _ZN4Json6ReaderC1Ev
00180664 g    DF .text	0000003c _ZN4Json6Reader5parseERKSsRNS_5ValueEb
002e0d20  w   DO .data.rel.ro	00000008 _ZTI11SingletonExI14SettingManagerE
00298220  w   DO .rodata	00000020 _ZTS11SingletonExI14SettingManagerE
002e0d28  w   DO .data.rel.ro	00000008 _ZTI13ProtocolParam
00298240  w   DO .rodata	00000010 _ZTS13ProtocolParam
00298268 g    DO .rodata	00000011 _ZTS14SettingManager
002e0d60 g    DO .data.rel.ro	00000020 _ZTI14SettingManager
002e0d30  w   DO .data.rel.ro	0000000c _ZTI18QueryCtrlInfoParam
00298250  w   DO .rodata	00000015 _ZTS18QueryCtrlInfoParam
002e0d40  w   DO .data.rel.ro	0000000c _ZTV13ProtocolParam
0010f9f0 g    DF .text	00000018 _ZN7SettingC2Ev
0010fa08 g    DF .text	00000014 _ZN7SettingD2Ev
0010fa1c g    DF .text	00000074 _ZN7Setting8FindItemERKSsS1_
0017a8cc g    DF .text	00000008 _ZNK4Json5ValueixERKSs
00179fc0 g    DF .text	00000094 _ZNK4Json5Value6asBoolEv
00179e08 g    DF .text	00000094 _ZNK4Json5Value8asStringEv
0010fd64  w   DF .text	00000020 _ZN5TWINSD2Ev
0010fd64  w   DF .text	00000020 _ZN5TWINSD1Ev
0010fd84  w   DF .text	00000030 _ZN5TWINSC2ERKS_
0010fd84  w   DF .text	00000030 _ZN5TWINSC1ERKS_
0010fdb4  w   DF .text	0000006c _ZNSt20__uninitialized_copyILb0EE13__uninit_copyIP5TWINSS3_EET0_T_S5_S4_
0010fe20  w   DF .text	000001f0 _ZNSt6vectorI5TWINSSaIS0_EE13_M_insert_auxEN9__gnu_cxx17__normal_iteratorIPS0_S2_EERKS0_
0010fb74 g    DF .text	000001f0 _ZN7Setting8GetArreyERKSsRSt6vectorI5TWINSSaIS3_EE
0017b3cc g    DF .text	00000238 _ZNK4Json5Value14getMemberNamesEv
00110010 g    DF .text	0000000c _ZN13TaskIndexInfo13OnGetCidErrorEi
0011001c g    DF .text	00000008 _ZThn4_N13TaskIndexInfo13OnGetCidErrorEi
00110024 g    DF .text	000000c8 _ZN13TaskIndexInfoC2Ev
002e0dc8 g    DO .data.rel.ro	00000028 _ZTV13TaskIndexInfo
0013b2a0 g    DF .text	00000038 _ZN20ProtocolQueryResInfo22GetCurStateDescriptionEv
001102fc g    DF .text	00000010 _ZN13TaskIndexInfo11SetAllReadyE16IndexQueryByWhat
0011030c g    DF .text	00000120 _ZN13TaskIndexInfo17DoQueryBcidByGcidERKSsy
0014205c g    DF .text	00000048 _ZN17ProtocolQueryBcidC1EP14IQueryHubEvent
001420a4 g    DF .text	000000f8 _ZN17ProtocolQueryBcid9QueryBcidERKSsy
0011042c g    DF .text	000000c0 _ZN13TaskIndexInfo22CheckIndexInfoAllReadyEb
00110508 g    DF .text	00000024 _ZN13TaskIndexInfo14sHandleTimeOutEyPvS0_
001104ec g    DF .text	0000001c _ZN13TaskIndexInfo13HandleTimeOutEyPv
0011052c g    DF .text	00000244 _ZN13TaskIndexInfo23GetProtocolQueryResInfoEv
0013ad60 g    DF .text	00000048 _ZN20ProtocolQueryResInfoC1EP14IQueryHubEventj
0013b280 g    DF .text	00000020 _ZN20ProtocolQueryResInfo17SetQueryAntiStausEb
00110770 g    DF .text	000000d0 _ZN13TaskIndexInfo15DoQueryAllByUrlERKSsS1_
0013ada8 g    DF .text	00000138 _ZN20ProtocolQueryResInfo10QueryByUrlERKSsS1_
00110840 g    DF .text	000000fc _ZN13TaskIndexInfo15DoQueryAllByCIDERKSsyS1_hS1_S1_
0013aee0 g    DF .text	00000194 _ZN20ProtocolQueryResInfo10QueryByCidERKSsS1_yhS1_S1_S1_
0011093c g    DF .text	000001e8 _ZN13TaskIndexInfo15OnGetCidSuccessEPc
00110b24 g    DF .text	00000008 _ZThn4_N13TaskIndexInfo15OnGetCidSuccessEPc
00110de0 g    DF .text	000000f4 _ZN13TaskIndexInfoD2Ev
001110f0 g    DF .text	00000010 _ZN13TaskIndexInfo14setControlFlagEj
00111100 g    DF .text	00000008 _ZN13TaskIndexInfo11ControlFlagEv
00111108 g    DF .text	00000210 _ZN13TaskIndexInfo17TryEnDeUrlRequeryEv
0015c76c g    DF .text	0000009c _ZN12StringHelper4TrimESsbb
00111318 g    DF .text	0000015c _ZN13TaskIndexInfo13OnQueryFailedEP12IHubProtocoli
00111474 g    DF .text	000000ec _ZN13TaskIndexInfo19CheckHubIndexChangeERKSsS1_S1_y
001117e8 g    DF .text	00000540 _ZN13TaskIndexInfo22HandleIndexInfoByQueryERKSsS1_S1_jy16IndexQueryByWhat
00111d28 g    DF .text	000002d8 _ZN13TaskIndexInfo14OnQuerySuccessEP12IHubProtocolP16ProtocolResponse
002e0d90  w   DO .data.rel.ro	00000008 _ZTI14IThreeCIDEvent
0029827c  w   DO .rodata	00000011 _ZTS14IThreeCIDEvent
00298290 g    DO .rodata	00000010 _ZTS13TaskIndexInfo
002e0da8 g    DO .data.rel.ro	00000020 _ZTI13TaskIndexInfo
002e0d98  w   DO .data.rel.ro	00000010 _ZTV14IThreeCIDEvent
0011401c  w   DF .text	00000004 _ZN24IConfigFileEventListener17OnConfigFileCloseEi
00112000 g    DF .text	00000004 _ZN12DownloadFile17OnConfigFileWriteEiy
00112004 g    DF .text	00000128 _ZN12DownloadFile17OnConfigFileEraseEiSs
001170dc g    DF .text	00000008 _ZN8DataFile14GetLastDataPosEv
0016b584 g    DF .text	0000005c _Z11sd_truncatePKcy
00117af0 g    DF .text	000000b0 _ZN8DataFileD1Ev
0011212c g    DF .text	00000008 _ZN12DownloadFile15OnPostAsynEventEP10IAsynEvent
00114020  w   DF .text	000000c0 _ZN15tagConfigEntityC2Ev
00114020  w   DF .text	000000c0 _ZN15tagConfigEntityC1Ev
00112134 g    DF .text	00000160 _ZN12DownloadFileC2EyiP18IFileEventListenerP13TaskIndexInfo
002e0e50 g    DO .data.rel.ro	00000038 _ZTV12DownloadFile
00112134 g    DF .text	00000160 _ZN12DownloadFileC1EyiP18IFileEventListenerP13TaskIndexInfo
00112294 g    DF .text	000001a0 _ZN12DownloadFileD2Ev
00112294 g    DF .text	000001a0 _ZN12DownloadFileD1Ev
00112434 g    DF .text	000000a4 _ZN12DownloadFile11SetFileNameERKSs
00117430 g    DF .text	00000004 _ZN8DataFile11SetFileNameERKSs
001124d8 g    DF .text	000000d4 _ZN12DownloadFile10ClearResetEv
001175d8 g    DF .text	00000094 _ZN8DataFile15CancelIOAndDataEv
001170cc g    DF .text	00000008 _ZN8DataFile15InitLastDataPosEy
001125ac g    DF .text	000000b8 _ZN12DownloadFile12OpenDataFileEb
0011793c g    DF .text	000001b4 _ZN8DataFileC1ERKSsP22IDataFileEventListener
001170a4 g    DF .text	00000010 _ZN8DataFile8IsOpenedEv
00116fe4 g    DF .text	000000c0 _ZN8DataFile8OpenFileEii
00112664 g    DF .text	00000068 _ZN12DownloadFile8OpenFileEb
001175d0 g    DF .text	00000008 _ZN8DataFile20GetLastSystemErrInfoEv
001126cc g    DF .text	000000cc _ZN12DownloadFile16CreateConfigFileEv
0011b274 g    DF .text	0000004c _ZN16AppendConfigFileC1EyP24IConfigFileEventListener
0011b2c8 g    DF .text	00000008 _ZN16AppendConfigFile11SetDataFileEP8DataFile
001170d4 g    DF .text	00000008 _ZN8DataFile11GetAsynFileEv
0011b2c0 g    DF .text	00000008 _ZN16AppendConfigFile11SetAsynFileEP8AsynFile
0011e734 g    DF .text	00000054 _ZN14FreeConfigFileC1EyRKSsP24IConfigFileEventListener
00112798 g    DF .text	000000b8 _ZN12DownloadFile7LoadCfgEv
0011ded4 g    DF .text	000002f4 _ZN10ConfigFile18LoadConfigFromFileEv
00112850 g    DF .text	00000078 _ZN12DownloadFile14OpenConfigFileEv
0011db48 g    DF .text	00000010 _ZN10ConfigFile8IsOpenedEv
001128c8 g    DF .text	000000c0 _ZN12DownloadFile14OnDataFileOpenEiSs
00112988 g    DF .text	00000008 _ZThn4_N12DownloadFile14OnDataFileOpenEiSs
00112990 g    DF .text	0000004c _ZN12DownloadFile8IsOpenedEv
001140e0  w   DF .text	000000a4 _ZN15tagConfigEntityD2Ev
001140e0  w   DF .text	000000a4 _ZN15tagConfigEntityD1Ev
001129dc g    DF .text	00000050 _ZN12DownloadFile17ComiteDataToCacheEPPcyy
00117890 g    DF .text	000000ac _ZN8DataFile13CacheRecvDataEPPcyy
00112a2c g    DF .text	000000f8 _ZN12DownloadFile12CanCheckBcidEv
00112b24 g    DF .text	00000160 _ZN12DownloadFile18IsDownloadCompleteEv
00112c84 g    DF .text	00000098 _ZN12DownloadFile19SetDownloadFinishedEv
001170b4 g    DF .text	00000018 _ZN8DataFile8IsIOBusyEv
00117428 g    DF .text	00000008 _ZN8DataFile13SyncCloseFileEv
00112d1c g    DF .text	00000088 _ZN12DownloadFile24NeedChangeConfigFileTypeEv
00112e00 g    DF .text	00000044 _ZN12DownloadFile25GetBlockCountFromFileSizeEy
00112e44 g    DF .text	000001ec _ZN12DownloadFile11SetFileSizeEy
00113030 g    DF .text	00000054 _ZN12DownloadFile13AddCalcedBcidERK5rangePvj
00113084 g    DF .text	0000001c _ZN12DownloadFile14ClearCheckInfoEv
001130a0 g    DF .text	00000010 _ZN12DownloadFile8IsIOBusyEv
001130b0 g    DF .text	00000010 _ZN12DownloadFile20GetWriteFileBlockNumEv
00117434 g    DF .text	00000018 _ZN8DataFile20GetWriteFileBlockNumEv
001130c0 g    DF .text	00000010 _ZN12DownloadFile12IsWritingCfgEv
0011ddcc g    DF .text	00000018 _ZN10ConfigFile8IsIOBusyEv
001130d0 g    DF .text	00000010 _ZN12DownloadFile17StopWriteDataFileEv
001130e0 g    DF .text	000000c8 _ZN12DownloadFile16FillConfigEntityER15tagConfigEntity
001131a8 g    DF .text	0000005c _ZN12DownloadFile16CommitConfigFileEv
00113204 g    DF .text	00000100 _ZN12DownloadFile15WriteConfigFileEv
0011db58 g    DF .text	000000ac _ZN10ConfigFile17WriteConfigToFileERK15tagConfigEntity
00113304 g    DF .text	000001ec _ZN12DownloadFile20OpenChangeConfigFileEv
001134f0 g    DF .text	00000114 _ZN12DownloadFile13WriteDataFileEv
00117224 g    DF .text	000001e8 _ZN8DataFile21CommitWriteDataToFileEv
0011740c g    DF .text	0000001c _ZN8DataFile15WriteDataToFileEv
00113604 g    DF .text	000000b8 _ZN12DownloadFile16OnConfigFileOpenEiSs
001136bc g    DF .text	000002d4 _ZN12DownloadFile12SaveRecvDataEPPcyyR10RangeQueue
00169dd0 g    DF .text	00000048 sd_memmove
00113990 g    DF .text	00000140 _ZN12DownloadFile15OnDataFileWriteEiP21TAG_SD_FS_WRITEV_INFOjyyjSs
00113ad0 g    DF .text	00000008 _ZThn4_N12DownloadFile15OnDataFileWriteEiP21TAG_SD_FS_WRITEV_INFOjyyjSs
00113ad8 g    DF .text	00000094 _ZN12DownloadFile8FlushCfgEv
0011dde4 g    DF .text	000000f0 _ZN10ConfigFile8FlushCfgERK15tagConfigEntity
00114184  w   DF .text	00000094 _ZNSt6vectorI5rangeSaIS0_EEC2ERKS2_
00114184  w   DF .text	00000094 _ZNSt6vectorI5rangeSaIS0_EEC1ERKS2_
00113b6c g    DF .text	0000012c _ZN12DownloadFile16HandleRangeErrorERK5range
0011766c g    DF .text	00000224 _ZN8DataFile10CancelDataERK5range
00113c98 g    DF .text	00000074 _ZN12DownloadFile17HandleRangesErrorERK10RangeQueue
00113d0c g    DF .text	00000310 _ZN12DownloadFile16OnConfigFileLoadEiP15tagConfigEntity
001180fc g    DF .text	00000020 _ZN8AsynFile8IsOpenedEv
00118050 g    DF .text	00000094 _ZN8AsynFile8FileSizeEPy
002e0df0  w   DO .data.rel.ro	00000008 _ZTI24IConfigFileEventListener
002982a0  w   DO .rodata	0000001b _ZTS24IConfigFileEventListener
002e0df8  w   DO .data.rel.ro	00000008 _ZTI22IDataFileEventListener
002982bc  w   DO .rodata	00000019 _ZTS22IDataFileEventListener
002982d8 g    DO .rodata	0000000f _ZTS12DownloadFile
002e0e30 g    DO .data.rel.ro	00000020 _ZTI12DownloadFile
002e0e00  w   DO .data.rel.ro	00000020 _ZTV24IConfigFileEventListener
002e0e20  w   DO .data.rel.ro	00000010 _ZTV22IDataFileEventListener
0011649c  w   DF .text	00000004 _ZN18IFileEventListener10OnFileOpenEi
001164a0  w   DF .text	00000004 _ZN18IFileEventListener11OnFileWriteEP21TAG_SD_FS_WRITEV_INFOjyyj
001164a4  w   DF .text	00000004 _ZN18IFileEventListener11OnFileCloseEv
001164a8  w   DF .text	00000004 _ZN18IFileEventListener14OnFileOpFinishEiSs
001164ac  w   DF .text	00000004 _ZN18IFileEventListener9OnLoadCfgEib
00114218 g    DF .text	00000008 _ZN15P2spDataManager15SetUrlQuickInfoEP16TaskUrlQuickInfo
00114220 g    DF .text	0000000c _ZN15P2spDataManager16GetErrorRangeMapEPPSt3mapI5range16ErrorCorrectInfoSt4lessIS1_ESaISt4pairIKS1_S2_EEE
0011422c g    DF .text	00000008 _ZNK15P2spDataManager12GetErrorCodeEv
00114234 g    DF .text	0000001c _ZN15P2spDataManager9OnLoadCfgEib
00114250 g    DF .text	00000008 _ZThn24_N15P2spDataManager9OnLoadCfgEib
00114258 g    DF .text	00000004 _ZN15P2spDataManager17TryCalculatorBcidEv
0011425c g    DF .text	0000004c _ZN15P2spDataManager10OnReadDataEiP15GetDataListener5rangePKc
001142a8 g    DF .text	00000008 _ZThn28_N15P2spDataManager10OnReadDataEiP15GetDataListener5rangePKc
001142b0 g    DF .text	00000078 _ZNK15P2spDataManager12GetCheckInfoERSsS0_S0_
00114328 g    DF .text	00000058 _ZNK15P2spDataManager12GetCheckInfoERSsS0_
00114380 g    DF .text	000000bc _ZN15P2spDataManager11OnCalcedCidERKSs
0011443c g    DF .text	00000008 _ZThn20_N15P2spDataManager11OnCalcedCidERKSs
00114444 g    DF .text	000000bc _ZN15P2spDataManager12OnCalcedGcidERKSs
00114500 g    DF .text	00000008 _ZThn20_N15P2spDataManager12OnCalcedGcidERKSs
00114508 g    DF .text	00000010 _ZN15P2spDataManager8SetCheckEi
0011a1d8 g    DF .text	00000004 _ZN15P2spTaskChecker8TryCheckEv
00114518 g    DF .text	00000010 _ZN15P2spDataManager13InvalidOriginEv
00114528 g    DF .text	0000001c _ZNK15P2spDataManager19GetRecvedRangeQueueER10RangeQueue
00114544 g    DF .text	0000001c _ZNK15P2spDataManager19GetWritedRangeQueueER10RangeQueue
00114560 g    DF .text	0000001c _ZNK15P2spDataManager20GetCheckedRangeQueueER10RangeQueue
0011457c g    DF .text	00000008 _ZN15P2spDataManager10OnFileOpenEi
00119d50 g    DF .text	00000074 _ZN15P2spTaskChecker9TryToCalcEv
00114584 g    DF .text	00000008 _ZThn24_N15P2spDataManager10OnFileOpenEi
0011458c g    DF .text	00000008 _ZN15P2spDataManager13ResetFileInfoEv
00114594 g    DF .text	0000004c _ZN15P2spDataManager17NotifyLoadCfgSuccEv
001145e0 g    DF .text	00000084 _ZN15P2spDataManager11SetFileNameERKSs
00114664 g    DF .text	00000044 _ZN15P2spDataManager19GetDownloadDataInfoERyS0_S0_S0_
001146a8 g    DF .text	00000088 _ZN15P2spDataManager22ComiteThunderzOperatorEP9IResourcePPcyy
0014f4e0 g    DF .text	00000030 _ZN12SpeedLimitor16AddDownloadBytesEx
00114730 g    DF .text	00000008 _ZN15P2spDataManager7LoadCfgEv
00114738 g    DF .text	00000068 _ZN15P2spDataManager14OnFileOpFinishEiSs
0011c530 g    DF .text	00000124 _ZN7VodData16HandleFileFinishEv
001147a0 g    DF .text	00000008 _ZThn24_N15P2spDataManager14OnFileOpFinishEiSs
001147a8 g    DF .text	00000008 _ZN15P2spDataManager16GetDataWithRangeEP15GetDataListenerRK5rangePPc
0011d2c0 g    DF .text	000001a4 _ZN12ReadDataFile11GetFileDataEP15GetDataListenerRK5rangePPc
001147b0 g    DF .text	00000008 _ZN15P2spDataManager21CancelReadFileDataMsgEP15GetDataListener
0011cec4 g    DF .text	00000124 _ZN12ReadDataFile21CancelReadFileDataMsgEP15GetDataListener
001147b8 g    DF .text	00000018 _ZN15P2spDataManager15OnSessionUninitEP16ISessionListener
0011bf64 g    DF .text	0000009c _ZN7VodData15OnSessionUninitEP16ISessionListener
001147d0 g    DF .text	00000034 _ZNK15P2spDataManager18GetPriorRangeQueueER10RangeQueueRi
0011c69c g    DF .text	00000120 _ZN7VodData25GetNeedDownloadRangeQueueER10RangeQueueRi
00114804 g    DF .text	00000064 _ZNK15P2spDataManager23GetUncompleteRangeQueueER10RangeQueue
00114868 g    DF .text	00000034 _ZN15P2spDataManager8OpenFileEv
001164b0  w   DF .text	00000048 _ZltRK5rangeS1_
0011489c g    DF .text	000001b8 _ZN15P2spDataManager16TryGetFileNameByESsi
00114a54 g    DF .text	00000060 _ZN15P2spDataManager13SetOrginalUrlERKSs
00114ab4 g    DF .text	000002a4 _ZN15P2spDataManager24HandleAdviceNameWithTypeERSsS0_b
00114d58 g    DF .text	0000027c _ZN15P2spDataManager15OnHttpGetHeaderEP12HttpResourceii5RCPtrI18HttpResponseHeaderE
00114fd4 g    DF .text	00000038 _ZN15P2spDataManager26RemoveResFromErrorBlockMapEP9IResource
0011500c g    DF .text	00000048 _ZN15P2spDataManager10GetVodDataEv
0011bee8 g    DF .text	0000007c _ZN7VodDataC1EP12DownloadFilej
00115054 g    DF .text	00000030 _ZN15P2spDataManager17DoSessionDownloadEP16ISessionListener
0011c000 g    DF .text	000002a0 _ZN7VodData17DoSessionDownloadEP16ISessionListener
00115084 g    DF .text	00000034 _ZN15P2spDataManager15HasWritingBlockEv
001150b8 g    DF .text	00000008 _ZN15P2spDataManager9StopCheckEv
0011962c g    DF .text	00000064 _ZN15P2spTaskChecker4StopEv
001150c0 g    DF .text	00000008 _ZN15P2spDataManager12IsWirtingCfgEv
001150c8 g    DF .text	00000008 _ZN15P2spDataManager17StopWriteDataFileEv
001150d0 g    DF .text	00000008 _ZN15P2spDataManager16StopReadDataFileEv
0011cd7c g    DF .text	000000e8 _ZN12ReadDataFile6UnInitEv
001150d8 g    DF .text	00000008 _ZN15P2spDataManager8FlushCfgEv
001150e0 g    DF .text	00000078 _ZN15P2spDataManager25OnUrlQuickInfoGetFileSizeEy
001164f8  w   DF .text	0000001c _ZNSt17_Rb_tree_iteratorISt4pairIKP9IResource10RangeQueueEEppEv
00115158 g    DF .text	00000088 _ZN15P2spDataManager19DoAbandonRecvedDataEP9IResource
001151e0 g    DF .text	00000020 _ZN15P2spDataManager17AbandonRecvedDataEP9IResource
0011a354 g    DF .text	00000194 _ZN15P2spTaskChecker19CheckErrorClearInfoEv
00115200 g    DF .text	00000050 _ZN15P2spDataManager17AbandonRecvedDataERKSt6vectorIP9IResourceSaIS2_EE
00116514  w   DF .text	00000028 _ZN16ErrorCorrectInfoD2Ev
00116514  w   DF .text	00000028 _ZN16ErrorCorrectInfoD1Ev
0011653c  w   DF .text	00000040 _ZNSt8_Rb_treeIP9IResourceSt4pairIKS1_10RangeQueueESt10_Select1stIS5_ESt4lessIS1_ESaIS5_EE8_M_eraseEPSt13_Rb_tree_nodeIS5_E
0011657c  w   DF .text	00000018 _ZNSt8_Rb_treeIP9IResourceSt4pairIKS1_10RangeQueueESt10_Select1stIS5_ESt4lessIS1_ESaIS5_EED2Ev
0011657c  w   DF .text	00000018 _ZNSt8_Rb_treeIP9IResourceSt4pairIKS1_10RangeQueueESt10_Select1stIS5_ESt4lessIS1_ESaIS5_EED1Ev
00116594  w   DF .text	00000040 _ZNSt8_Rb_treeI5rangeSt4pairIKS0_16ErrorCorrectInfoESt10_Select1stIS4_ESt4lessIS0_ESaIS4_EE8_M_eraseEPSt13_Rb_tree_nodeIS4_E
00115250 g    DF .text	00000044 _ZN15P2spDataManager18InvalidMultiSourceEv
00115294 g    DF .text	00000094 _ZN15P2spDataManager28HandleWholeOrigionBlockErrorERK5range
00115328 g    DF .text	00000068 _ZN15P2spDataManager13ResetTaskSizeEv
001195cc g    DF .text	00000060 _ZN15P2spTaskChecker14ResetCheckInfoEv
001165d4  w   DF .text	000000f8 _ZNSt8_Rb_treeIP9IResourceS1_St9_IdentityIS1_ESt4lessIS1_ESaIS1_EE16_M_insert_uniqueERKS1_
00115390 g    DF .text	00000300 _ZN15P2spDataManager23CheckErrorBlockComeFromERK5rangeR16ErrorCorrectInfo
001166cc  w   DF .text	00000044 _ZNSt12_Vector_baseI5rangeSaIS0_EE17_M_create_storageEj
00115690 g    DF .text	00000158 _ZN15P2spDataManager27DropUntrustDataAtTryFixModeEv
001157e8 g    DF .text	00000134 _ZN15P2spDataManager11SetTaskSizeEy
0011591c g    DF .text	00000058 _ZN15P2spDataManager4StopEv
00115974 g    DF .text	000000b4 _ZN15P2spDataManager11OnFileWriteEP21TAG_SD_FS_WRITEV_INFOjyyj
0011c2a0 g    DF .text	00000290 _ZN7VodData21HandleSessionDownloadEv
00115a28 g    DF .text	00000008 _ZThn24_N15P2spDataManager11OnFileWriteEP21TAG_SD_FS_WRITEV_INFOjyyj
00116710  w   DF .text	00000090 _ZNSt8_Rb_treeIP9IResourceSt4pairIKS1_10RangeQueueESt10_Select1stIS5_ESt4lessIS1_ESaIS5_EE24_M_get_insert_unique_posERS3_
001167a0  w   DF .text	00000220 _ZNSt8_Rb_treeIP9IResourceSt4pairIKS1_10RangeQueueESt10_Select1stIS5_ESt4lessIS1_ESaIS5_EE17_M_insert_unique_ESt23_Rb_tree_const_iteratorIS5_ERKS5_
001169c0  w   DF .text	000000d0 _ZNSt3mapIP9IResource10RangeQueueSt4lessIS1_ESaISt4pairIKS1_S2_EEEixERS6_
00115a30 g    DF .text	000000ec _ZN15P2spDataManager19ComiteWriteOperatorEP9IResourcePPcyy
00116a90  w   DF .text	000000e4 _ZNSt8_Rb_treeIP9IResourceS1_St9_IdentityIS1_ESt4lessIS1_ESaIS1_EE7_M_copyEPKSt13_Rb_tree_nodeIS1_EPS9_
00116b74  w   DF .text	00000088 _ZNSt8_Rb_treeIP9IResourceS1_St9_IdentityIS1_ESt4lessIS1_ESaIS1_EEC2ERKS7_
00116b74  w   DF .text	00000088 _ZNSt8_Rb_treeIP9IResourceS1_St9_IdentityIS1_ESt4lessIS1_ESaIS1_EEC1ERKS7_
00116bfc  w   DF .text	00000060 _ZN16ErrorCorrectInfoC2ERKS_
00116bfc  w   DF .text	00000060 _ZN16ErrorCorrectInfoC1ERKS_
00116c5c  w   DF .text	000000a0 _ZNSt8_Rb_treeI5rangeSt4pairIKS0_16ErrorCorrectInfoESt10_Select1stIS4_ESt4lessIS0_ESaIS4_EE24_M_get_insert_unique_posERS2_
00116cfc  w   DF .text	000001c0 _ZNSt8_Rb_treeI5rangeSt4pairIKS0_16ErrorCorrectInfoESt10_Select1stIS4_ESt4lessIS0_ESaIS4_EE17_M_insert_unique_ESt23_Rb_tree_const_iteratorIS4_ERKS4_
00116ebc  w   DF .text	00000128 _ZNSt3mapI5range16ErrorCorrectInfoSt4lessIS0_ESaISt4pairIKS0_S1_EEEixERS5_
00115b1c g    DF .text	00000154 _ZN15P2spDataManager27HandlePartOrigionBlockErrorERK5range
00115c70 g    DF .text	00000178 _ZN15P2spDataManager26HandleNotOrigionBlockErrorERK5range
00115de8 g    DF .text	0000029c _ZN15P2spDataManager21HandleCheckBlockErrorERK5range
00116084 g    DF .text	000000f4 _ZN15P2spDataManager13OnCheckResultERK5rangei
00116178 g    DF .text	00000008 _ZThn20_N15P2spDataManager13OnCheckResultERK5rangei
00116180 g    DF .text	000001c8 _ZN15P2spDataManagerC2EP17IDataManagerEventyiP13TaskIndexInfob
00119184 g    DF .text	00000094 _ZN15P2spTaskCheckerC1EP12DownloadFileP17ITaskCheckerEventjb
00119dc4 g    DF .text	00000034 _ZN15P2spTaskChecker5StartEv
0011cb68 g    DF .text	00000088 _ZN12ReadDataFileC1EP12DownloadFileP17ReadDataFileEvent
0011cc78 g    DF .text	00000010 _ZN12ReadDataFile4InitEv
002e0fb8 g    DO .data.rel.ro	000000f0 _ZTV15P2spDataManager
00116348 g    DF .text	00000138 _ZN15P2spDataManagerD2Ev
0011ce64 g    DF .text	00000060 _ZN12ReadDataFileD1Ev
0011c654 g    DF .text	00000048 _ZN7VodDataD1Ev
00116348 g    DF .text	00000138 _ZN15P2spDataManagerD1Ev
00116480 g    DF .text	0000001c _ZN15P2spDataManagerD0Ev
002e0e88  w   DO .data.rel.ro	00000008 _ZTI18IFileEventListener
002982e8  w   DO .rodata	00000015 _ZTS18IFileEventListener
002e0e90  w   DO .data.rel.ro	00000008 _ZTI17ReadDataFileEvent
00298300  w   DO .rodata	00000014 _ZTS17ReadDataFileEvent
002e0e98  w   DO .data.rel.ro	00000008 _ZTI12IDataManager
00298314  w   DO .rodata	0000000f _ZTS12IDataManager
002e0ea0  w   DO .data.rel.ro	00000008 _ZTI17ITaskCheckerEvent
00298324  w   DO .rodata	00000014 _ZTS17ITaskCheckerEvent
00298338 g    DO .rodata	00000012 _ZTS15P2spDataManager
002e0f88 g    DO .data.rel.ro	00000030 _ZTI15P2spDataManager
002e0ea8  w   DO .data.rel.ro	0000001c _ZTV18IFileEventListener
002e0ec8  w   DO .data.rel.ro	0000000c _ZTV17ReadDataFileEvent
002e0ed8  w   DO .data.rel.ro	00000094 _ZTV12IDataManager
002e0f70  w   DO .data.rel.ro	00000014 _ZTV17ITaskCheckerEvent
00117ff0 g    DF .text	00000060 _ZN8AsynFileC1ERKSs
0011877c g    DF .text	0000009c _ZN8AsynFile8SyncOpenEv
001188c0 g    DF .text	0000012c _ZN8AsynFile12OpenFileImplEPyPviPFviS1_PKvE
00117c0c  w   DF .text	00000084 _ZN8AsynFile16OpenFileCallbackI8DataFileXadL_ZNS1_16OpenFileCallbackEiEEEEviPvPKv
001170e4 g    DF .text	00000070 _ZN8DataFile16OpenFileCallbackEi
00118818 g    DF .text	0000000c _ZN8AsynFile22GetLastSystemErrorInfoEv
00118824 g    DF .text	0000009c _ZN8AsynFile16FindObjectByOpIdEy
00117154 g    DF .text	000000d0 _ZN8DataFile30GetPriorityWriteToFileIteratorEv
0011811c g    DF .text	000000c0 _ZN8AsynFile16CommitWriteVDataEyPcj
00118d34 g    DF .text	00000190 _ZN8AsynFile19FlushWriteVDataImplEPyPvPFviS1_PKvE
00117c90  w   DF .text	000000a4 _ZN8AsynFile23FlushWriteVDataCallbackI8DataFileXadL_ZNS1_17WriteFileCallbackEiP19TAG_FS_OPERATE_DATAEEEEviPvPKv
00118298 g    DF .text	0000006c _ZN8AsynFile9SyncCloseEv
0011744c g    DF .text	000000e0 _ZN8DataFile17WriteFileCallbackEiP19TAG_FS_OPERATE_DATA
00118570 g    DF .text	00000064 _ZN8AsynFile9FreeVinfoEP19TAG_FS_OPERATE_DATA
0011752c g    DF .text	000000a4 _ZN8DataFile21GetCacheDataFromRangeERK5rangePc
00167ac0 g    DF .text	000000d4 _ZN5range12intersectionERKS_S1_RS_
00117d34  w   DF .text	00000038 _ZNSt8_Rb_treeIySt4pairIKyN8DataFile13FileOperationEESt10_Select1stIS4_ESt4lessIyESaIS4_EE8_M_eraseEPSt13_Rb_tree_nodeIS4_E
001184d0 g    DF .text	000000a0 _ZN8AsynFile6CancelEyPv
00117d6c  w   DF .text	00000040 _ZNSt6vectorI5rangeSaIS0_EE9push_backERKS0_
00117dac  w   DF .text	0000009c _ZNSt8_Rb_treeIySt4pairIKyN8DataFile13FileOperationEESt10_Select1stIS4_ESt4lessIyESaIS4_EE24_M_get_insert_unique_posERS1_
00117e48  w   DF .text	00000198 _ZNSt8_Rb_treeIySt4pairIKyN8DataFile13FileOperationEESt10_Select1stIS4_ESt4lessIyESaIS4_EE17_M_insert_unique_ESt23_Rb_tree_const_iteratorIS4_ERKS4_
0011793c g    DF .text	000001b4 _ZN8DataFileC2ERKSsP22IDataFileEventListener
00117af0 g    DF .text	000000b0 _ZN8DataFileD2Ev
001181dc g    DF .text	000000bc _ZN8AsynFile5CloseEv
00118fe4 g    DF .text	000000f8 _ZN8AsynFileD1Ev
00117ba0 g    DF .text	0000006c _ZN8DataFile13GetCacheRangeEv
00117fe0 g    DF .text	00000010 _ZN8AsynFile21CloseFileCallbackNoneEiPvPKv
001190dc  w   DF .text	00000030 _ZN8AsynFile18FileSystemCallInfoC2Ev
001190dc  w   DF .text	00000030 _ZN8AsynFile18FileSystemCallInfoC1Ev
00117ff0 g    DF .text	00000060 _ZN8AsynFileC2ERKSs
0015cb7c g    DF .text	000000cc _ZN12StringHelper7ErrInfoEPKciiS1_z
001180e4 g    DF .text	00000018 _ZN8AsynFile13IsIOExecutingEv
00118304 g    DF .text	000000f4 _ZN8AsynFile9SyncWriteEPKcyiPj
001183f8 g    DF .text	0000007c _ZN8AsynFile12SyncTruncateEy
00118474 g    DF .text	0000005c _ZN8AsynFile14CancelByObjectEPv
001185d4 g    DF .text	00000034 _ZN8AsynFile18FileSystemCallInfo3setENS_10FileOpTypeEyPv
00118608 g    DF .text	000000e0 _ZN8AsynFile12TruncateImplEyPyPvPFviS1_PKvE
001186e8 g    DF .text	00000034 _ZN8AsynFile18FileSystemCallInfo3setENS_10FileOpTypeEyxPcxPv
0011871c g    DF .text	0000004c _ZN8AsynFile18FileSystemCallInfo3setENS_10FileOpTypeEyxPK21TAG_SD_FS_WRITEV_INFOjyPv
00118768 g    DF .text	0000000c _ZN8AsynFile9SetOpenFdEi
00118774 g    DF .text	00000008 _ZN8AsynFile9GetOpenFdEv
0011910c  w   DF .text	00000038 _ZNSt4listIN8AsynFile18FileSystemCallInfoESaIS1_EE9push_backERKS1_
001189ec g    DF .text	00000114 _ZN8AsynFile8ReadImplEPcyjPyPvPFviS2_PKvE
00118b00 g    DF .text	00000118 _ZN8AsynFile9WriteImplEyPcjPyPvPFviS2_PKvE
00118c18 g    DF .text	0000011c _ZN8AsynFile14ReadRangesImplEPcjRK10RangeQueuePyPvPFviS5_PKvE
00118ec4 g    DF .text	00000120 _ZN8AsynFile9CloseImplEPyPvPFviS1_PKvE
00119144  w   DF .text	00000028 _ZNSt10_List_baseIN8AsynFile18FileSystemCallInfoESaIS1_EE8_M_clearEv
00118fe4 g    DF .text	000000f8 _ZN8AsynFileD2Ev
00119184 g    DF .text	00000094 _ZN15P2spTaskCheckerC2EP12DownloadFileP17ITaskCheckerEventjb
002e10c0 g    DO .data.rel.ro	00000018 _ZTV15P2spTaskChecker
00119218 g    DF .text	0000007c _ZN15P2spTaskChecker12OnCalcedGcidEP22_DATA_CHECK_RESULT_TAG
00119294 g    DF .text	0000007c _ZN15P2spTaskChecker11OnCalcedCidEP22_DATA_CHECK_RESULT_TAG
00119310 g    DF .text	000000e8 _ZN15P2spTaskChecker18StartCheckFromDiskERK5range
0011ac9c  w   DF .text	0000008c _ZN8AsynFile16ReadFileCallbackI15P2spTaskCheckerXadL_ZNS1_16ReadFileCallbackEiP19TAG_FS_OPERATE_DATAEEEEviPvPKv
001193f8 g    DF .text	00000008 _ZN15P2spTaskChecker12CanCheckBcidEv
00119400 g    DF .text	00000044 _ZN15P2spTaskChecker19CancelFileOperationEv
00119444 g    DF .text	0000003c _ZN15P2spTaskChecker11CancelTimerEv
00119480 g    DF .text	00000054 _ZN15P2spTaskChecker10StartTimerEj
0011a510 g    DF .text	00000004 _ZN15P2spTaskChecker13HandleTimeOutEPvS0_
001194d4 g    DF .text	0000001c _ZN15P2spTaskChecker6IsIdleEv
0011a95c  w   DF .text	00000038 _ZNSt8_Rb_treeIySt4pairIKy9CheckInfoESt10_Select1stIS3_ESt4lessIyESaIS3_EE8_M_eraseEPSt13_Rb_tree_nodeIS3_E
0011a994  w   DF .text	0000002c _ZNSt8_Rb_treeIySt4pairIKy9CheckInfoESt10_Select1stIS3_ESt4lessIyESaIS3_EE5clearEv
001194f0 g    DF .text	000000c0 _ZN15P2spTaskCheckerD2Ev
001194f0 g    DF .text	000000c0 _ZN15P2spTaskCheckerD1Ev
001195b0 g    DF .text	0000001c _ZN15P2spTaskCheckerD0Ev
00119690 g    DF .text	00000144 _ZN15P2spTaskChecker20IsContainsCheckRangeERK5rangeRSt6vectorIS0_SaIS0_EE
001197d4 g    DF .text	00000198 _ZN15P2spTaskChecker12ReadThreeCidEv
0011ad28  w   DF .text	00000084 _ZN8AsynFile18ReadRangesCallbackI15P2spTaskCheckerXadL_ZNS1_20ReadCidPartsCallbackEiP26ReadCidRangeQueueInnerdataEEEEviPvPKv
0011996c g    DF .text	00000030 _ZN15P2spTaskChecker12TryToCalcCidEv
0011a9c0  w   DF .text	00000020 _ZNSt12_Vector_baseI5rangeSaIS0_EED2Ev
0011a9c0  w   DF .text	00000020 _ZNSt12_Vector_baseI5rangeSaIS0_EED1Ev
0011999c g    DF .text	000000e8 _ZN15P2spTaskChecker13TryToCalcBcidEv
0011a9e0  w   DF .text	00000060 _ZNSt8_Rb_treeIySt4pairIKy9CheckInfoESt10_Select1stIS3_ESt4lessIyESaIS3_EE4findERS1_
0011aa40  w   DF .text	00000028 _ZNSt8_Rb_treeIySt4pairIKy9CheckInfoESt10_Select1stIS3_ESt4lessIyESaIS3_EE12_M_erase_auxESt23_Rb_tree_const_iteratorIS3_E
0011aa68  w   DF .text	0000009c _ZNSt8_Rb_treeIySt4pairIKy9CheckInfoESt10_Select1stIS3_ESt4lessIyESaIS3_EE24_M_get_insert_unique_posERS1_
0011ab04  w   DF .text	00000198 _ZNSt8_Rb_treeIySt4pairIKy9CheckInfoESt10_Select1stIS3_ESt4lessIyESaIS3_EE17_M_insert_unique_ESt23_Rb_tree_const_iteratorIS3_ERKS3_
00119a84 g    DF .text	00000140 _ZN15P2spTaskChecker9StartCalcERK5rangePcjS3_jj
00119bc4 g    DF .text	000000a4 _ZN15P2spTaskChecker8CalcGcidEv
00119c68 g    DF .text	000000e8 _ZN15P2spTaskChecker13TryToCalcGcidEv
00119df8 g    DF .text	000003b4 _ZN15P2spTaskChecker16CheckBcidCorrectEv
0011a1dc g    DF .text	00000178 _ZN15P2spTaskChecker12OnCalcFinishEPvy
0011a4e8 g    DF .text	00000028 _ZN15P2spTaskChecker21HandleTimeOutInternalEv
0011a514 g    DF .text	000002a0 _ZN15P2spTaskChecker11OnFileWriteEP21TAG_SD_FS_WRITEV_INFOjyy
00167b94 g    DF .text	00000030 _ZN5range12intersectionERKS_S1_
0011a7b4 g    DF .text	000000d0 _ZN15P2spTaskChecker16ReadFileCallbackEiP19TAG_FS_OPERATE_DATA
0011a884 g    DF .text	000000d8 _ZN15P2spTaskChecker20ReadCidPartsCallbackEiP26ReadCidRangeQueueInnerdata
00298390 g    DO .rodata	00000012 _ZTS15P2spTaskChecker
002e10b4 g    DO .data.rel.ro	0000000c _ZTI15P2spTaskChecker
0011adac g    DF .text	00000008 _ZN16AppendConfigFile8OpenFileEv
0011adb4 g    DF .text	00000008 _ZN16AppendConfigFile9CloseFileEv
0011adbc g    DF .text	00000008 _ZN16AppendConfigFile12SetConfigPosEy
0011adc4 g    DF .text	0000000c _ZN16AppendConfigFile19GetLoadHeadStartPosEy
0011add0 g    DF .text	00000024 _ZN16AppendConfigFile19GetLoadBodyStartPosEyj
0011adf4 g    DF .text	00000008 _ZN16AppendConfigFile17GetConfigFileTypeEv
0011adfc g    DF .text	00000008 _ZN16AppendConfigFile12SyncOpenFileEv
0011ae04 g    DF .text	00000008 _ZN16AppendConfigFile21SyncWriteConfigToFileERK15tagConfigEntity
0011b7c0  w   DF .text	00000028 _ZN18AsynNotfiyEraseCfgD2Ev
002e10e8  w   DO .data.rel.ro	00000014 _ZTV18AsynNotfiyEraseCfg
0011b7c0  w   DF .text	00000028 _ZN18AsynNotfiyEraseCfgD1Ev
0011ae0c g    DF .text	00000054 _ZN16AppendConfigFileD2Ev
0011db28 g    DF .text	00000004 _ZN10ConfigFileD2Ev
002e1110 g    DO .data.rel.ro	0000005c _ZTV16AppendConfigFile
0011ae0c g    DF .text	00000054 _ZN16AppendConfigFileD1Ev
0011ae60 g    DF .text	0000001c _ZN16AppendConfigFileD0Ev
0011b7e8  w   DF .text	0000001c _ZN18AsynNotfiyEraseCfgD0Ev
0011ae7c g    DF .text	00000008 _ZN16AppendConfigFile22GetConfigWriteStartPosEv
0011ae84 g    DF .text	000000e8 _ZN16AppendConfigFile18CommitConfigToFileERK15tagConfigEntity
0011af6c g    DF .text	00000060 _ZN16AppendConfigFile19EraseConfigFromFileEv
0011b858  w   DF .text	00000074 _ZN8AsynFile20TruncateFileCallbackI16AppendConfigFileXadL_ZNS1_27EraseFromConfigFileCallbackEiEEEEviPvPKv
0011b804  w   DF .text	00000054 _ZN18AsynNotfiyEraseCfg10do_executeEv
0011afcc g    DF .text	00000030 _ZN16AppendConfigFile12ReadHeadInfoEPcPyPj
0011affc g    DF .text	00000024 _ZN16AppendConfigFile23SyncEraseConfigFromFileEv
0011b020 g    DF .text	00000008 _ZN16AppendConfigFile20GetLastSystemErrInfoEv
0011b028 g    DF .text	00000130 _ZN16AppendConfigFile16TruncateAndWriteEjPcb
0011bb74  w   DF .text	0000006c _ZN8AsynFile20TruncateFileCallbackI16AppendConfigFileXadL_ZNS1_16TruncateCallbackEiEEEEviPvPKv
0011b8cc  w   DF .text	0000007c _ZN8AsynFile17WriteFileCallbackI10ConfigFileXadL_ZNS1_19WriteToFileCallbackEiP19TAG_FS_OPERATE_DATAEEEEviPvPKv
0011b158 g    DF .text	00000074 _ZN16AppendConfigFile21NeedWriteConfigToFileEv
0011dd94 g    DF .text	00000038 _ZN10ConfigFile19WriteToFileCallbackEiP19TAG_FS_OPERATE_DATA
0011b1cc g    DF .text	000000a8 _ZN16AppendConfigFile27EraseFromConfigFileCallbackEi
0011b948  w   DF .text	00000068 _ZN19ConfigSerialization3PutERKSs
0011b9b0  w   DF .text	000000f8 _ZN19ConfigSerialization3PutERK10RangeQueue
0011baa8  w   DF .text	000000cc _ZN21ConfigDeserialization3GetERSs
0011b274 g    DF .text	0000004c _ZN16AppendConfigFileC2EyP24IConfigFileEventListener
0011dac8 g    DF .text	00000060 _ZN10ConfigFileC2EyP24IConfigFileEventListener
0011b2d0 g    DF .text	00000004 _ZN16AppendConfigFile16TruncateCallbackEi
0011bbe0  w   DF .text	00000038 _ZN19ConfigSerialization3PutIjEEvT_
0011b2d4 g    DF .text	00000290 _ZN16AppendConfigFile4DumpEPPcPjRK15tagConfigEntity
0011bc18  w   DF .text	00000050 _ZN21ConfigDeserialization3GetIjEEiRT_
0011bc68  w   DF .text	00000050 _ZN21ConfigDeserialization3GetIiEEiRT_
0011bcb8  w   DF .text	00000200 _ZN21ConfigDeserialization3GetER10RangeQueue
00000000      DF *UND*	00000000 __aeabi_uidivmod
0011b564 g    DF .text	0000025c _ZN16AppendConfigFile17LoadConfigContentEPKcjR15tagConfigEntity
002e10d8  w   DO .data.rel.ro	0000000c _ZTI18AsynNotfiyEraseCfg
002983a4  w   DO .rodata	00000015 _ZTS18AsynNotfiyEraseCfg
002983bc g    DO .rodata	00000013 _ZTS16AppendConfigFile
002e1100 g    DO .data.rel.ro	0000000c _ZTI16AppendConfigFile
002e1170 g    DO .data.rel.ro	00000008 _ZTI10ConfigFile
0011beb8 g    DF .text	00000030 _ZN7VodData11GetDataFileEv
0011c7bc  w   DF .text	00000074 _ZNSt4listIiSaIiEE6removeERKi
0011c830  w   DF .text	00000038 _ZNSt8_Rb_treeIiSt4pairIKiPN7VodData11SessionNoteEESt10_Select1stIS5_ESt4lessIiESaIS5_EE8_M_eraseEPSt13_Rb_tree_nodeIS5_E
0011bee8 g    DF .text	0000007c _ZN7VodDataC2EP12DownloadFilej
0011c868  w   DF .text	00000058 _ZNSt8_Rb_treeIiSt4pairIKiPN7VodData11SessionNoteEESt10_Select1stIS5_ESt4lessIiESaIS5_EE4findERS1_
0011c8c0  w   DF .text	00000090 _ZNSt8_Rb_treeIiSt4pairIKiPN7VodData11SessionNoteEESt10_Select1stIS5_ESt4lessIiESaIS5_EE24_M_get_insert_unique_posERS1_
0011c950  w   DF .text	000001a0 _ZNSt8_Rb_treeIiSt4pairIKiPN7VodData11SessionNoteEESt10_Select1stIS5_ESt4lessIiESaIS5_EE17_M_insert_unique_ESt23_Rb_tree_const_iteratorIS5_ERKS5_
0011caf0  w   DF .text	00000078 _ZNSt3mapIiPN7VodData11SessionNoteESt4lessIiESaISt4pairIKiS2_EEEixERS6_
0011c654 g    DF .text	00000048 _ZN7VodDataD2Ev
0011cb68 g    DF .text	00000088 _ZN12ReadDataFileC2EP12DownloadFileP17ReadDataFileEvent
0011cbf0 g    DF .text	00000030 _ZN12ReadDataFile14GetDataFileObjEv
0011cc20 g    DF .text	00000008 _ZN12ReadDataFile9TryToReadE10RangeQueue
0011cc28 g    DF .text	00000050 _ZN12ReadDataFile10StartTimerEj
0011cd78 g    DF .text	00000004 _ZN12ReadDataFile13HandleTimeOutEPvS0_
0011cc88 g    DF .text	0000003c _ZN12ReadDataFile11CancelTimerEv
0011ccc4 g    DF .text	000000b4 _ZN12ReadDataFile21HandleTimeOutInternalEv
0016da3c g    DF .text	0000000c sd_abs
0011d464  w   DF .text	00000038 _ZNSt8_Rb_treeIP15GetDataListenerSt4pairIKS1_PcESt10_Select1stIS5_ESt4lessIS1_ESaIS5_EE8_M_eraseEPSt13_Rb_tree_nodeIS5_E
0011d49c  w   DF .text	00000038 _ZNSt8_Rb_treeI5rangeSt4pairIKS0_7BufNodeESt10_Select1stIS4_ESt4lessIS0_ESaIS4_EE8_M_eraseEPSt13_Rb_tree_nodeIS4_E
0011d4d4  w   DF .text	00000028 _ZNSt10_List_baseI8ListNodeSaIS0_EE8_M_clearEv
0011ce64 g    DF .text	00000060 _ZN12ReadDataFileD2Ev
0011d4fc  w   DF .text	00000068 _ZNSt8_Rb_treeI5rangeSt4pairIKS0_7BufNodeESt10_Select1stIS4_ESt4lessIS0_ESaIS4_EE4findERS2_
0011d564  w   DF .text	00000118 _ZNSt6vectorIySaIyEE13_M_insert_auxEN9__gnu_cxx17__normal_iteratorIPyS1_EERKy
0011d67c  w   DF .text	000000a0 _ZNSt8_Rb_treeI5rangeSt4pairIKS0_7BufNodeESt10_Select1stIS4_ESt4lessIS0_ESaIS4_EE24_M_get_insert_unique_posERS2_
0011d71c  w   DF .text	000001a0 _ZNSt8_Rb_treeI5rangeSt4pairIKS0_7BufNodeESt10_Select1stIS4_ESt4lessIS0_ESaIS4_EE17_M_insert_unique_ESt23_Rb_tree_const_iteratorIS4_ERKS4_
0011d8bc  w   DF .text	0000009c _ZNSt3mapI5range7BufNodeSt4lessIS0_ESaISt4pairIKS0_S1_EEEixERS5_
0011cfe8 g    DF .text	0000019c _ZN12ReadDataFile14HandleReadFileEiP19TAG_FS_OPERATE_DATA
0011d958  w   DF .text	0000008c _ZN8AsynFile16ReadFileCallbackI12ReadDataFileXadL_ZNS1_14HandleReadFileEiP19TAG_FS_OPERATE_DATAEEEEviPvPKv
0011d184 g    DF .text	0000013c _ZN12ReadDataFile9TryToReadEP15GetDataListenerRK5range
0011e2ec  w   DF .text	00000004 _ZN10ConfigFile12SetConfigPosEy
0011d9e4 g    DF .text	00000004 _ZN10ConfigFile27EraseFromConfigFileCallbackEi
0011d9e8 g    DF .text	0000002c _ZN10ConfigFile18CommitConfigToFileERK15tagConfigEntity
0011da14 g    DF .text	000000b4 _ZN10ConfigFile16TruncateAndWriteEjPcb
002e1178 g    DO .data.rel.ro	0000005c _ZTV10ConfigFile
0011dac8 g    DF .text	00000060 _ZN10ConfigFileC1EyP24IConfigFileEventListener
0011db28 g    DF .text	00000004 _ZN10ConfigFileD1Ev
0011db2c g    DF .text	0000001c _ZN10ConfigFileD0Ev
0011dc04 g    DF .text	00000190 _ZN10ConfigFile24ReadConfigHeaderCallbackEiP19TAG_FS_OPERATE_DATA
0011e2f0  w   DF .text	0000008c _ZN8AsynFile16ReadFileCallbackI10ConfigFileXadL_ZNS1_25ReadConfigContentCallbackEiP19TAG_FS_OPERATE_DATAEEEEviPvPKv
0011e1c8 g    DF .text	00000124 _ZN10ConfigFile25ReadConfigContentCallbackEiP19TAG_FS_OPERATE_DATA
002983d0 g    DO .rodata	0000000d _ZTS10ConfigFile
0011e37c g    DF .text	00000014 _ZN14FreeConfigFile19EraseConfigFromFileEv
0011e390 g    DF .text	00000008 _ZN14FreeConfigFile17GetConfigFileTypeEv
0011e398 g    DF .text	0000000c _ZN14FreeConfigFile22GetConfigWriteStartPosEv
0011e3a4 g    DF .text	0000000c _ZN14FreeConfigFile19GetLoadHeadStartPosEy
0011e3b0 g    DF .text	0000000c _ZN14FreeConfigFile19GetLoadBodyStartPosEyj
0011e3bc g    DF .text	000000b0 _ZN14FreeConfigFileD2Ev
002e11e8 g    DO .data.rel.ro	0000005c _ZTV14FreeConfigFile
0011e3bc g    DF .text	000000b0 _ZN14FreeConfigFileD1Ev
0011e46c g    DF .text	0000001c _ZN14FreeConfigFileD0Ev
0011e488 g    DF .text	00000008 _ZN14FreeConfigFile20GetLastSystemErrInfoEv
0011e490 g    DF .text	0000001c _ZN14FreeConfigFile9CloseFileEv
0011eccc  w   DF .text	00000080 _ZN8AsynFile17CloseFileCallbackI14FreeConfigFileXadL_ZNS1_17CloseFileCallbackEiEEEEviPvPKv
0011e4ac g    DF .text	0000002c _ZN14FreeConfigFile12ReadHeadInfoEPcPyPj
0011e4d8 g    DF .text	000000e0 _ZN14FreeConfigFile21SyncWriteConfigToFileERK15tagConfigEntity
0011e5b8 g    DF .text	00000020 _ZN14FreeConfigFile23SyncEraseConfigFromFileEv
0011e5d8 g    DF .text	00000074 _ZN14FreeConfigFile21NeedWriteConfigToFileEv
0011e64c g    DF .text	00000064 _ZN14FreeConfigFile12SyncOpenFileEv
0011e6b0 g    DF .text	00000084 _ZN14FreeConfigFile8OpenFileEv
0011ec48  w   DF .text	00000084 _ZN8AsynFile16OpenFileCallbackI14FreeConfigFileXadL_ZNS1_16OpenFileCallbackEiEEEEviPvPKv
0011e734 g    DF .text	00000054 _ZN14FreeConfigFileC2EyRKSsP24IConfigFileEventListener
0011e788 g    DF .text	00000070 _ZN14FreeConfigFile16OpenFileCallbackEi
0011e7f8 g    DF .text	000000e8 _ZN14FreeConfigFile17CloseFileCallbackEi
0011ed4c  w   DF .text	00000034 _ZN19ConfigSerialization3PutIyEEvT_
0011e8e0 g    DF .text	0000026c _ZN14FreeConfigFile4DumpEPPcPjRK15tagConfigEntity
0011ed80  w   DF .text	00000050 _ZN21ConfigDeserialization3GetIyEEiRT_
0011eb4c g    DF .text	000000fc _ZN14FreeConfigFile17LoadConfigContentEPKcjR15tagConfigEntity
002983e0 g    DO .rodata	00000011 _ZTS14FreeConfigFile
002e11d8 g    DO .data.rel.ro	0000000c _ZTI14FreeConfigFile
0011edd0 g    DF .text	00000078 VodNewUdtInterface_init_modular
0011f440 g    DF .text	000000c0 VodNewUdtMemeorySlab_init
0011f370 g    DF .text	00000064 VodNewUdtUtility_init
00127e88 g    DF .text	00000034 VodNewUdtDeviceManager_init
0012587c g    DF .text	00000028 VodNewUdtHandler_init_global_bitmap
001258b4 g    DF .text	00000004 VodNewUdtHandler_creat_socket_and_bind
0011ee48 g    DF .text	0000001c VodNewUdtInterface_set_udp_callback
0011ee64 g    DF .text	00000060 VodNewUdtInterface_uninit_modular
001258a4 g    DF .text	00000010 VodNewUdtHandler_uninit_global_bitmap
00127ebc g    DF .text	00000048 VodNewUdtDeviceManager_uninit
001258b8 g    DF .text	00000004 VodNewUdtHandler_close_socket
0011f63c g    DF .text	000000e0 VodNewUdtMemeorySlab_uninit
0011eec4 g    DF .text	0000002c VodNewUdtDeviceManager_add
00127f04 g    DF .text	00000040 VodNewUdtDeviceManager_add_device
0011f524 g    DF .text	00000024 VodNewUdtMemeorySlab_free_udt_device
001258bc g    DF .text	00000078 VodNewUdtHandler_init_device_libev_timer
0011eef0 g    DF .text	00000128 VodNewUdtInterface_device_create
0011f500 g    DF .text	00000024 VodNewUdtMemeorySlab_malloc_udt_device
0011f2d8 g    DF .text	0000001c VodNewUdtUtility_generate_source_port
0011f310 g    DF .text	00000038 VodNewUdtUtility_hash_peerid
0011f350 g    DF .text	0000001c VodNewUdtUtility_get_seq_num
0011f044 g    DF .text	00000018 VodNewUdtInterface_device_connect
00125994 g    DF .text	00000064 VodNewUdtHandler_active_connect
0011f05c g    DF .text	00000018 VodNewUdtInterface_device_connect_no_retry
001259f8 g    DF .text	00000050 VodNewUdtHandler_active_connect_no_retry
0011f074 g    DF .text	00000020 VodNewUdtInterface_device_passive_connect
00125a90 g    DF .text	0000005c VodNewUdtHandler_passive_connect
0011f094 g    DF .text	00000040 _Z42VodNewUdtInterface_device_connect_callbackiP17tagVOD_UDT_DEVICE
0012598c g    DF .text	00000008 VodNewUdtHandler_change_state
0011f0d4 g    DF .text	00000080 VodNewUdtInterface_device_send
001264ec g    DF .text	00000180 VodNewUdtHandler_async_send
0011f154 g    DF .text	00000038 _Z39VodNewUdtInterface_device_send_callbackiP17tagVOD_UDT_DEVICE
0011f18c g    DF .text	000000a4 VodNewUdtInterface_device_recv
001267e0 g    DF .text	00000074 VodNewUdtHandler_async_recv
0011f230 g    DF .text	00000020 _Z39VodNewUdtInterface_device_recv_callbackjP17tagVOD_UDT_DEVICE
0011f250 g    DF .text	0000004c VodNewUdtInterface_device_close
00125d90 g    DF .text	000001a8 VodNewUdtHandler_socket_close
00127f44 g    DF .text	00000044 VodNewUdtDeviceManager_remove_device
0011f29c g    DF .text	00000004 VodNewUdtInterface_hash_peerid
0011f2a0 g    DF .text	00000004 VodNewUdtInterface_udp_sendto
0012780c g    DF .text	000001bc VodNewUdtSocket_sendto
0011f2a4 g    DF .text	00000004 VodNewUdtInterface_get_local_ip_when_recv
00127624 g    DF .text	00000090 VodNewUdtSocket_get_local_ip_when_recv
0011f2a8 g    DF .text	00000010 VodNewUdtInterface_get_local_udp_port
001276b4 g    DF .text	00000014 VodNewUdtSocket_get_local_udp_port
0011f2b8 g    DF .text	00000020 _Z43VodNewUdtInterface_udp_accept_connection_cbP17tagVOD_UDT_DEVICEt
0011f2f4 g    DF .text	0000001c VodNewUdtUtility_generate_target_port
0011f348 g    DF .text	00000008 VodNewUdtUtility_get_mtu_size
0011f36c g    DF .text	00000004 VodNewUdtUtility_dump_buffer
0011f3d4 g    DF .text	00000048 VodNewUdtUtility_local_peerid_hashcode
0011f41c g    DF .text	00000024 _Z42VodNewUdtMemeorySlab_udp_buffer_comparatorPvS_
0015e978 g    DF .text	00000034 _Z26mpool_create_slab_impl_newjjjPP4SLABPKci
00173bc8 g    DF .text	00000024 set_init
0015e9ac g    DF .text	00000028 _Z23mpool_get_slip_impl_newP4SLABPKciPPv
0015e9d4 g    DF .text	00000014 _Z24mpool_free_slip_impl_newP4SLABPvPKci
0011f548 g    DF .text	00000028 VodNewUdtMemeorySlab_malloc_udt_send_buffer
0011f570 g    DF .text	00000040 VodNewUdtMemeorySlab_free_udt_send_buffer
0011f5b0 g    DF .text	00000028 VodNewUdtMemeorySlab_malloc_udt_recv_buffer
0011f5d8 g    DF .text	00000028 VodNewUdtMemeorySlab_free_udt_recv_buffer
0011f600 g    DF .text	00000014 VodNewUdtMemeorySlab_set_recv_udp_package
0011f614 g    DF .text	00000014 VodNewUdtMemeorySlab_get_recv_udp_package
0011f628 g    DF .text	00000014 _Z39VodNewUdtMemeorySlab_set_udp_buffer_lowi
0015e9e8 g    DF .text	00000010 _Z18mpool_destory_slabP4SLAB
00173a98 g    DF .text	00000048 successor
001741e0 g    DF .text	00000050 set_erase_node
0011f71c g    DF .text	00000088 VodNewUdtMemeorySlab_malloc_udp_buffer
00173bf4 g    DF .text	0000012c set_insert_node
0011f7a4 g    DF .text	00000090 VodNewUdtMemeorySlab_free_udp_buffer
001279c8 g    DF .text	00000070 VodNewUdtSocket_udp_recvfrom
0011f834 g    DF .text	00000014 VodNewUdtMemeorySlab_get_udp_buffer_low
0011f954 g    DF .text	00000084 TcpConnectionNew_connect
0012c4dc g    DF .text	00000268 PtlNewActiveTcpDirectly_connect
0012332c g    DF .text	0000013c PtlNewTcpBroker_connect
0011f9d8 g    DF .text	00000008 TcpConnectionNew_send
0012125c g    DF .text	0000002c VodNewSocketProxy_tcp_send_all
0011f9e0 g    DF .text	00000008 TcpConnectionNew_recv
0012147c g    DF .text	0000003c VodNewSocketProxy_tcp_recv_all
0011f9e8 g    DF .text	00000064 TcpConnectionNew_close
0012351c g    DF .text	00000068 PtlNewTcpBroker_cancel
0012c898 g    DF .text	00000058 PtlNewActiveTcpDirectly_cancel
0011fa4c g    DF .text	00000020 P2pConnectionNew_set_callbcak_fun
0011fa6c g    DF .text	00000094 P2pConnectStrategyName
00123bcc g    DF .text	000000bc UdtConnectionNew_connect
00123de8 g    DF .text	00000208 _Z41PtlNewStaticInfo_set_connection_error_num23P2P_CONNECT_STATIC_INFO
00123c88 g    DF .text	0000000c UdtConnectionNew_send
00123c94 g    DF .text	0000000c UdtConnectionNew_recv
00123ff0 g    DF .text	000000c4 _Z33PtlNewStaticInfo_set_has_recv_num23P2P_CONNECT_STATIC_INFO
0011fc50 g    DF .text	0000001c _Z42PtlNewNatCheck_send_binding_request_cmd_cbiiPv
002f07d0 g    DO .bss	00000070 g_ptl_nat_check
001201f4 g    DF .text	00000038 _Z34PtlNewNatCheck_handle_step_timeoutP7ev_loopP8ev_timeri
0011fce0 g    DF .text	00000014 PtlNewNatCheck_get_nat_type
0011fd14 g    DF .text	0000003c _Z28PtlNewNatCheck_parse_sn_hostPKc
00120178 g    DF .text	0000007c _Z31PtlNewNatCheck_parse_sn_host_cbiPvPKv
0011fd50 g    DF .text	0000001c _Z27PtlNewNatCheck_get_req_flagbbbb
0011fd6c g    DF .text	00000224 _Z35PtlNewNatCheck_send_binding_requestjtj
0015d33c g    DF .text	00000084 VodNewByteBuffer_set_int16_to_lt
0011ff90 g    DF .text	00000034 _Z39PtlNewNatCheck_start_step_timeout_timerv
00000000      DF *UND*	00000000 ev_timer_again
0011ffc4 g    DF .text	00000038 _Z38PtlNewNatCheck_stop_step_timeout_timerv
00000000      DF *UND*	00000000 ev_timer_stop
00120058 g    DF .text	00000044 _Z29PtlNewNatCheck_set_check_faili
0012009c g    DF .text	000000dc _Z28PtlNewNatCheck_do_check_stepi
002f084c g    DO .bss	00000001 g_PTL_is_init
002e80ac g    DO .data	0000000a ptl_nat_port_list
002e80b8 g    DO .data	00000004 ptl_nat_port_count
00120540 g    DF .text	0000001c PtlNewNatCheck_get_local_ip
0012055c g    DF .text	0000022c _Z40PtlNewNatCheck_recv_binding_response_cmdP16BINDING_RESP_CMDjt
00170c78 g    DF .text	0000003c _Z33PeerCapability_set_self_is_in_nati
00120788 g    DF .text	0000017c PtlNewNatCheck_handle_binding_response
0015cfdc g    DF .text	00000080 VodNewByteBuffer_get_int16_from_lt
00120904 g    DF .text	00000014 PtlNewNatCheck_get_external_port
00120918 g    DF .text	00000014 PtlNewNatCheck_get_external_ip
0012092c g    DF .text	00000030 PtlNewNatCheck_is_in_nat
0012095c g    DF .text	00000268 _Z44PtlNewPassiveTcpDirectly_tcp_accept_callbackiPvjt
0012fd74 g    DF .text	00000008 _ZN11P2pStatInfo15SetUploadSwitchEb
0012fc94 g    DF .text	00000010 _ZN11P2pStatInfo33IncreasePassiveTcpDirectlyConnNumEv
00120bc4 g    DF .text	00000040 PtlNewPassiveTcpDirectly_uninit
002f084a g    DO .bss	00000002 g_tcp_directly_port
00120c18 g    DF .text	00000040 _Z49PtlNewPassiveTcpDirectly_start_accept_tcp_connectv
00122f84 g    DF .text	00000094 AcceptConnectionNewManager_start_accept_tcp_connect
00120c58 g    DF .text	00000014 PtlNewPassiveTcpDirectly_init
00120c6c g    DF .text	0000002c _Z34VodNewSocketProxy_libev_open_writeP16VOD_SOCKET_PROXY
00000000      DF *UND*	00000000 ev_io_start
00120c98 g    DF .text	00000028 _Z33VodNewSocketProxy_libev_open_readP16VOD_SOCKET_PROXY
00120cc0 g    DF .text	000000ac _Z36VodNewSocketProxy_create_with_socketP7ev_loopi
00120d6c g    DF .text	000000b8 _Z35VodNewSocketProxy_tcp_create_socketP7ev_loopP16VOD_SOCKET_PROXY
00174b14 g    DF .text	00000024 sd_setnonblock
00120e24 g    DF .text	000000bc VodNewSocketProxy_tcp_create
00120ef8 g    DF .text	000000a8 VodNewSocketProxy_tcp_bind_and_listen
00000000      DF *UND*	00000000 setsockopt
00000000      DF *UND*	00000000 listen
00120fa0 g    DF .text	000001b4 _Z24VodNewSocketProxy_acceptP16VOD_SOCKET_PROXY
00000000      DF *UND*	00000000 accept
00000000      DF *UND*	00000000 fcntl
00121154 g    DF .text	0000000c _Z34VodNewSocketProxy_change_tcp_stateP16VOD_SOCKET_PROXY9TCP_STATEi
00121160 g    DF .text	000000d4 VodNewSocketProxy_tcp_connect
00174aac g    DF .text	00000054 sd_tag_socket_to_uid
00000000      DF *UND*	00000000 connect
00121234 g    DF .text	00000028 VodNewSocketProxy_tcp_send
00121288 g    DF .text	00000034 _Z36VodNewSocketProxy_notify_send_resultP16VOD_SOCKET_PROXYi
001212bc g    DF .text	000000e0 _Z27VodNewSocketProxy_send_dataP16VOD_SOCKET_PROXY
0017538c g    DF .text	00000084 sd_IsPeerActiveDisconnect
00000000      DF *UND*	00000000 ev_io_stop
00000000      DF *UND*	00000000 getsockopt
00121444 g    DF .text	00000038 VodNewSocketProxy_tcp_recv
001214b8 g    DF .text	00000034 _Z36VodNewSocketProxy_notify_recv_resultP16VOD_SOCKET_PROXYi
001214ec g    DF .text	00000104 _Z27VodNewSocketProxy_recv_dataP16VOD_SOCKET_PROXY
00000000      DF *UND*	00000000 read
00121630 g    DF .text	00000058 VodNewSocketProxy_tcp_close
00000000      DF *UND*	00000000 shutdown
001216b8 g    DF .text	00000028 _Z37VodNewSocketProxy_libev_open_udp_readP20VOD_SOCKET_UDP_PROXY
001216e0 g    DF .text	00000028 _Z38VodNewSocketProxy_libev_open_udp_writeP20VOD_SOCKET_UDP_PROXY
00121708 g    DF .text	00000058 VodNewSocketProxy_udp_sendto
00121760 g    DF .text	00000014 VodNewSocketProxy_udp_can_sendto
00121774 g    DF .text	00000048 VodNewSocketProxy_udp_recvfrom
001217bc g    DF .text	00000038 _Z40VodNewSocketProxy_notify_udp_send_resultP20VOD_SOCKET_UDP_PROXYi
001217f4 g    DF .text	00000068 _Z31VodNewSocketProxy_udp_send_dataP20VOD_SOCKET_UDP_PROXY
00000000      DF *UND*	00000000 sendto
00121874 g    DF .text	00000054 _Z40VodNewSocketProxy_notify_udp_recv_resultP20VOD_SOCKET_UDP_PROXYi
001218c8 g    DF .text	000000ac _Z31VodNewSocketProxy_udp_recv_dataP20VOD_SOCKET_UDP_PROXY
00000000      DF *UND*	00000000 recvmsg
0012198c g    DF .text	00000024 VodNewSocketProxy_udp_socket_bind
001219b0 g    DF .text	00000094 _Z35VodNewSocketProxy_udp_create_socketP7ev_loopP20VOD_SOCKET_UDP_PROXY
00121a44 g    DF .text	00000180 VodNewSocketProxy_udp_create
00121bc4 g    DF .text	000000b4 VodNewSocketProxy_udp_close
001597d0 g    DF .text	0000008c vt_async_msg_new_looper_init
00123018 g    DF .text	00000050 AcceptConnectionNewManager_init
00122f58 g    DF .text	00000018 AcceptConnectionNewManager_set_accept_callback
001287b4 g    DF .text	00000224 PtlNewPingServer_init
0012a32c g    DF .text	00000298 PtlNewNatServer_init
001298e8 g    DF .text	000000ac PtlNewSuperNode_init
0012c48c g    DF .text	00000030 PtlNewActiveTcpDirectly_init
00124f98 g    DF .text	00000014 _ZN5Upnpc15SetAllowRunUpnpEb
001245fc g    DF .text	00000348 _ZN5Upnpc12InitUpnpStatEv
00124cc8 g    DF .text	000000a0 _ZN5Upnpc14CreateAndStartEtt
00122364 g    DF .text	00000030 PtlNewPassiveTcpBroker_init
0012ceac g    DF .text	00000030 PtlNewPassiveUdtBroker_init
0012c920 g    DF .text	00000030 PtlNewPassiveUdtDirectly_init
00122b20 g    DF .text	00000030 PtlNewActiveUdtDirectly_init
001230f0 g    DF .text	0000006c PtlNewTcpBroker_init
0012d3fc g    DF .text	00000060 PtlNewUdpBroker_init
0012b89c g    DF .text	00000050 PtlNewActivePunchHole_init
0012da4c g    DF .text	00000030 _Z27ptl_init_passive_punch_holeP7ev_loop
00170c08 g    DF .text	0000003c _Z39PeerCapability_set_self_support_new_p2pi
002f0850 g    DO .bss	00000004 g_loop
00128ec0 g    DF .text	00000198 PtlNewCmdHandler_handle_recv_cmd
00123078 g    DF .text	00000038 AcceptConnectionNewManager_accept_udt_connect_callback
0012b9ec g    DF .text	00000048 PtlNewActivePunchHole_uninit
0012d6b0 g    DF .text	0000004c PtlNewUdpBroker_uninit
001232ac g    DF .text	00000080 PtlNewTcpBroker_uninit
00122d94 g    DF .text	00000054 PtlNewActiveUdtDirectly_uninit
0012cedc g    DF .text	00000048 PtlNewPassiveUdtBroker_uninit
0012251c g    DF .text	0000004c PtlNewPassiveTcpBroker_uninit
0012cd2c g    DF .text	0000004c PtlNewPassiveUdtDirectly_uninit
0012c7bc g    DF .text	00000054 PtlNewActiveTcpDirectly_uninit
0012dae8 g    DF .text	0000004c _Z29ptl_uninit_passive_punch_holev
00129ce8 g    DF .text	00000038 PtlNewSuperNode_uninit
0012a5e8 g    DF .text	00000048 PtlNewNatServer_uninit
001286a4 g    DF .text	00000030 PtlNewPingServer_uninit
00122ef8 g    DF .text	00000060 AcceptConnectionNewManager_uninit
00159928 g    DF .text	000000c4 vt_async_msg_new_looper_uninit
00124944 g    DF .text	00000384 _ZN5Upnpc14UninitUpnpStatEv
00121f40 g    DF .text	00000034 P2pTransferLayerNew_destory_p2p_connection
00121f74 g    DF .text	00000030 _Z40P2pTransferLayerNew_get_connect_strategyj
00170dec g    DF .text	000001c8 _Z31PeerCapability_get_connect_typej
00121fa4 g    DF .text	0000002c _Z49P2pTransferLayerNew_get_connect_strategy_for_testj
00121fd0 g    DF .text	00000118 _Z46P2pTransferLayerNew_create_concrete_connectionP7ev_loopP14P2P_CONNECTIONjPKcy
00123abc g    DF .text	00000094 UdtConnectionNew_create
00122324 g    DF .text	00000040 _Z33PtlNewPassiveTcpBroker_comparatorPvS_
00122394 g    DF .text	00000090 _Z42PtlNewPassiveTcpBroker_extract_broker2_cmdPcjP11BROKER2_CMD
00122424 g    DF .text	00000080 _Z62PtlNewPassiveTcpBroker_extract_transfer_layer_control_resp_cmdPcjP31TRANSFER_LAYER_CONTROL_RESP_CMD
001224a4 g    DF .text	00000078 _Z42PtlNewPassiveTcpBroker_erase_strategy_dataP23PASSIVE_TCP_BROKER_DATA
00122568 g    DF .text	0000017c _Z30PtlNewPassiveTcpBroker_connectP23PASSIVE_TCP_BROKER_DATA
001229fc g    DF .text	00000020 _Z36PtlNewPassiveTcpBroker_send_callbackiPvS_
00122a94 g    DF .text	00000068 _Z36PtlNewPassiveTcpBroker_recv_callbackiPvS_
00122a1c g    DF .text	00000078 _Z39PtlNewPassiveTcpBroker_connect_callbackiPvS_
001226e4 g    DF .text	00000318 PtlNewPassiveTcpBroker_handle_broker2_cmd
00173d78 g    DF .text	0000004c set_find_node
0012fd7c g    DF .text	00000010 _ZN11P2pStatInfo21IncreaseTcpBroker2NumEv
0012fca4 g    DF .text	00000010 _ZN11P2pStatInfo31IncreasePassiveTcpBrokerConnNumEv
0012aee0 g    DF .text	00000118 PtlNewCmdBuilder_build_transfer_layer_control_cmd
0012fd9c g    DF .text	00000010 _ZN11P2pStatInfo32IncreaseTcpBroker2SendControlNumEv
0012fdac g    DF .text	00000010 _ZN11P2pStatInfo36IncreaseTcpBroker2RecvControlRespNumEv
00122afc g    DF .text	00000024 _Z39PtlNewActiveUdtDirectly_data_comparatorPvS_
00122b50 g    DF .text	00000020 _Z35PtlNewActiveUdtDirectly_start_timerP21PTL_UDT_DIRECTLY_DATA
00122b70 g    DF .text	00000160 PtlNewActiveUdtDirectly_connect
00122e38 g    DF .text	0000003c _Z40PtlNewActiveUdtDirectly_connect_callbackiPvS_
00122cd0 g    DF .text	00000020 _Z34PtlNewActiveUdtDirectly_stop_timerP21PTL_UDT_DIRECTLY_DATA
00122cf0 g    DF .text	000000a4 _Z43PtlNewActiveUdtDirectly_erase_strategy_dataP21PTL_UDT_DIRECTLY_DATA
00122e74 g    DF .text	00000058 PtlNewActiveUdtDirectly_cancel
00122ecc g    DF .text	0000002c _Z53AcceptConnectionNewManager_tcp_broker_accept_callbackiPvjt
001244b4 g    DF .text	0000001c _Z50PtlNewStaticInfo_set_tcp_broker_accept_connect_numv
0012378c g    DF .text	00000094 PtlNewTcpBroker_handle_opposite_peer_connect
002f08a8 g    DO .bss	00000002 g_tcp_broker_port
00122f70 g    DF .text	00000014 AcceptConnectionNewManager_get_local_tcp_broker_port
00123068 g    DF .text	00000010 _Z54AcceptConnectionNewManager_accept_udt_connect_directlyP17tagVOD_UDT_DEVICE
0012c950 g    DF .text	0000035c PtlNewPassiveUdpDirectly_create
0012d9c0 g    DF .text	0000008c PtlNewUdpBroker_handle_opposite_peer_connect
001230b0 g    DF .text	00000024 _Z26PtlNewTcpBroker_comparatorPvS_
001230d4 g    DF .text	0000001c _Z34PtlNewTcpBroker_broker2_req_cmd_cbiiPv
0012315c g    DF .text	0000008c _Z33PtlNewTcpBroker_erase_accept_dataP26PTL_TCP_BROKER_ACCEPT_DATA
001231e8 g    DF .text	00000024 _Z43PtlNewTcpBroker_start_broker2_req_cmd_timerP19PTL_TCP_BROKER_DATA
0012320c g    DF .text	00000024 _Z42PtlNewTcpBroker_stop_broker2_req_cmd_timerP19PTL_TCP_BROKER_DATA
00123230 g    DF .text	0000007c _Z35PtlNewTcpBroker_erase_strategy_dataP19PTL_TCP_BROKER_DATA
0012a7d0 g    DF .text	000000e8 PtlNewNatServer_get_peersn
00123584 g    DF .text	000000dc _Z35PtlNewTcpBroker_get_peersn_callbackijtPv
0012b240 g    DF .text	000000a8 PtlNewCmdBuilder_build_broker2_req_cmd
0012a1e4 g    DF .text	000000a4 PtlNewNatServer_cancel_get_peersn
00123660 g    DF .text	00000058 _Z34PtlNewTcpBroker_find_strategy_dataj
001236b8 g    DF .text	0000007c _Z29PtlNewTcpBroker_send_callbackiPvS_
001244ec g    DF .text	0000001c _Z68PtlNewStaticInfo_set_tcp_broker_send_transfer_layer_control_resp_numv
00123734 g    DF .text	00000058 PtlNewTcpBroker_is_tcp_broker_ip
001238ec g    DF .text	0000014c _Z29PtlNewTcpBroker_recv_callbackiPvS_
00123820 g    DF .text	00000084 _Z50PtlNewTcpBroker_extract_transfer_layer_control_cmdPcjP26TRANSFER_LAYER_CONTROL_CMD
001238a4 g    DF .text	00000048 _Z52PtlNewTcpBroker_send_transfer_layer_control_resp_cmdP26PTL_TCP_BROKER_ACCEPT_DATAP16VOD_SOCKET_PROXYj
0012b0ac g    DF .text	00000080 PtlNewCmdBuilder_build_transfer_layer_control_resp_cmd
001244d0 g    DF .text	0000001c _Z63PtlNewStaticInfo_set_tcp_broker_recv_transfer_layer_control_numv
0012d7ec g    DF .text	00000068 PtlNewUdpBroker_cancel
0012bc80 g    DF .text	0000007c PtlNewActivePunchHole_cancel
0012d45c g    DF .text	00000164 PtlNewUdpBroker_connect
0012baa8 g    DF .text	000001d8 PtlNewActivePunchHole_connect
00123ca0 g    DF .text	00000018 _Z22PtlNewStaticInfo_resetv
001240b4 g    DF .text	0000001c _Z35PtlNewStaticInfo_assign_static_infoR15PTL_STATIC_INFO
001240d0 g    DF .text	0000007c _Z34PtlNewStaticInfo_set_getpeersn_num23P2P_CONNECT_STATIC_INFO
0012414c g    DF .text	0000007c _Z39PtlNewStaticInfo_set_getpeersn_succ_num23P2P_CONNECT_STATIC_INFO
001241c8 g    DF .text	0000007c _Z43PtlNewStaticInfo_set_getpeersn_in_cache_num23P2P_CONNECT_STATIC_INFO
00124244 g    DF .text	0000007c _Z42PtlNewStaticInfo_set_getpeersn_timeout_num23P2P_CONNECT_STATIC_INFO
001242c0 g    DF .text	0000007c _Z41PtlNewStaticInfo_set_getpeersn_cancel_num23P2P_CONNECT_STATIC_INFO
0012433c g    DF .text	0000007c _Z41PtlNewStaticInfo_set_getpeersn_failed_num23P2P_CONNECT_STATIC_INFO
001243b8 g    DF .text	0000001c _Z51PtlNewStaticInfo_set_getpeersn_parse_dns_failed_numv
001243d4 g    DF .text	0000001c _Z43PtlNewStaticInfo_set_getpeersn_get_ipv6_numv
001243f0 g    DF .text	0000001c _Z47PtlNewStaticInfo_set_getpeersn_get_ip_error_numv
0012440c g    DF .text	0000001c _Z46PtlNewStaticInfo_set_getpeersn_state_error_numv
00124428 g    DF .text	0000001c _Z53PtlNewStaticInfo_set_punch_hole_send_icallsomeone_numv
00124444 g    DF .text	0000001c _Z58PtlNewStaticInfo_set_punch_hole_recv_icallsomeone_resp_numv
00124460 g    DF .text	0000001c _Z61PtlNewStaticInfo_set_punch_hole_icallsomeone_resp_success_numv
0012447c g    DF .text	0000001c _Z57PtlNewStaticInfo_set_punch_hole_handle_punch_hold_cmd_numv
00124498 g    DF .text	0000001c _Z50PtlNewStaticInfo_set_udp_broker_accept_connect_numv
00124508 g    DF .text	0000001c _Z32PtlNewStaticInfo_set_udt_syn_numv
00124524 g    DF .text	0000001c _Z32PtlNewStaticInfo_set_udt_ack_numv
00124540 g    DF .text	0000001c _Z39PtlNewStaticInfo_set_udt_keep_alive_numv
0012455c g    DF .text	0000001c _Z34PtlNewStaticInfo_set_udt_reset_numv
00124578 g    DF .text	0000001c _Z35PtlNewStaticInfo_set_udt_resend_numv
00124594 g    DF .text	0000001c _Z40PtlNewStaticInfo_set_udt_data_packet_numv
001245b0 g    DF .text	0000004c _ZN5Upnpc10CanSetUpnpEtt
002f0a10 g    DO .bss	00000014 _ZN5Upnpc14m_upnpTaskInfoE
0015e844 g    DF .text	00000070 sd_create_task
00124fe0 g    DF .text	000007c0 _ZN5Upnpc13WorkThreadFunEPv
00124dd8 g    DF .text	0000004c _ZN5Upnpc10StartTimerEj
0012584c g    DF .text	00000004 _ZN5Upnpc13HandleTimeOutEPvS0_
00124e24 g    DF .text	0000002c _ZN5UpnpcC2Ev
00124e50 g    DF .text	0000003c _ZN5Upnpc11CancelTimerEv
00124e8c g    DF .text	00000014 _ZN5UpnpcD2Ev
00124ea0 g    DF .text	000000ac _ZN5Upnpc9ReSetUpnpEv
00124f4c g    DF .text	0000004c _ZN5Upnpc10ChangeWifiEv
002f0a24 g    DO .bss	00000001 _ZN5Upnpc15m_bAllowSetUpnpE
00124fac g    DF .text	00000034 _ZN5Upnpc14SetSelfIsInNatEv
0015e93c g    DF .text	00000010 sd_pthread_detach
0018c68c g    DF .text	0000005c upnpDiscover
0018f0e0 g    DF .text	00000020 freeUPNPDevlist
0018c8ec g    DF .text	000002dc UPNP_GetValidIGD
0018d2b0 g    DF .text	00000104 UPNP_GetExternalIPAddress
0018c824 g    DF .text	00000054 FreeUPNPUrls
0018d7b8 g    DF .text	00000138 UPNP_DeletePortMapping
0018de38 g    DF .text	0000027c UPNP_GetSpecificPortMappingEntry
001699d8 g    DF .text	00000004 sd_strcmp
0018d3b4 g    DF .text	000001e4 UPNP_AddPortMapping
001257a0 g    DF .text	000000ac _ZN5Upnpc21HandleTimeOutInternalEv
00128738 g    DF .text	00000068 PtlNewPingServer_send_ping_cmd
00125850 g    DF .text	0000002c _Z39VodNewUdtHandler_recv_buffer_comparatorPvS_
00167da4 g    DF .text	00000018 vod_bitmap_init
00167dfc g    DF .text	00000090 vod_bitmap_resize
00167dbc g    DF .text	00000040 vod_bitmap_uninit
00127b90 g    DF .text	000000fc VodNewUdtSocket_create_socket_and_bind
00127c8c g    DF .text	000001a4 VodNewUdtSocket_close
00125934 g    DF .text	0000001c _Z39VodNewUdtHandler_start_connet_out_timerP17tagVOD_UDT_DEVICE
00125950 g    DF .text	0000001c VodNewUdtHandler_stop_connet_out_timer
0012596c g    DF .text	00000010 _Z39VodNewUdtHandler_start_total_loop_timerP17tagVOD_UDT_DEVICE
0012597c g    DF .text	00000010 VodNewUdtHandler_stop_total_loop_timer
00127fe8 g    DF .text	000000cc VodNewUdtCmdSender_syn
00125a48 g    DF .text	00000048 _Z29VodNewUdtHandler_set_udt_infoP17tagVOD_UDT_DEVICEjjjjjjj
00125aec g    DF .text	00000048 VodNewUdtHandler_notify_send_callback
00125b34 g    DF .text	00000008 VodNewUdtHandler_update_last_send_package_time
00125b3c g    DF .text	00000008 _Z46VodNewUdtHandler_update_last_recv_package_timeP17tagVOD_UDT_DEVICE
00125b44 g    DF .text	00000024 VodNewUdtHandler_update_real_send_window
00128414 g    DF .text	0000001c VodNewUdtSlowStartCca_get_cur_congestion_window
00125b68 g    DF .text	00000020 _Z39VodNewUdtHandler_get_remain_send_windowP17tagVOD_UDT_DEVICE
00125b88 g    DF .text	0000012c VodNewUdtHandler_update_waiting_send_queue
001273a4 g    DF .text	000000d0 VodNewUdtCmdBuild_data_package_header
001281b0 g    DF .text	00000040 VodNewUdtCmdSender_data_package
00125cb4 g    DF .text	00000024 _Z38VodNewUdtHandler_is_seq_in_send_windowP17tagVOD_UDT_DEVICEj
00125cd8 g    DF .text	000000b0 VodNewUdtHandler_update_had_send_queue
00127054 g    DF .text	00000010 VodNewUdtRttCalculator_get_rtt_retransmit_timeout
0012838c g    DF .text	00000088 VodNewUdtSlowStartCca_handle_package_lost
00126f84 g    DF .text	00000040 VodNewUdtRttCalculator_handle_retransmit
001281f0 g    DF .text	000000a0 VodNewUdtCmdSender_resend_data_package
00125d88 g    DF .text	00000008 VodNewUdtHandler_recv_keepalive
00173bec g    DF .text	00000008 set_size
00174180 g    DF .text	00000060 set_erase_iterator
00128290 g    DF .text	000000d8 VodNewUdtCmdSender_reset
00128124 g    DF .text	0000008c VodNewUdtCmdSender_keepalive
001280b4 g    DF .text	00000070 VodNewUdtCmdSender_ack_answer
00125fd4 g    DF .text	00000140 _Z38VodNewUdtHandler_notify_connect_resultP17tagVOD_UDT_DEVICEi
00128368 g    DF .text	00000024 VodNewUdtSlowStartCca_init
00126f5c g    DF .text	00000028 VodNewUdtRttCalculator_init
00126198 g    DF .text	000000d0 _Z36VodNewUdtHandler_handle_recv_syn_cmdP17tagVOD_UDT_DEVICEP10tagSYN_CMDjt
00126268 g    DF .text	00000134 VodNewUdtHandler_handle_syn_cmd
00127f88 g    DF .text	00000030 VodNewUdtDeviceManager_find_device
0012db34 g    DF .text	00000064 _Z34ptl_remove_passive_punch_hole_dataP10tagSYN_CMDPb
0012fe0c g    DF .text	00000010 _ZN11P2pStatInfo34IncreaseRecvPassivePunchHoleSynNumEv
0012639c g    DF .text	0000003c _Z27VodNewUdtHandler_update_rttP17tagVOD_UDT_DEVICEjjj
00126fc4 g    DF .text	00000088 VodNewUdtRttCalculator_update
001263d8 g    DF .text	00000114 VodNewUdtHandler_device_rebuild_package_and_send
0012666c g    DF .text	00000038 VodNewUdtHandler_handle_recv_reset
001266a4 g    DF .text	0000013c VodNewUdtHandler_update_recv_buffer_set
00126854 g    DF .text	00000068 _Z37VodNewUdtHandler_update_next_recv_seqP17tagVOD_UDT_DEVICE
001268bc g    DF .text	00000038 _Z38VodNewUdtHandler_is_seq_in_recv_windowP17tagVOD_UDT_DEVICEjj
001268f4 g    DF .text	00000044 _Z38VodNewUdtHandler_is_ack_in_send_windowP17tagVOD_UDT_DEVICEjj
00126938 g    DF .text	00000038 _Z38VodNewUdtHandler_print_bitmap_pkt_infoP17tagVOD_UDT_DEVICEjP9tagBITMAP
00167f08 g    DF .text	00000008 vod_bitmap_bit_count
00167f10 g    DF .text	00000044 vod_bitmap_at
00126970 g    DF .text	00000300 _Z34VodNewUdtHandler_handle_ack_answerP17tagVOD_UDT_DEVICEjjjjjPcj
00167f8c g    DF .text	000000a4 vod_bitmap_from_bits
00172afc g    DF .text	00000070 list_erase
00126c70 g    DF .text	00000080 VodNewUdtHandler_device_recv_advance_ack_cmd
00126cf0 g    DF .text	000001d0 VodNewUdtHandler_handle_data_package
0012704c g    DF .text	00000008 VodNewUdtRttCalculator_get_rtt
00126ec0 g    DF .text	0000009c VodNewUdtHandler_get_lost_packet_bitmap
00167ebc g    DF .text	0000004c vod_bitmap_set
00127064 g    DF .text	00000124 VodNewUdtCmdBuild_syn
00127188 g    DF .text	00000170 VodNewUdtCmdBuild_ack_answer
001272f8 g    DF .text	000000ac VodNewUdtCmdBuild_keepalive
00127474 g    DF .text	000000ac VodNewUdtCmdBuild_reset
00127520 g    DF .text	000000b4 _Z22VodNewUdtSocket_createP7ev_loopPv
00127764 g    DF .text	000000a8 _Z34VodNewUdtSocket_handle_send_resultiPvS_S_
00127a38 g    DF .text	00000158 _Z34VodNewUdtSocket_handle_recv_resultiPcPvS0_jt
001275d4 g    DF .text	0000003c _Z26VodNewUdtSocket_proxy_bindP20VOD_SOCKET_UDP_PROXYP11sockaddr_in
00127610 g    DF .text	00000014 _Z34VodNewUdtSocket_set_local_udp_portt
001276c8 g    DF .text	0000009c _Z41VodNewUdtSocket_update_waiting_send_queueP14VOD_UDT_SOCKET
0012e220 g    DF .text	0000003c VodNewUdtCmdReceiver_syn
0012e25c g    DF .text	00000064 VodNewUdtCmdReceiver_keepalive
0012e2c0 g    DF .text	00000064 VodNewUdtCmdReceiver_reset
0012e324 g    DF .text	00000090 VodNewUdtCmdReceiver_advance_data
0012e3b4 g    DF .text	00000058 VodNewUdtCmdReceiver_advance_ack
00127e30 g    DF .text	00000054 VodNewUdtDeviceManager_conn_id_comparator
00127e84 g    DF .text	00000004 _Z19VodPrintVOD_CONN_IDP14tagVOD_CONN_ID
00000000      DF *UND*	00000000 printf
00127fb8 g    DF .text	00000030 VodNewUdtCmdSender_send_cmd_cb
00000000      DF *UND*	00000000 __aeabi_uidiv
00128430 g    DF .text	00000008 VodNewUdtSlowStartCca_get_min_congestion_window
00128438 g    DF .text	0000001c _Z35PtlNewPingServer_send_logout_cmd_cbiiPv
00128454 g    DF .text	0000001c _Z33PtlNewPingServer_send_ping_cmd_cbiiPv
00128470 g    DF .text	0000009c _Z35PtlNewPingServer_do_send_logout_cmdj
00128cf4 g    DF .text	0000007c PtlNewPingServerCmdBuilder_build_logout_cmd
002f0a70 g    DO .bss	00000848 g_ptl_ping_server
0012850c g    DF .text	000000a4 _Z33PtlNewPingServer_do_send_ping_cmdj
00128e40 g    DF .text	00000080 PtlNewPingServerCmdBuilder_build_ping_cmd
001285b0 g    DF .text	00000058 _Z28PtlNewPingServer_parse_ip_cbiPvPKv
00128608 g    DF .text	00000030 _Z29PtlNewPingServer_canel_xl_dnsRy
00128638 g    DF .text	00000038 _Z40PtlNewPingServer_start_ping_server_timerv
00128670 g    DF .text	00000024 _Z39PtlNewPingServer_stop_ping_server_timerv
00128694 g    DF .text	00000010 _Z26PtlNewPingServer_stop_pingv
001286d4 g    DF .text	00000064 _Z32PtlNewPingServer_send_logout_cmdv
001287a0 g    DF .text	00000014 _Z27PtlNewPingServer_start_pingv
001289d8 g    DF .text	00000004 _Z36PtlNewPingServer_handle_ping_timeoutP7ev_loopP8ev_timeri
001289dc g    DF .text	00000224 _Z46PtlNewPingServerCmdBuilder_set_ping_cmd_bufferPPcPjP8PING_CMD
00128c00 g    DF .text	000000ac _Z51PtlNewPingServerCmdBuilder_set_logout_cmd_to_bufferPPcPjP10LOGOUT_CMD
00128cac g    DF .text	00000048 _Z41PtlNewPingServerCmdBuilder_set_logout_cmdP10LOGOUT_CMD
00128d70 g    DF .text	000000d0 _Z39PtlNewPingServerCmdBuilder_set_ping_cmdP8PING_CMDt
00173178 g    DF .text	00000008 _ZN10GlobalInfo17GetProductVersionEv
0012fddc g    DF .text	00000010 _ZN11P2pStatInfo29IncreaseRecvSomeOneCallYouNumEv
0012e16c g    DF .text	00000048 _Z37PtlNewHandleSomeonecallyou_handle_cmdPcjjt
0012c3b4 g    DF .text	00000040 PtlNewActivePunchHole_handle_icallsomeone_resp
0012acf4 g    DF .text	00000028 PtlNewNatServer_handle_get_peersn_resp
0012c13c g    DF .text	0000003c PtlNewActivePunchHole_handle_punch_hold_cmd
00129e74 g    DF .text	00000028 PtlNewSuperNode_handle_sn2nn_logout_cmd
0012d0ec g    DF .text	000002d0 PtlNewPassiveUdtBroker_handle_udp_broker_cmd
00129674 g    DF .text	00000028 PtlNewSuperNode_handle_ping_sn_resp_cmd
00129be0 g    DF .text	0000002c PtlNewSuperNode_handle_get_mysn_resp_cmd
00129058 g    DF .text	00000264 _Z32PtlNewSuperNode_parse_sn_host_cbiPvPKv
001308bc g    DF .text	00000040 _ZN11P2pStatInfo14AddP2pStatInfoERKSsyi
00133290 g    DF .text	00000108 _ZN11P2pStatInfo14AddP2pStatInfoERKSsS1_
0012eaf8 g    DF .text	0000008c PtlNewSuperNodeCmdBuilder_build_get_mysn_cmd
002f12b8 g    DO .bss	00000090 g_mysn_info
002f1350 g    DO .bss	000008a0 g_ptl_nat_server
001292bc g    DF .text	0000001c _Z36PtlNewSuperNode_send_get_mysn_cmd_cbiiPv
001292d8 g    DF .text	0000001c _Z35PtlNewSuperNode_send_ping_sn_cmd_cbiiPv
001292f4 g    DF .text	0000001c _Z40PtlNewSuperNode_send_nn2sn_logout_cmd_cbiiPv
00129310 g    DF .text	00000054 _Z29PtlNewSuperNode_parse_sn_hostv
00129364 g    DF .text	000000f8 _Z41PtlNewSuperNode_extract_get_mysn_resp_cmdPcjP17GET_MYSN_RESP_CMD
0012945c g    DF .text	000000b4 _Z32PtlNewSuperNode_send_ping_sn_cmdjt
0012ebdc g    DF .text	00000078 PtlNewSuperNodeCmdBuilder_build_ping_sn_cmd
00129510 g    DF .text	00000084 _Z40PtlNewSuperNode_extract_ping_sn_resp_cmdPcjP16PING_SN_RESP_CMD
00129594 g    DF .text	000000e0 _Z37PtlNewSuperNode_recv_ping_sn_resp_cmdP16PING_SN_RESP_CMD
0012969c g    DF .text	00000054 _Z37PtlNewSuperNode_send_nn2sn_logout_cmdjt
0012ec94 g    DF .text	00000078 PtlNewSuperNodeCmdBuilder_build_nn2sn_logout_cmd
001296f0 g    DF .text	00000084 _Z40PtlNewSuperNode_extract_sn2nn_logout_cmdPcjP16SN2NN_LOGOUT_CMD
00129774 g    DF .text	00000038 _Z36PtlNewSuperNode_start_get_mysn_timerv
001297ac g    DF .text	0000013c _Z20PtlNewSuperNode_workv
00129994 g    DF .text	000000a8 _Z39PtlNewSuperNode_handle_get_mysn_timeoutP7ev_loopP8ev_timeri
00129d20 g    DF .text	000000b8 _Z38PtlNewSuperNode_handle_ping_sn_timeoutP7ev_loopP8ev_timeri
00129a3c g    DF .text	00000038 _Z35PtlNewSuperNode_stop_get_mysn_timerv
00129a74 g    DF .text	00000038 _Z35PtlNewSuperNode_start_ping_sn_timerv
00129aac g    DF .text	00000134 _Z38PtlNewSuperNode_recv_get_mysn_resp_cmdP17GET_MYSN_RESP_CMD
00129c0c g    DF .text	00000038 _Z34PtlNewSuperNode_stop_ping_sn_timerv
00129c44 g    DF .text	00000040 _Z32PtlNewSuperNode_set_mysn_invalidv
00129c84 g    DF .text	00000038 PtlNewSuperNode_logout_mysn
00129cbc g    DF .text	0000002c _Z20PtlNewSuperNode_exitv
00129dd8 g    DF .text	0000009c _Z37PtlNewSuperNode_recv_sn2nn_logout_cmdP16SN2NN_LOGOUT_CMD
00129e9c g    DF .text	00000004 _Z44PtlNewNatServer_peersn_cache_data_comparatorPvS_
00129ea0 g    DF .text	0000001c _Z34PtlNewNatServer_send_get_peersn_cbiiPv
00129ebc g    DF .text	0000011c _Z33PtlNewNatServer_parse_nat_host_cbiPvPKv
0012eda4 g    DF .text	000000a4 PtlNewNatServerCmdBuilder_build_get_peersn_cmd
00129fd8 g    DF .text	00000034 _Z42PtlNewNatServer_get_peersn_data_comparatorPvS_
0012a00c g    DF .text	00000040 _Z40PtlNewNatServer_malloc_peersn_cache_dataPP17PEERSN_CACHE_DATA
0012a04c g    DF .text	00000030 _Z38PtlNewNatServer_free_peersn_cache_dataP17PEERSN_CACHE_DATA
0012a07c g    DF .text	000000bc _Z43PtlNewNatServer_handle_peersn_cache_timeoutP7ev_loopP8ev_timeri
0012a138 g    DF .text	00000060 _Z43PtlNewNatServer_erase_all_peersn_cache_datav
0012a198 g    DF .text	0000004c _Z37PtlNewNatServer_erase_get_peersn_dataP15GET_PEERSN_DATA
0012a288 g    DF .text	00000074 _Z45PtlNewNatServer_erase_all_get_peersn_resquestv
0012a2fc g    DF .text	00000030 _Z27PtlNewNatServer_start_timerP7ev_loopP8ev_timerPb
0012a8b8 g    DF .text	00000118 _Z41PtlNewNatServer_handle_get_peersn_timeoutP7ev_loopP8ev_timeri
0012a5c4 g    DF .text	00000024 _Z26PtlNewNatServer_stop_timerP7ev_loopP8ev_timerPb
0012a630 g    DF .text	00000078 _Z34PtlNewNatServer_is_peersn_in_cachePKc
0012a6a8 g    DF .text	00000054 _Z30PtlNewNatServer_parse_nat_hostP15GET_PEERSN_DATA
0012a6fc g    DF .text	000000d4 _Z38PtlNewNatServer_handle_peersn_in_cacheP15GET_PEERSN_DATA
0012a9d0 g    DF .text	00000198 _Z43PtlNewNatServer_extract_get_peersn_resp_cmdPcjP19GET_PEERSN_RESP_CMD
0012ab68 g    DF .text	000000a4 _Z28PtlNewNatServer_cache_peersnPKcjt
0012ac0c g    DF .text	000000e8 _Z40PtlNewNatServer_recv_get_peersn_resp_cmdP19GET_PEERSN_RESP_CMD
0012ad1c g    DF .text	0000008c _Z40PtlNewNatServer_notify_get_peersn_resultP19GET_PEERSN_RESP_CMDP15GET_PEERSN_DATA
0012ada8 g    DF .text	000000b8 _Z42PtlNewCmdBuilder_set_punch_hole_cmd_bufferPPcPjP14PUNCH_HOLE_CMD
0012ae60 g    DF .text	00000080 _Z28PtlNewCmdBuilder_header_hashPKcj
0012aff8 g    DF .text	00000020 _Z52PtlNewCmdBuilder_set_transfer_layer_control_resp_cmdP31TRANSFER_LAYER_CONTROL_RESP_CMDj
0012b018 g    DF .text	00000094 _Z62PtlNewCmdBuilder_set_transfer_layer_control_resp_cmd_to_bufferPPcPjP31TRANSFER_LAYER_CONTROL_RESP_CMD
0012b12c g    DF .text	0000004c _Z36PtlNewCmdBuilder_set_broker2_req_cmdyP15BROKER2_REQ_CMDjPKct
0012b178 g    DF .text	000000c8 _Z46PtlNewCmdBuilder_set_broker2_req_cmd_to_bufferyPPcPjP15BROKER2_REQ_CMD
0012b2e8 g    DF .text	000000ec _Z49PtlNewCmdBuilder_set_udp_broker_req_cmd_to_bufferPPcPjP18UDP_BROKER_REQ_CMD
0012b3d4 g    DF .text	0000010c _Z47PtlNewCmdBuilder_set_icallsomeone_cmd_to_bufferPPcPjP16ICALLSOMEONE_CMD
0012b4e0 g    DF .text	00000050 _Z35PtlNewCmdBuilder_set_punch_hole_cmdP14PUNCH_HOLE_CMDtt
0012b530 g    DF .text	0000008c PtlNewCmdBuilder_build_punch_hole_cmd
0012b5bc g    DF .text	00000078 _Z37PtlNewCmdBuilder_set_icallsomeone_cmdP16ICALLSOMEONE_CMDPKct
0012b634 g    DF .text	00000088 PtlNewCmdBuilder_build_icallsomeone_cmd
0012b6bc g    DF .text	000000e0 _Z39PtlNewCmdBuilder_set_udp_broker_req_cmdP18UDP_BROKER_REQ_CMDjPKct
0012b79c g    DF .text	00000090 PtlNewCmdBuilder_build_udp_broker_req_cmd
0012b848 g    DF .text	00000054 _Z41PtlNewActivePunchHole_data_set_comparatorPvS_
0012b8ec g    DF .text	00000044 _Z33PtlNewActivePunchHole_start_timerP22ACTIVE_PUNCH_HOLE_DATAdd
0012b930 g    DF .text	00000034 _Z34PtlNewActivePunchHole_cancel_timerP22ACTIVE_PUNCH_HOLE_DATA
0012b964 g    DF .text	00000088 _Z41PtlNewActivePunchHole_erase_strategy_dataP22ACTIVE_PUNCH_HOLE_DATA
0012ba34 g    DF .text	00000074 _Z42PtlNewActivePunchHole_udt_connect_callbackiPvS_
0012bd60 g    DF .text	00000084 _Z41PtlNewActivePunchHole_get_peersn_callbackijtPv
0012bcfc g    DF .text	00000064 _Z43PtlNewActivePunchHole_send_icallsomeone_cmdPKcS0_tjt
0012bde4 g    DF .text	00000184 _Z51PtlNewActivePunchHole_extract_icallsomeone_resp_cmdPcjP21ICALLSOMEONE_RESP_CMD
0012bf68 g    DF .text	00000064 _Z42PtlNewActivePunchHole_icallsomeone_timeoutP22ACTIVE_PUNCH_HOLE_DATA
0012bfcc g    DF .text	000000b0 _Z44PtlNewActivePunchHole_extract_punch_hole_cmdPcjP14PUNCH_HOLE_CMD
0012c07c g    DF .text	000000c0 _Z41PtlNewActivePunchHole_recv_punch_hole_cmdP14PUNCH_HOLE_CMDjt
0012c178 g    DF .text	00000094 _Z33PtlNewActivePunchHole_udt_connectP22ACTIVE_PUNCH_HOLE_DATA
0012c20c g    DF .text	000001a8 _Z48PtlNewActivePunchHole_recv_icallsomeone_resp_cmdP21ICALLSOMEONE_RESP_CMD
0012c3f4 g    DF .text	00000054 _Z48PtlNewActivePunchHole_handle_udt_connect_timeoutP22ACTIVE_PUNCH_HOLE_DATA
0012c468 g    DF .text	00000024 _Z34PtlNewActiveTcpDirectly_comparatorPvS_
0012c4bc g    DF .text	00000020 _Z35PtlNewActiveTcpDirectly_start_timerP8ev_timer
0012c860 g    DF .text	00000038 _Z40PtlNewActiveTcpDirectly_connect_callbackiPvS_
0012c744 g    DF .text	00000020 _Z34PtlNewActiveTcpDirectly_stop_timerP8ev_timer
0012c764 g    DF .text	00000058 _Z43PtlNewActiveTcpDirectly_erase_strategy_dataP21PTL_TCP_DIRECTLY_DATA
0012c8f0 g    DF .text	00000030 _Z35PtlNewPassiveUdtDirectly_comparatorPvS_
0012fcb4 g    DF .text	00000010 _ZN11P2pStatInfo33IncreasePassiveUdpDirectlyConnNumEv
0012cd78 g    DF .text	00000080 _Z41PtlNewPassiveUdtDirectly_connect_callbackiPvS_
0012ccac g    DF .text	00000080 _Z44PtlNewPassiveUdtDirectly_erase_strategy_dataP25PASSIVE_UDT_DIRECTLY_DATA
0012fe1c g    DF .text	00000010 _ZN11P2pStatInfo38IncreasePassivePunchHoleConnSuccessNumEv
0012fdcc g    DF .text	00000010 _ZN11P2pStatInfo41IncreasePassiveUdpDirectlyConnCallbackNumEv
0012cdf8 g    DF .text	00000024 _Z33PtlNewPassiveUdtBroker_comparatorPvS_
0012ce1c g    DF .text	00000044 _Z42PtlNewPassiveUdtBroker_erase_strategy_dataP23PASSIVE_UDT_BROKER_DATA
0012ce60 g    DF .text	0000004c _Z39PtlNewPassiveUdtBroker_connect_callbackiPvS_
0012fdbc g    DF .text	00000010 _ZN11P2pStatInfo39IncreasePassiveUdpBrokerConnCallbackNumEv
0012cf24 g    DF .text	000000c8 _Z45PtlNewPassiveUdtBroker_extract_udp_broker_cmdPcjP14UDP_BROKER_CMD
0012cfec g    DF .text	00000100 _Z30PtlNewPassiveUdtBroker_connectP23PASSIVE_UDT_BROKER_DATA
0012fcc4 g    DF .text	00000010 _ZN11P2pStatInfo31IncreasePassiveUdpBrokerConnNumEv
0012fd8c g    DF .text	00000010 _ZN11P2pStatInfo27IncreasePassiveUdpBrokerNumEv
0012d3bc g    DF .text	00000024 _Z31PtlNewUdpBroker_data_comparatorPvS_
0012d3e0 g    DF .text	0000001c _Z37PtlNewUdpBroker_udp_broker_req_cmd_cbiiPv
0012d854 g    DF .text	000000cc _Z35PtlNewUdpBroker_get_peersn_callbackijtPv
0012d5c0 g    DF .text	00000020 _Z27PtlNewUdpBroker_start_timerP8ev_timer
0012d5e0 g    DF .text	00000020 _Z26PtlNewUdpBroker_stop_timerP8ev_timer
0012d600 g    DF .text	000000b0 _Z35PtlNewUdpBroker_erase_strategy_dataP19PTL_UDP_BROKER_DATA
0012d920 g    DF .text	00000048 _Z36PtlNewUdpBroker_udt_connect_callbackiPvS_
0012d968 g    DF .text	00000058 _Z34PtlNewUdpBroker_find_strategy_dataj
0012da7c g    DF .text	0000006c _Z33ptl_erase_passive_punch_hole_dataP26tagPASSIVE_PUNCH_HOLE_DATA
0012db98 g    DF .text	00000180 _Z30ptl_extract_someonecallyou_cmdPcjP18SOMEONECALLYOU_CMD
0016a410 g    DF .text	00000034 sd_get_int8
0016a7a4 g    DF .text	00000058 sd_get_bytes
0016a390 g    DF .text	00000080 sd_get_int16_from_lt
0012dd18 g    DF .text	000000fc _Z24ptl_build_punch_hole_cmdPPcPjP14PUNCH_HOLE_CMD
0016a668 g    DF .text	00000088 sd_set_int32_to_lt
0016a774 g    DF .text	00000030 sd_set_int8
0016a7fc g    DF .text	0000006c sd_set_bytes
0016a6f0 g    DF .text	00000084 sd_set_int16_to_lt
0012de14 g    DF .text	000001d4 _Z23ptl_send_punch_hole_cmdttjttt
0012dfe8 g    DF .text	00000184 _Z27ptl_recv_someonecallyou_cmdP18SOMEONECALLYOU_CMD
0012fdfc g    DF .text	00000010 _ZN11P2pStatInfo24IncreaseSendPunchHoleNumEv
0012e1b4 g    DF .text	0000006c _Z29ptl_handle_punch_hole_timeoutP7ev_loopP8ev_timeri
0012fdec g    DF .text	00000010 _ZN11P2pStatInfo36IncreaseFailExtractSomeOneCallYouNumEv
0012fe2c g    DF .text	00000010 _ZN11P2pStatInfo34IncreasePassivePunchHoleTimeoutNumEv
0012e40c g    DF .text	000000ec VodNewUdtCmdExtractor_syn
0012e4f8 g    DF .text	00000090 VodNewUdtCmdExtractor_keepalive
0012e588 g    DF .text	00000090 VodNewUdtCmdExtractor_reset
0012e618 g    DF .text	000000f8 VodNewUdtCmdExtractor_advanced_data
0012e710 g    DF .text	00000118 VodNewUdtCmdExtractor_advanced_ack
0012e828 g    DF .text	000000e8 _Z49PtlNewSuperNodeCmdBuilder_set_get_mysn_cmd_bufferPPcPjP12GET_MYSN_CMD
0012e910 g    DF .text	000000e0 _Z51PtlNewSuperNodeCmdBuilder_set_ping_sn_cmd_to_bufferPPcPjP11PING_SN_CMD
0012e9f0 g    DF .text	000000a0 _Z53PtlNewSuperNodeCmdBuilder_set_nn2sn_logout_cmd_bufferPPcPjP16NN2SN_LOGOUT_CMD
0012ea90 g    DF .text	00000068 _Z42PtlNewSuperNodeCmdBuilder_set_get_mysn_cmdP12GET_MYSN_CMDPKc
0012eb84 g    DF .text	00000058 _Z41PtlNewSuperNodeCmdBuilder_set_ping_sn_cmdP11PING_SN_CMD
0012ec54 g    DF .text	00000040 _Z46PtlNewSuperNodeCmdBuilder_set_nn2sn_logout_cmdP16NN2SN_LOGOUT_CMD
0012ed0c g    DF .text	00000030 _Z44PtlNewNatServerCmdBuilder_set_get_peersn_cmdP14GET_PEERSN_CMDPKc
0012ed3c g    DF .text	00000068 _Z54PtlNewNatServerCmdBuilder_set_get_peersn_cmd_to_bufferPPcPjP14GET_PEERSN_CMD
0012ee48 g    DF .text	00000044 _ZN15TaskCrucialInfoC2Ev
0012f2b0  w   DF .text	00000038 _ZNSt8_Rb_treeIySt4pairIKyPSt3mapI11CrucialItemiSt4lessIS3_ESaIS0_IKS3_iEEEESt10_Select1stISB_ES4_IyESaISB_EE8_M_eraseEPSt13_Rb_tree_nodeISB_E
0012ee8c g    DF .text	00000018 _ZN15TaskCrucialInfoD2Ev
0012f2e8  w   DF .text	00000060 _ZNSt8_Rb_treeIySt4pairIKyPSt3mapI11CrucialItemiSt4lessIS3_ESaIS0_IKS3_iEEEESt10_Select1stISB_ES4_IyESaISB_EE4findERS1_
0012f348  w   DF .text	00000038 _ZNSt8_Rb_treeI11CrucialItemSt4pairIKS0_iESt10_Select1stIS3_ESt4lessIS0_ESaIS3_EE8_M_eraseEPSt13_Rb_tree_nodeIS3_E
0012f380  w   DF .text	0000009c _ZNSt8_Rb_treeIySt4pairIKyPSt3mapI11CrucialItemiSt4lessIS3_ESaIS0_IKS3_iEEEESt10_Select1stISB_ES4_IyESaISB_EE24_M_get_insert_unique_posERS1_
0012f41c  w   DF .text	000001b4 _ZNSt8_Rb_treeIySt4pairIKyPSt3mapI11CrucialItemiSt4lessIS3_ESaIS0_IKS3_iEEEESt10_Select1stISB_ES4_IyESaISB_EE17_M_insert_unique_ESt23_Rb_tree_const_iteratorISB_ERKSB_
0012f5d0  w   DF .text	00000084 _ZNSt3mapIyPS_I11CrucialItemiSt4lessIS0_ESaISt4pairIKS0_iEEES1_IyESaIS3_IKyS8_EEEixERSA_
0012f654  w   DF .text	00000090 _ZNSt8_Rb_treeI11CrucialItemSt4pairIKS0_iESt10_Select1stIS3_ESt4lessIS0_ESaIS3_EE24_M_get_insert_unique_posERS2_
0012f6e4  w   DF .text	000001a0 _ZNSt8_Rb_treeI11CrucialItemSt4pairIKS0_iESt10_Select1stIS3_ESt4lessIS0_ESaIS3_EE17_M_insert_unique_ESt23_Rb_tree_const_iteratorIS3_ERKS3_
0012f884  w   DF .text	00000078 _ZNSt3mapI11CrucialItemiSt4lessIS0_ESaISt4pairIKS0_iEEEixERS4_
0012f124 g    DF .text	000000cc _ZN15TaskCrucialInfo18GetCrucialBoolInfoEy11CrucialItem
0012f8fc g    DF .text	000000c8 _ZN11P2pStatInfoC2Ev
0012fc84 g    DF .text	00000008 _ZN11P2pStatInfo20GetSendInterestedNumEv
0012fc8c g    DF .text	00000008 _ZN11P2pStatInfo27GetSuccessInterestedPeerNumEv
0012fe3c g    DF .text	00000008 _ZN11P2pStatInfo23SetUpnpSwitchForP2pStatEb
0012fe44 g    DF .text	00000098 _ZN11P2pStatInfo18DestroyP2pStatInfoEj
0012fedc g    DF .text	00000168 _ZN11P2pStatInfo15GetAllStatValueER11StatExtData
00133dd4 g    DF .text	00000138 _ZN11StatExtData9AddStringESsRKSs
00133398  w   DF .text	00000040 _ZNSt8_Rb_treeISsSt4pairIKSsxESt10_Select1stIS2_ESt4lessISsESaIS2_EE8_M_eraseEPSt13_Rb_tree_nodeIS2_E
001333d8  w   DF .text	00000040 _ZNSt8_Rb_treeISsSt4pairIKSsP26P2P_CONNECTION_STATIC_INFOESt10_Select1stIS4_ESt4lessISsESaIS4_EE8_M_eraseEPSt13_Rb_tree_nodeIS4_E
00133418  w   DF .text	00000040 _ZNSt8_Rb_treeIjSt4pairIKjN11P2pStatInfo10ErrNumInfoEESt10_Select1stIS4_ESt4lessIjESaIS4_EE8_M_eraseEPSt13_Rb_tree_nodeIS4_E
00130044 g    DF .text	0000004c _ZN11P2pStatInfoD2Ev
00130044 g    DF .text	0000004c _ZN11P2pStatInfoD1Ev
00133458  w   DF .text	000000c0 _ZNSt8_Rb_treeISsSt4pairIKSsP26P2P_CONNECTION_STATIC_INFOESt10_Select1stIS4_ESt4lessISsESaIS4_EE15_M_insert_equalERKS4_
00130254 g    DF .text	000000e0 _ZN11P2pStatInfo12GetStatValueERKSsRSs
00133518  w   DF .text	00000090 _ZNSt8_Rb_treeIjSt4pairIKjN11P2pStatInfo10ErrNumInfoEESt10_Select1stIS4_ESt4lessIjESaIS4_EE24_M_get_insert_unique_posERS1_
001335a8  w   DF .text	000001c8 _ZNSt8_Rb_treeIjSt4pairIKjN11P2pStatInfo10ErrNumInfoEESt10_Select1stIS4_ESt4lessIjESaIS4_EE17_M_insert_unique_ESt23_Rb_tree_const_iteratorIS4_ERKS4_
00133770  w   DF .text	000000e0 _ZNSt3mapIjN11P2pStatInfo10ErrNumInfoESt4lessIjESaISt4pairIKjS1_EEEixERS5_
00133850  w   DF .text	000000a0 _ZNSt8_Rb_treeISsSt4pairIKSsxESt10_Select1stIS2_ESt4lessISsESaIS2_EE24_M_get_insert_unique_posERS1_
001338f0  w   DF .text	000001bc _ZNSt8_Rb_treeISsSt4pairIKSsxESt10_Select1stIS2_ESt4lessISsESaIS2_EE17_M_insert_unique_ESt23_Rb_tree_const_iteratorIS2_ERKS2_
00133aac  w   DF .text	000000b8 _ZNSt3mapISsxSt4lessISsESaISt4pairIKSsxEEEixERS3_
001303b8 g    DF .text	0000003c _ZN11P2pStatInfo11AddStatInfoERKSsyb
001303f4 g    DF .text	000001e8 _ZN11P2pStatInfo14AddP2pStatInfoEP26P2P_CONNECTION_STATIC_INFO
001305dc g    DF .text	000001e0 _ZN11P2pStatInfo15InitP2pStatInfoEv
001307bc g    DF .text	00000100 _ZN11P2pStatInfo25GetP2pStatValueByReportIdEjR11StatExtData
001308fc g    DF .text	000002d4 _ZN11P2pStatInfo14RetP2pStatInfoEv
00133cec g    DF .text	00000008 _ZN14TaskStatModule10GetStatKeyEv
00000000      DF *UND*	00000000 xl_stat_track_event
00133c60 g    DF .text	00000040 _ZN14TaskStatModuleC2Ev
00133ca0 g    DF .text	00000030 _ZN14TaskStatModule21ChangeStatNetWorkTypeE11NetWorkType
00000000      DF *UND*	00000000 xl_stat_set_current_net_type
00000000      DF *UND*	00000000 xl_stat_set_report_switch
00133cfc g    DF .text	000000d8 _ZN11StatExtData8AddInt64ESsy
00000000      DF *UND*	00000000 xl_stat_prepare_param
0017303c g    DF .text	00000008 _ZN10GlobalInfo7GetGuidEv
00173024 g    DF .text	00000008 _ZN10GlobalInfo10GetAppNameEv
0017304c g    DF .text	00000008 _ZN10GlobalInfo18GetStatCfgSavePathEv
00000000      DF *UND*	00000000 xl_stat_init
0013591c  w   DF .text	00000040 _ZNSt8_Rb_treeIjSt4pairIKjSsESt10_Select1stIS2_ESt4lessIjESaIS2_EE8_M_eraseEPSt13_Rb_tree_nodeIS2_E
00134350 g    DF .text	0000001c _ZN14TaskStatModuleD2Ev
0013595c  w   DF .text	00000058 _ZNSt8_Rb_treeIiSt4pairIKiN12TaskStatInfo18TaskStatInfoStructEESt10_Select1stIS4_ESt4lessIiESaIS4_EE4findERS1_
001359b4  w   DF .text	00000040 _ZNSt8_Rb_treeISsSt4pairIKSs8AvgValueESt10_Select1stIS3_ESt4lessISsESaIS3_EE8_M_eraseEPSt13_Rb_tree_nodeIS3_E
001359f4  w   DF .text	00000034 _ZN12TaskStatInfo18TaskStatInfoStructD2Ev
001359f4  w   DF .text	00000034 _ZN12TaskStatInfo18TaskStatInfoStructD1Ev
00135a28  w   DF .text	00000040 _ZNSt8_Rb_treeIiSt4pairIKiN12TaskStatInfo18TaskStatInfoStructEESt10_Select1stIS4_ESt4lessIiESaIS4_EE8_M_eraseEPSt13_Rb_tree_nodeIS4_E
00000000      DF *UND*	00000000 xl_stat_uninit
00135a68  w   DF .text	00000068 _ZNSt8_Rb_treeISsSt4pairIKSs8AvgValueESt10_Select1stIS3_ESt4lessISsESaIS3_EE4findERS1_
00135ad0  w   DF .text	00000090 _ZNSt8_Rb_treeIjSt4pairIKjSsESt10_Select1stIS2_ESt4lessIjESaIS2_EE24_M_get_insert_unique_posERS1_
00135b60  w   DF .text	000001c0 _ZNSt8_Rb_treeIjSt4pairIKjSsESt10_Select1stIS2_ESt4lessIjESaIS2_EE17_M_insert_unique_ESt23_Rb_tree_const_iteratorIS2_ERKS2_
00135d20  w   DF .text	000000d0 _ZNSt3mapIjSsSt4lessIjESaISt4pairIKjSsEEEixERS3_
00000000      DF *UND*	00000000 xl_stat_generate_seq_id
00134418 g    DF .text	00000038 _ZN14TaskStatModule8StartSDKEi
00000000      DF *UND*	00000000 xl_stat_start_heartbeat
00134450 g    DF .text	000000dc _ZN14TaskStatModule14ReportSDKTrackEi
00000000      DF *UND*	00000000 xl_stat_track_heartbeat
0013452c g    DF .text	000000dc _ZN14TaskStatModule7StopSDKEi
00000000      DF *UND*	00000000 xl_stat_end_heartbeat
00134608 g    DF .text	00000024 _ZN14TaskStatModule12GetReportKeyEi
00135df0  w   DF .text	000000d4 _ZNSt8_Rb_treeISsSt4pairIKSsxESt10_Select1stIS2_ESt4lessISsESaIS2_EE7_M_copyEPKSt13_Rb_tree_nodeIS2_EPSA_
00135ec4  w   DF .text	000000d4 _ZNSt8_Rb_treeISsSt4pairIKSs8AvgValueESt10_Select1stIS3_ESt4lessISsESaIS3_EE7_M_copyEPKSt13_Rb_tree_nodeIS3_EPSB_
00135f98  w   DF .text	000000d4 _ZNSt8_Rb_treeISsSt4pairIKSsSsESt10_Select1stIS2_ESt4lessISsESaIS2_EE7_M_copyEPKSt13_Rb_tree_nodeIS2_EPSA_
0013606c  w   DF .text	000001a4 _ZN12TaskStatInfo18TaskStatInfoStructC2ERKS0_
0013606c  w   DF .text	000001a4 _ZN12TaskStatInfo18TaskStatInfoStructC1ERKS0_
00136210  w   DF .text	00000090 _ZNSt8_Rb_treeIiSt4pairIKiN12TaskStatInfo18TaskStatInfoStructEESt10_Select1stIS4_ESt4lessIiESaIS4_EE24_M_get_insert_unique_posERS1_
001362a0  w   DF .text	000001c0 _ZNSt8_Rb_treeIiSt4pairIKiN12TaskStatInfo18TaskStatInfoStructEESt10_Select1stIS4_ESt4lessIiESaIS4_EE17_M_insert_unique_ESt23_Rb_tree_const_iteratorIS4_ERKS4_
00136460  w   DF .text	0000012c _ZNSt3mapIiN12TaskStatInfo18TaskStatInfoStructESt4lessIiESaISt4pairIKiS1_EEEixERS5_
0013462c g    DF .text	00000024 _ZN12TaskStatInfo9StartStatEi
001732fc g    DF .text	000000c0 _ZN10GlobalInfo16GetLocalPropertyERKSsRSs
0013491c g    DF .text	0000017c _ZN12TaskStatInfo8StopStatEiPKc
00134a98 g    DF .text	0000023c _ZN12TaskStatInfo12GetStatValueEiRKSsRSs
00134cd4 g    DF .text	00000088 _ZN12TaskStatInfo20GetTaskEnduranceTimeEi
00134d64 g    DF .text	00000044 _ZN12TaskStatInfo16GetTaskStartTimeEi
00268cdc g    DF .text	00000000 __aeabi_ldivmod
00134db0 g    DF .text	0000022c _ZN12TaskStatInfo15GetAllStatValueEiR11StatExtData
00134fdc g    DF .text	00000080 _ZN14TaskStatModule15ReportTaskTrackEi
00172f8c g    DF .text	00000008 _ZN10GlobalInfo9GetUserIdEv
0013564c g    DF .text	0000013c _ZN12TaskStatInfo11AddStatInfoEiRKSsS1_
0013579c g    DF .text	00000070 _ZN12TaskStatInfo11AddStatInfoEiRKSsyi
0013658c  w   DF .text	000000a0 _ZNSt8_Rb_treeISsSt4pairIKSs8AvgValueESt10_Select1stIS3_ESt4lessISsESaIS3_EE24_M_get_insert_unique_posERS1_
0013662c  w   DF .text	0000018c _ZNSt8_Rb_treeISsSt4pairIKSs8AvgValueESt10_Select1stIS3_ESt4lessISsESaIS3_EE17_M_insert_unique_ESt23_Rb_tree_const_iteratorIS3_ERKS3_
001367b8  w   DF .text	000000c4 _ZNSt3mapISs8AvgValueSt4lessISsESaISt4pairIKSsS0_EEEixERS4_
0013582c g    DF .text	000000d0 _ZN12TaskStatInfo15AddStatAvgValueEiRKSsxi
001371b4  w   DF .text	00000008 _ZN12IHubProtocol9KeepAliveEv
0013687c g    DF .text	00000010 _ZN25ProtocolQueryThundereInfo12GetPlainPackERj
0013688c g    DF .text	00000064 _ZN25ProtocolQueryThundereInfo13InitSetClientEP10IHubClient
001368f0 g    DF .text	00000004 _ZN22QueryThundereInfoParam9OutputLogEv
001368f4 g    DF .text	00000004 _ZN25QueryThundereInfoResponse9OutputLogEv
001371bc  w   DF .text	00000040 _ZN25QueryThundereInfoResponseD2Ev
002e12a0 g    DO .data.rel.ro	00000014 _ZTV25QueryThundereInfoResponse
001371bc  w   DF .text	00000040 _ZN25QueryThundereInfoResponseD1Ev
001371fc  w   DF .text	0000001c _ZN25QueryThundereInfoResponseD0Ev
001368f8 g    DF .text	00000004 _ZN25ProtocolQueryThundereInfo13OnQueryFailedEi
00137508 g    DF .text	00000058 _ZN12IHubProtocol15PostQueryFailedEi
00137218  w   DF .text	00000020 _ZN16ProtocolResponse5DeRefEv
001368fc g    DF .text	0000009c _ZN25ProtocolQueryThundereInfoD2Ev
001372e0 g    DF .text	00000080 _ZN12IHubProtocolD2Ev
002e12b8 g    DO .data.rel.ro	00000030 _ZTV25ProtocolQueryThundereInfo
001368fc g    DF .text	0000009c _ZN25ProtocolQueryThundereInfoD1Ev
00136998 g    DF .text	0000001c _ZN25ProtocolQueryThundereInfoD0Ev
001369b4 g    DF .text	00000048 _ZN25ProtocolQueryThundereInfoC2EP14IQueryHubEvent
00137240 g    DF .text	000000a0 _ZN12IHubProtocolC2E12ProtocolTypej
00137740 g    DF .text	00000108 _ZN12IHubProtocol5QueryEP13ProtocolParam
002e1290 g    DO .data.rel.ro	0000000c _ZTV22QueryThundereInfoParam
00136b28 g    DF .text	000000c8 _ZN25ProtocolQueryThundereInfo17ParsePlainPackageEPci
00146b0c g    DF .text	00000008 _ZN13PackageHelperC1EPci
00146a88 g    DF .text	0000002c _ZN13PackageHelper8PopValueERj
00146bb8 g    DF .text	00000088 _ZN13PackageHelper9PopStringERSs
00136bf0 g    DF .text	000000b4 _ZN25ProtocolQueryThundereInfo14OnPlainPackageEPKcj
00137484 g    DF .text	00000084 _ZN12IHubProtocol16PostQuerySuccessEP16ProtocolResponse
00136ca4 g    DF .text	0000025c _ZN25ProtocolQueryThundereInfo13SetQueryParamEP13ProtocolParam
001469d0 g    DF .text	00000030 _ZN13PackageHelper9PushValueERKj
00137470 g    DF .text	00000014 _ZN12IHubProtocol11GetQuerySeqEv
001469a4 g    DF .text	0000002c _ZN13PackageHelper9PushValueERKt
00146b14 g    DF .text	00000034 _ZN13PackageHelper9PushBytesEPKci
00146bac g    DF .text	0000000c _ZN13PackageHelper10PushStringERKSs
00146a00 g    DF .text	00000030 _ZN13PackageHelper9PushValueERKy
00136f00 g    DF .text	000002b4 _ZN25ProtocolQueryThundereInfo12GetHubClientEv
00167738 g    DF .text	00000070 _ZN10CheckConst11getthundereEv
00137560 g    DF .text	0000014c _ZN12IHubProtocol15AddHostStatInfoEPKcS1_S1_S1_
0014636c g    DF .text	00000100 _ZN17HubClientsManager3getE7HubTypePKcty
002e1248  w   DO .data.rel.ro	00000008 _ZTI16ProtocolResponse
00298408  w   DO .rodata	00000013 _ZTS16ProtocolResponse
00298424 g    DO .rodata	00000019 _ZTS22QueryThundereInfoParam
002e1268 g    DO .data.rel.ro	0000000c _ZTI22QueryThundereInfoParam
00298440 g    DO .rodata	0000001c _ZTS25QueryThundereInfoResponse
002e1274 g    DO .data.rel.ro	0000000c _ZTI25QueryThundereInfoResponse
0029845c g    DO .rodata	0000001c _ZTS25ProtocolQueryThundereInfo
002e1280 g    DO .data.rel.ro	0000000c _ZTI25ProtocolQueryThundereInfo
002e1250  w   DO .data.rel.ro	00000014 _ZTV16ProtocolResponse
002e1310 g    DO .data.rel.ro	00000008 _ZTI12IHubProtocol
00137238 g    DF .text	00000008 _ZN12IHubProtocol11SetReportIDEj
00137a88  w   DF .text	00000050 _ZN18QueryResultForPostD2Ev
002e12f8  w   DO .data.rel.ro	00000014 _ZTV18QueryResultForPost
00137a88  w   DF .text	00000050 _ZN18QueryResultForPostD1Ev
00137ad8  w   DF .text	0000001c _ZN18QueryResultForPostD0Ev
002e1318 g    DO .data.rel.ro	00000030 _ZTV12IHubProtocol
002f1e08 g    DO .bss	00000008 _ZN12IHubProtocol19ms_ullProtocolTotalE
00137240 g    DF .text	000000a0 _ZN12IHubProtocolC1E12ProtocolTypej
0014646c g    DF .text	00000014 _ZN17HubClientsManager4backEP10IHubClient
001372e0 g    DF .text	00000080 _ZN12IHubProtocolD1Ev
00137360 g    DF .text	0000001c _ZN12IHubProtocolD0Ev
0013737c g    DF .text	000000f4 _ZN12IHubProtocol11SetCallbackEP14IQueryHubEvent
001376ac g    DF .text	00000048 _ZN12IHubProtocol19SaveClientStateInfoEv
001376f4 g    DF .text	0000004c _ZN12IHubProtocol17TakeBackHubClientEv
00137af4  w   DF .text	00000058 _ZN18QueryResultForPost10do_executeEv
00000000      DF *UND*	00000000 xl_stat_get_appid
0016da20 g    DF .text	0000001c sd_u32_to_str
00298490 g    DO .rodata	0000000f _ZTS12IHubProtocol
002e12e8  w   DO .data.rel.ro	0000000c _ZTI18QueryResultForPost
00298478  w   DO .rodata	00000015 _ZTS18QueryResultForPost
001383f8  w   DF .text	00000004 _ZN23ReportCollectorResponse9OutputLogEv
00137b4c g    DF .text	00000008 _ZN23ProtocolReportCollector13InitSetClientEP10IHubClient
00137b54 g    DF .text	00000010 _ZN23ProtocolReportCollector12GetPlainPackERj
00137b64 g    DF .text	00000004 _ZN20ReportCollectorParam9OutputLogEv
001383fc  w   DF .text	00000028 _ZN23ReportCollectorResponseD2Ev
002e1358  w   DO .data.rel.ro	00000014 _ZTV23ReportCollectorResponse
001383fc  w   DF .text	00000028 _ZN23ReportCollectorResponseD1Ev
00138424  w   DF .text	0000001c _ZN23ReportCollectorResponseD0Ev
00137b68 g    DF .text	00000358 _ZN23ProtocolReportCollector13SetQueryParamEP13ProtocolParam
00137ec0 g    DF .text	000001b0 _ZN23ProtocolReportCollector12GetHubClientEv
00138070 g    DF .text	00000004 _ZN23ProtocolReportCollector13OnQueryFailedEi
00138074 g    DF .text	000000bc _ZN23ProtocolReportCollectorD2Ev
002e1398 g    DO .data.rel.ro	00000030 _ZTV23ProtocolReportCollector
00138074 g    DF .text	000000bc _ZN23ProtocolReportCollectorD1Ev
00138130 g    DF .text	0000001c _ZN23ProtocolReportCollectorD0Ev
0013814c g    DF .text	00000084 _ZN23ProtocolReportCollectorC2EP14IQueryHubEvent
00138440  w   DF .text	00000050 _ZN20ReportCollectorParamD2Ev
002e1388 g    DO .data.rel.ro	0000000c _ZTV20ReportCollectorParam
00138440  w   DF .text	00000050 _ZN20ReportCollectorParamD1Ev
001382a8 g    DF .text	00000150 _ZN23ProtocolReportCollector14OnPlainPackageEPKcj
002984bc g    DO .rodata	00000017 _ZTS20ReportCollectorParam
002e1370 g    DO .data.rel.ro	0000000c _ZTI20ReportCollectorParam
002e1348  w   DO .data.rel.ro	0000000c _ZTI23ReportCollectorResponse
002984a0  w   DO .rodata	0000001a _ZTS23ReportCollectorResponse
002984d4 g    DO .rodata	0000001a _ZTS23ProtocolReportCollector
002e137c g    DO .data.rel.ro	0000000c _ZTI23ProtocolReportCollector
00138b18  w   DF .text	00000004 _ZN21FlowCtrlQueryResponse9OutputLogEv
00138490 g    DF .text	00000010 _ZN21ProtocolFlowCtrlQuery12GetPlainPackERj
00138b1c  w   DF .text	00000028 _ZN21FlowCtrlQueryResponseD2Ev
002e13e0  w   DO .data.rel.ro	00000014 _ZTV21FlowCtrlQueryResponse
00138b1c  w   DF .text	00000028 _ZN21FlowCtrlQueryResponseD1Ev
00138b44  w   DF .text	0000001c _ZN21FlowCtrlQueryResponseD0Ev
001384a0 g    DF .text	000000e8 _ZN21ProtocolFlowCtrlQuery13SetQueryParamEP13ProtocolParam
00138588 g    DF .text	000001b0 _ZN21ProtocolFlowCtrlQuery12GetHubClientEv
00138738 g    DF .text	000000c8 _ZN21ProtocolFlowCtrlQuery13InitSetClientEP10IHubClient
0013917c g    DF .text	00000014 _ZN16HubClientHttpAes9SetAesKeyEPKh
002e13d4  w   DO .data.rel.ro	00000008 _ZTI10IHubClient
002e1488 g    DO .data.rel.ro	00000020 _ZTI16HubClientHttpAes
00138800 g    DF .text	00000004 _ZN21ProtocolFlowCtrlQuery13OnQueryFailedEi
00138804 g    DF .text	0000009c _ZN21ProtocolFlowCtrlQueryD2Ev
002e1408 g    DO .data.rel.ro	00000030 _ZTV21ProtocolFlowCtrlQuery
00138804 g    DF .text	0000009c _ZN21ProtocolFlowCtrlQueryD1Ev
001388a0 g    DF .text	0000001c _ZN21ProtocolFlowCtrlQueryD0Ev
001388bc g    DF .text	00000040 _ZN21ProtocolFlowCtrlQueryC2EP14IQueryHubEvent
00138984 g    DF .text	00000194 _ZN21ProtocolFlowCtrlQuery14OnPlainPackageEPKcj
0017a980 g    DF .text	000001f0 _ZN4Json5ValueC1ERKS0_
002e13c8  w   DO .data.rel.ro	0000000c _ZTI21FlowCtrlQueryResponse
002984f0  w   DO .rodata	00000018 _ZTS21FlowCtrlQueryResponse
00298528 g    DO .rodata	00000018 _ZTS21ProtocolFlowCtrlQuery
002e13f8 g    DO .data.rel.ro	0000000c _ZTI21ProtocolFlowCtrlQuery
00298508  w   DO .rodata	0000000d _ZTS10IHubClient
00139190  w   DF .text	00000008 _ZN22HubHttpConnectionEvent29OnHubHttpConnectionHeaderRecvEP17HubHttpConnectionPcj
00139198  w   DF .text	00000008 _ZN10IHubClient14SupportRestartEv
00138b60 g    DF .text	00000008 _ZN16HubClientHttpAes8SetParamE18HubClientParamTypey
00138b68 g    DF .text	00000008 _ZN16HubClientHttpAes5RetryEii
00138b70 g    DF .text	00000008 _ZN16HubClientHttpAes25ParsePlainPackCommonFieldEPPcPitP20PlainPackCommonField16ExtraSpecialType
001391a0  w   DF .text	00000028 _ZN10IHubClient22GetCurStateDescriptionEv
00138b78 g    DF .text	00000060 _ZN16HubClientHttpAes4StopEv
001933a4 g    DF .text	000000d4 _ZN17HubHttpConnection5CloseE18HubHttpCloseReason
00138bd8 g    DF .text	0000008c _ZN16HubClientHttpAesD2Ev
002e14a8 g    DO .data.rel.ro	00000048 _ZTV16HubClientHttpAes
00138bd8 g    DF .text	0000008c _ZN16HubClientHttpAesD1Ev
00138c64 g    DF .text	0000001c _ZN16HubClientHttpAesD0Ev
00138c80 g    DF .text	00000050 _ZN16HubClientHttpAes30OnHubHttpConnectionErrorStopedEP17HubHttpConnectioni
00138cd0 g    DF .text	00000008 _ZThn16_N16HubClientHttpAes30OnHubHttpConnectionErrorStopedEP17HubHttpConnectioni
00138cd8 g    DF .text	00000060 _ZN16HubClientHttpAes23OnHubHttpConnectionRecvEP17HubHttpConnectionPcj
00139a34 g    DF .text	000000b4 _Z11aes_decryptPciPh
00138d38 g    DF .text	00000008 _ZThn16_N16HubClientHttpAes23OnHubHttpConnectionRecvEP17HubHttpConnectionPcj
00138d40 g    DF .text	000000bc _ZN16HubClientHttpAesC2EPKcty
00138d40 g    DF .text	000000bc _ZN16HubClientHttpAesC1EPKcty
00138dfc g    DF .text	00000058 _ZN16HubClientHttpAes16SendOutQueryPackEv
00192830 g    DF .text	00000090 _ZN17HubHttpConnectionC1EP22HubHttpConnectionEventy
001928c0 g    DF .text	0000001c _ZN17HubHttpConnection7SetHostEPKct
00192aa8 g    DF .text	000000f0 _ZN17HubHttpConnection11RequestSendEPKcj
00139980 g    DF .text	000000b4 _Z11aes_encryptPciPh
00139158 g    DF .text	00000024 _ZN16HubClientHttpAes8sTimeoutEyPvS0_
00139034 g    DF .text	0000005c _ZN16HubClientHttpAes5StartEP12IHubProtocol
00139090 g    DF .text	000000c8 _ZN16HubClientHttpAes13HandleTimeoutEyPv
002e1438  w   DO .data.rel.ro	00000008 _ZTI22HubHttpConnectionEvent
00298540  w   DO .rodata	00000019 _ZTS22HubHttpConnectionEvent
0029855c g    DO .rodata	00000013 _ZTS16HubClientHttpAes
002e1440  w   DO .data.rel.ro	00000014 _ZTV22HubHttpConnectionEvent
002e1458  w   DO .data.rel.ro	0000002c _ZTV10IHubClient
001391c8 g    DF .text	00000058 _Z24gen_aes_key_by_user_dataPKvPh
00139220 g    DF .text	00000174 _Z25res_query_rsa_pub_encryptiPhPcPji
001d966d g    DF .text	00000010 d2i_RSAPublicKey
001db0e9 g    DF .text	00000016 RSA_size
001d97d5 g    DF .text	000000a4 RSA_free
001db101 g    DF .text	00000012 RSA_public_encrypt
002e830c g    DO .data	0000008d pub_key_40000
002e827c g    DO .data	0000008d pub_key_60000
002e839c g    DO .data	0000008d pub_key_10000
002e80cc g    DO .data	0000008d pub_key_50000
002e81ec g    DO .data	0000008d pub_key_70000
002e815c g    DO .data	0000008d pub_key_80000
00139394 g    DF .text	00000100 _Z24build_rsa_encrypt_headerPPcPiiPhi
00139494 g    DF .text	000001e8 _Z14xl_aes_encryptPcPj
00171a7c g    DF .text	00000030 aes_init
001713e0 g    DF .text	00000120 aes_cipher
0013967c g    DF .text	00000184 _Z14xl_aes_decryptPcPj
00171728 g    DF .text	0000011c aes_invcipher
00139800 g    DF .text	000000c0 _Z18simple_aes_encryptPci
002e80bc g    DO .data	00000010 szAesKey
001398c0 g    DF .text	000000c0 _Z18simple_aes_decryptPci
00298570 g    DO .rodata	00000004 kAesKeyLen
00139ae8 g    DF .text	00000048 _ZN21ProtocolReportTracker13InitSetClientEP10IHubClient
00139b30 g    DF .text	00000010 _ZN21ProtocolReportTracker12GetPlainPackERj
00139b40 g    DF .text	00000004 _ZN18ReportTrackerParam9OutputLogEv
00139b44 g    DF .text	00000004 _ZN21ReportTrackerResponse9OutputLogEv
0013a314  w   DF .text	00000004 _ZN21ReportTrackerResponseD2Ev
0013a314  w   DF .text	00000004 _ZN21ReportTrackerResponseD1Ev
0013a318  w   DF .text	00000014 _ZN21ReportTrackerResponseD0Ev
00139b48 g    DF .text	000001b0 _ZN21ProtocolReportTracker12GetHubClientEv
00139cf8 g    DF .text	00000004 _ZN21ProtocolReportTracker13OnQueryFailedEi
00139cfc g    DF .text	0000008c _ZN21ProtocolReportTracker14OnPlainPackageEPKcj
00139d88 g    DF .text	000002b8 _ZN21ProtocolReportTracker13SetQueryParamEP13ProtocolParam
00146978 g    DF .text	0000002c _ZN13PackageHelper9PushValueERKh
0013a040 g    DF .text	0000009c _ZN21ProtocolReportTrackerD2Ev
002e1540 g    DO .data.rel.ro	00000030 _ZTV21ProtocolReportTracker
0013a040 g    DF .text	0000009c _ZN21ProtocolReportTrackerD1Ev
0013a0dc g    DF .text	0000001c _ZN21ProtocolReportTrackerD0Ev
0013a0f8 g    DF .text	00000044 _ZN21ProtocolReportTrackerC2EP14IQueryHubEventj
0013a32c  w   DF .text	00000020 _ZN8peerInfoD2Ev
0013a32c  w   DF .text	00000020 _ZN8peerInfoD1Ev
0013a34c  w   DF .text	00000050 _ZN18ReportTrackerParamD2Ev
002e1518 g    DO .data.rel.ro	0000000c _ZTV18ReportTrackerParam
0013a34c  w   DF .text	00000050 _ZN18ReportTrackerParamD1Ev
0013a13c g    DF .text	0000003c _ZN21ProtocolReportTracker17ParsePlainPackageEPci
00146a30 g    DF .text	0000002c _ZN13PackageHelper8PopValueERh
0013a39c  w   DF .text	00000038 _ZN8peerInfoC2ERKS_
0013a39c  w   DF .text	00000038 _ZN8peerInfoC1ERKS_
0013a3d4  w   DF .text	0000006c _ZNSt20__uninitialized_copyILb0EE13__uninit_copyIP8peerInfoS3_EET0_T_S5_S4_
0013a440  w   DF .text	00000224 _ZNSt6vectorI8peerInfoSaIS0_EE13_M_insert_auxEN9__gnu_cxx17__normal_iteratorIPS0_S2_EERKS0_
002e1528 g    DO .data.rel.ro	00000014 _ZTV21ReportTrackerResponse
00298578 g    DO .rodata	00000015 _ZTS18ReportTrackerParam
002e14f0 g    DO .data.rel.ro	0000000c _ZTI18ReportTrackerParam
00298590 g    DO .rodata	00000018 _ZTS21ReportTrackerResponse
002e14fc g    DO .data.rel.ro	0000000c _ZTI21ReportTrackerResponse
002985a8 g    DO .rodata	00000018 _ZTS21ProtocolReportTracker
002e1508 g    DO .data.rel.ro	0000000c _ZTI21ProtocolReportTracker
0013a664 g    DF .text	00000010 _ZN20ProtocolQueryResInfo12GetPlainPackERj
0013a674 g    DF .text	00000064 _ZN20ProtocolQueryResInfo13InitSetClientEP10IHubClient
0013a6d8 g    DF .text	00000004 _ZN17QueryResInfoParam9OutputLogEv
0013a6dc g    DF .text	00000004 _ZN20QueryResInfoResponse9OutputLogEv
0013b2d8  w   DF .text	00000040 _ZN20QueryResInfoResponseD2Ev
002e15a8 g    DO .data.rel.ro	00000014 _ZTV20QueryResInfoResponse
0013b2d8  w   DF .text	00000040 _ZN20QueryResInfoResponseD1Ev
0013b318  w   DF .text	0000001c _ZN20QueryResInfoResponseD0Ev
0013a6e0 g    DF .text	00000004 _ZN20ProtocolQueryResInfo13OnQueryFailedEi
0013a6e4 g    DF .text	00000234 _ZN20ProtocolQueryResInfo12GetHubClientEv
001537ac g    DF .text	00000044 _ZN12DnsNewParser16TrackHostForStatESs
0013a918 g    DF .text	00000390 _ZN20ProtocolQueryResInfo13SetQueryParamEP13ProtocolParam
0013aca8 g    DF .text	0000009c _ZN20ProtocolQueryResInfoD2Ev
002e15c0 g    DO .data.rel.ro	00000030 _ZTV20ProtocolQueryResInfo
0013aca8 g    DF .text	0000009c _ZN20ProtocolQueryResInfoD1Ev
0013ad44 g    DF .text	0000001c _ZN20ProtocolQueryResInfoD0Ev
0013ad60 g    DF .text	00000048 _ZN20ProtocolQueryResInfoC2EP14IQueryHubEventj
0013b334  w   DF .text	00000040 _ZN17QueryResInfoParamD2Ev
002e1598 g    DO .data.rel.ro	0000000c _ZTV17QueryResInfoParam
0013b334  w   DF .text	00000040 _ZN17QueryResInfoParamD1Ev
0013b074 g    DF .text	0000013c _ZN20ProtocolQueryResInfo17ParsePlainPackageEPci
00146ae0 g    DF .text	0000002c _ZN13PackageHelper8PopValueERy
0013b1b0 g    DF .text	000000b4 _ZN20ProtocolQueryResInfo14OnPlainPackageEPKcj
0013b264 g    DF .text	0000001c _ZN20ProtocolQueryResInfo21SetQuerySimilarStatusEb
0016e950 g    DF .text	00000018 sd_reset_bit
002985c8 g    DO .rodata	00000014 _ZTS17QueryResInfoParam
002e1570 g    DO .data.rel.ro	0000000c _ZTI17QueryResInfoParam
002985dc g    DO .rodata	00000017 _ZTS20QueryResInfoResponse
002e157c g    DO .data.rel.ro	0000000c _ZTI20QueryResInfoResponse
002985f4 g    DO .rodata	00000017 _ZTS20ProtocolQueryResInfo
002e1588 g    DO .data.rel.ro	0000000c _ZTI20ProtocolQueryResInfo
0013b374 g    DF .text	00000008 _ZN20ProtocolQueryAgipCdn13InitSetClientEP10IHubClient
0013b37c g    DF .text	00000010 _ZN20ProtocolQueryAgipCdn12GetPlainPackERj
0013b38c g    DF .text	00000004 _ZN17QueryAgipCdnParam9OutputLogEv
0013b390 g    DF .text	00000250 _ZN20ProtocolQueryAgipCdn13SetQueryParamEP13ProtocolParam
0013b5e0 g    DF .text	000001b0 _ZN20ProtocolQueryAgipCdn12GetHubClientEv
0013b790 g    DF .text	00000004 _ZN20ProtocolQueryAgipCdn13OnQueryFailedEi
0013b794 g    DF .text	0000019c _ZN20QueryAgipCdnResponse9OutputLogEv
0013b930 g    DF .text	000000bc _ZN20ProtocolQueryAgipCdnD2Ev
002e1640 g    DO .data.rel.ro	00000030 _ZTV20ProtocolQueryAgipCdn
0013b930 g    DF .text	000000bc _ZN20ProtocolQueryAgipCdnD1Ev
0013b9ec g    DF .text	0000001c _ZN20ProtocolQueryAgipCdnD0Ev
0013c0a0  w   DF .text	00000070 _ZN20QueryAgipCdnResponseD2Ev
002e1628 g    DO .data.rel.ro	00000014 _ZTV20QueryAgipCdnResponse
0013c0a0  w   DF .text	00000070 _ZN20QueryAgipCdnResponseD1Ev
0013c110  w   DF .text	0000001c _ZN20QueryAgipCdnResponseD0Ev
0013ba08 g    DF .text	0000007c _ZN20ProtocolQueryAgipCdnC2EP14IQueryHubEvent
002e1618 g    DO .data.rel.ro	0000000c _ZTV17QueryAgipCdnParam
0013c12c  w   DF .text	00000120 _ZNSt6vectorIP11AgipCdnInfoSaIS1_EE13_M_insert_auxEN9__gnu_cxx17__normal_iteratorIPS1_S3_EERKS1_
0013bb60 g    DF .text	00000484 _ZN20ProtocolQueryAgipCdn17ParsePlainPackageEPKci
0017a250 g    DF .text	00000054 _ZNK4Json5Value4sizeEv
0017aee4 g    DF .text	0000011c _ZN4Json5ValueixEj
00000000      DF *UND*	00000000 clock
0016e144 g    DF .text	0000009c sd_getaddrinfo
00000000      DF *UND*	00000000 strcmp
0013bfe4 g    DF .text	000000bc _ZN20ProtocolQueryAgipCdn14OnPlainPackageEPKcj
0029860c g    DO .rodata	00000014 _ZTS17QueryAgipCdnParam
002e15f0 g    DO .data.rel.ro	0000000c _ZTI17QueryAgipCdnParam
00298620 g    DO .rodata	00000017 _ZTS20QueryAgipCdnResponse
002e15fc g    DO .data.rel.ro	0000000c _ZTI20QueryAgipCdnResponse
00298638 g    DO .rodata	00000017 _ZTS20ProtocolQueryAgipCdn
002e1608 g    DO .data.rel.ro	0000000c _ZTI20ProtocolQueryAgipCdn
0013cd40  w   DF .text	00000008 _ZN19ProtocolQueryXtInfo9KeepAliveEv
0013c24c g    DF .text	00000010 _ZN19ProtocolQueryXtInfo12GetPlainPackERj
0013c25c g    DF .text	0000009c _ZN19ProtocolQueryXtInfo13InitSetClientEP10IHubClient
0013c2f8 g    DF .text	00000004 _ZN16QueryXtInfoParam9OutputLogEv
0013c2fc g    DF .text	00000004 _ZN19QueryXtInfoResponse9OutputLogEv
0013cd48  w   DF .text	00000038 _ZN19QueryXtInfoResponseD2Ev
002e16a8 g    DO .data.rel.ro	00000014 _ZTV19QueryXtInfoResponse
0013cd48  w   DF .text	00000038 _ZN19QueryXtInfoResponseD1Ev
0013cd80  w   DF .text	0000001c _ZN19QueryXtInfoResponseD0Ev
0013c300 g    DF .text	00000004 _ZN19ProtocolQueryXtInfo13OnQueryFailedEi
0013c304 g    DF .text	0000009c _ZN19ProtocolQueryXtInfoD2Ev
002e16c0 g    DO .data.rel.ro	00000030 _ZTV19ProtocolQueryXtInfo
0013c304 g    DF .text	0000009c _ZN19ProtocolQueryXtInfoD1Ev
0013c3a0 g    DF .text	0000001c _ZN19ProtocolQueryXtInfoD0Ev
0013c3bc g    DF .text	00000048 _ZN19ProtocolQueryXtInfoC2EP14IQueryHubEvent
002e1698 g    DO .data.rel.ro	0000000c _ZTV16QueryXtInfoParam
0013c554 g    DF .text	0000011c _ZN19ProtocolQueryXtInfo17ParsePlainPackageEPci
0013c670 g    DF .text	0000007c _ZN19ProtocolQueryXtInfo14OnPlainPackageEPKcj
0013c6ec g    DF .text	00000280 _ZN19ProtocolQueryXtInfo13SetQueryParamEP13ProtocolParam
0013c96c g    DF .text	000003d4 _ZN19ProtocolQueryXtInfo12GetHubClientEv
00298658 g    DO .rodata	00000013 _ZTS16QueryXtInfoParam
002e1670 g    DO .data.rel.ro	0000000c _ZTI16QueryXtInfoParam
0029866c g    DO .rodata	00000016 _ZTS19QueryXtInfoResponse
002e167c g    DO .data.rel.ro	0000000c _ZTI19QueryXtInfoResponse
00298684 g    DO .rodata	00000016 _ZTS19ProtocolQueryXtInfo
002e1688 g    DO .data.rel.ro	0000000c _ZTI19ProtocolQueryXtInfo
0013cda0 g    DF .text	00000004 _ZN9PingAlive23OnHubHttpConnectionRecvEP17HubHttpConnectionPcj
0013cda4 g    DF .text	00000178 _ZN9PingAliveC2Ev
001934d0 g    DF .text	00000010 _ZN17HubHttpConnection19SetSubmitHeaderFlagEv
002e1718 g    DO .data.rel.ro	00000014 _ZTV9PingAlive
0013d138 g    DF .text	00000024 _ZN9PingAlive8sTimeoutEyPvS0_
0013cda4 g    DF .text	00000178 _ZN9PingAliveC1Ev
0013cf1c g    DF .text	0000005c _ZN9PingAliveD2Ev
0013cf1c g    DF .text	0000005c _ZN9PingAliveD1Ev
0013cf78 g    DF .text	00000014 _ZN9PingAlive13GetAliveStateEPi
0013cf8c g    DF .text	0000004c _ZN9PingAlive16HandlePingResultEi
0013cfd8 g    DF .text	0000011c _ZN9PingAlive14TryDoPingAliveEv
0013d0f4 g    DF .text	00000044 _ZN9PingAlive13HandleTimeoutEyPv
0013d15c g    DF .text	00000008 _ZN9PingAlive30OnHubHttpConnectionErrorStopedEP17HubHttpConnectioni
0013d164 g    DF .text	00000014 _ZN9PingAlive29OnHubHttpConnectionHeaderRecvEP17HubHttpConnectionPcj
002f1e1c  w   DO .bss	00000004 _ZZN11SingletonExI9PingAliveE9_instanceEvE1p
0013d39c g    DF .text	00000098 _ZN19NetworkAliveMonitor18HandleFirstConnSetEib
0013d780 g    DF .text	00000024 _ZN19NetworkAliveMonitor8sTimeoutEyPvS0_
0013d66c g    DF .text	00000114 _ZN19NetworkAliveMonitor13HandleTimeoutEyPv
0013d9a0  w   DF .text	000000b0 _ZN11SingletonExI9PingAliveE6_mutexEv
002f1e28  w   DO .bss	00000004 _ZGVZN11SingletonExI9PingAliveE6_mutexEvE1m
002f1e20  w   DO .bss	00000008 _ZZN11SingletonExI9PingAliveE6_mutexEvE1m
0013d7a4 g    DF .text	000000d4 _ZN19NetworkAliveMonitorD2Ev
002f1e18  w   DO .bss	00000004 _ZZN11SingletonExI9PingAliveE4_refEvE3ref
0013d878 g    DF .text	00000128 _ZN19NetworkAliveMonitorC2Ev
002e16f0  w   DO .data.rel.ro	00000008 _ZTI11SingletonExI9PingAliveE
0029869c  w   DO .rodata	0000001a _ZTS11SingletonExI9PingAliveE
002986b8 g    DO .rodata	0000000b _ZTS9PingAlive
002e16f8 g    DO .data.rel.ro	00000020 _ZTI9PingAlive
0013da50 g    DF .text	00000004 _ZN20ReportRcQualityParam9OutputLogEv
0013da54 g    DF .text	00000010 _ZN23ProtocolReportRcQuality12GetPlainPackERj
0013da64 g    DF .text	00000064 _ZN23ProtocolReportRcQuality13InitSetClientEP10IHubClient
0013dac8 g    DF .text	00000084 _ZN23ProtocolReportRcQualityD2Ev
002e1758 g    DO .data.rel.ro	00000030 _ZTV23ProtocolReportRcQuality
0013dac8 g    DF .text	00000084 _ZN23ProtocolReportRcQualityD1Ev
0013db4c g    DF .text	0000001c _ZN23ProtocolReportRcQualityD0Ev
0013db68 g    DF .text	00000004 _ZN23ProtocolReportRcQuality13OnQueryFailedEi
0013db6c g    DF .text	00000088 _ZN23ProtocolReportRcQuality14OnPlainPackageEPKcj
0013dbf4 g    DF .text	000001b0 _ZN23ProtocolReportRcQuality12GetHubClientEv
0013dda4 g    DF .text	00000040 _ZN23ProtocolReportRcQualityC2EP14IQueryHubEvent
0013dde4 g    DF .text	000003b0 _ZN23ProtocolReportRcQuality13SetQueryParamEP13ProtocolParam
0013e2c8  w   DF .text	00000028 _ZNSt12_Destroy_auxILb0EE9__destroyIP10UseUrlInfoEEvT_S4_
0013e2f0  w   DF .text	00000050 _ZN20ReportRcQualityParamD2Ev
002e1748 g    DO .data.rel.ro	0000000c _ZTV20ReportRcQualityParam
0013e2f0  w   DF .text	00000050 _ZN20ReportRcQualityParamD1Ev
0013e340  w   DF .text	000001cc _ZNSt6vectorI10UseUrlInfoSaIS0_EEaSERKS2_
002986cc g    DO .rodata	00000017 _ZTS20ReportRcQualityParam
002e1730 g    DO .data.rel.ro	0000000c _ZTI20ReportRcQualityParam
002986e4 g    DO .rodata	0000001a _ZTS23ProtocolReportRcQuality
002e173c g    DO .data.rel.ro	0000000c _ZTI23ProtocolReportRcQuality
0013e50c g    DF .text	00000010 _ZN23ProtocolReportInsertRes12GetPlainPackERj
0013e51c g    DF .text	00000064 _ZN23ProtocolReportInsertRes13InitSetClientEP10IHubClient
0013e580 g    DF .text	00000004 _ZN20ReportInsertResParam9OutputLogEv
0013e584 g    DF .text	00000084 _ZN23ProtocolReportInsertResD2Ev
002e17b0 g    DO .data.rel.ro	00000030 _ZTV23ProtocolReportInsertRes
0013e584 g    DF .text	00000084 _ZN23ProtocolReportInsertResD1Ev
0013e608 g    DF .text	0000001c _ZN23ProtocolReportInsertResD0Ev
0013e624 g    DF .text	00000004 _ZN23ProtocolReportInsertRes13OnQueryFailedEi
0013e628 g    DF .text	00000088 _ZN23ProtocolReportInsertRes14OnPlainPackageEPKcj
0013e6b0 g    DF .text	000001e4 _ZN23ProtocolReportInsertRes12GetHubClientEv
0013e894 g    DF .text	00000348 _ZN23ProtocolReportInsertRes13SetQueryParamEP13ProtocolParam
0013ebdc g    DF .text	0000003c _ZN23ProtocolReportInsertResC2EP14IQueryHubEventj
0013ed4c  w   DF .text	00000058 _ZN20ReportInsertResParamD2Ev
002e17a0 g    DO .data.rel.ro	0000000c _ZTV20ReportInsertResParam
0013ed4c  w   DF .text	00000058 _ZN20ReportInsertResParamD1Ev
00298708 g    DO .rodata	00000017 _ZTS20ReportInsertResParam
002e1788 g    DO .data.rel.ro	0000000c _ZTI20ReportInsertResParam
00298720 g    DO .rodata	0000001a _ZTS23ProtocolReportInsertRes
002e1794 g    DO .data.rel.ro	0000000c _ZTI23ProtocolReportInsertRes
0013eda4 g    DF .text	00000010 _ZN19ProtocolQueryXtPool12GetPlainPackERj
0013edb4 g    DF .text	00000080 _ZN19ProtocolQueryXtPool13InitSetClientEP10IHubClient
0013ee34 g    DF .text	00000004 _ZN16QueryXtPoolParam9OutputLogEv
0013ee38 g    DF .text	00000004 _ZN19QueryXtPoolResponse9OutputLogEv
0013f794  w   DF .text	00000028 _ZN19QueryXtPoolResponseD2Ev
002e1818 g    DO .data.rel.ro	00000014 _ZTV19QueryXtPoolResponse
0013f794  w   DF .text	00000028 _ZN19QueryXtPoolResponseD1Ev
0013f7bc  w   DF .text	0000001c _ZN19QueryXtPoolResponseD0Ev
0013ee3c g    DF .text	00000004 _ZN19ProtocolQueryXtPool13OnQueryFailedEi
0013ee40 g    DF .text	00000250 _ZN19ProtocolQueryXtPool13SetQueryParamEP13ProtocolParam
0013f090 g    DF .text	0000009c _ZN19ProtocolQueryXtPoolD2Ev
002e1830 g    DO .data.rel.ro	00000030 _ZTV19ProtocolQueryXtPool
0013f090 g    DF .text	0000009c _ZN19ProtocolQueryXtPoolD1Ev
0013f12c g    DF .text	0000001c _ZN19ProtocolQueryXtPoolD0Ev
0013f148 g    DF .text	00000048 _ZN19ProtocolQueryXtPoolC2EP14IQueryHubEvent
002e1808 g    DO .data.rel.ro	0000000c _ZTV16QueryXtPoolParam
0013f27c g    DF .text	00000060 _ZN19ProtocolQueryXtPool17ParsePlainPackageEPci
0013f2dc g    DF .text	0000007c _ZN19ProtocolQueryXtPool14OnPlainPackageEPKcj
0013f358 g    DF .text	0000043c _ZN19ProtocolQueryXtPool12GetHubClientEv
00298744 g    DO .rodata	00000013 _ZTS16QueryXtPoolParam
002e17e0 g    DO .data.rel.ro	0000000c _ZTI16QueryXtPoolParam
00298758 g    DO .rodata	00000016 _ZTS19QueryXtPoolResponse
002e17ec g    DO .data.rel.ro	0000000c _ZTI19QueryXtPoolResponse
00298770 g    DO .rodata	00000016 _ZTS19ProtocolQueryXtPool
002e17f8 g    DO .data.rel.ro	0000000c _ZTI19ProtocolQueryXtPool
0013f7d8 g    DF .text	00000010 _ZN19ProtocolVoteUrlInfo12GetPlainPackERj
0013f7e8 g    DF .text	00000064 _ZN19ProtocolVoteUrlInfo13InitSetClientEP10IHubClient
0013f84c g    DF .text	00000004 _ZN16VoteUrlInfoParam9OutputLogEv
0013f850 g    DF .text	00000084 _ZN19ProtocolVoteUrlInfoD2Ev
002e1888 g    DO .data.rel.ro	00000030 _ZTV19ProtocolVoteUrlInfo
0013f850 g    DF .text	00000084 _ZN19ProtocolVoteUrlInfoD1Ev
0013f8d4 g    DF .text	0000001c _ZN19ProtocolVoteUrlInfoD0Ev
0013f8f0 g    DF .text	00000004 _ZN19ProtocolVoteUrlInfo13OnQueryFailedEi
0013f8f4 g    DF .text	00000088 _ZN19ProtocolVoteUrlInfo14OnPlainPackageEPKcj
0013f97c g    DF .text	000001e4 _ZN19ProtocolVoteUrlInfo12GetHubClientEv
0013fb60 g    DF .text	00000040 _ZN19ProtocolVoteUrlInfoC2EP14IQueryHubEvent
002e1878 g    DO .data.rel.ro	0000000c _ZTV16VoteUrlInfoParam
0013fcc8 g    DF .text	0000028c _ZN19ProtocolVoteUrlInfo13SetQueryParamEP13ProtocolParam
00298790 g    DO .rodata	00000013 _ZTS16VoteUrlInfoParam
002e1860 g    DO .data.rel.ro	0000000c _ZTI16VoteUrlInfoParam
002987a4 g    DO .rodata	00000016 _ZTS19ProtocolVoteUrlInfo
002e186c g    DO .data.rel.ro	0000000c _ZTI19ProtocolVoteUrlInfo
0013ff54 g    DF .text	00000004 _ZN15ReportChg2Param9OutputLogEv
0013ff58 g    DF .text	00000010 _ZN18ProtocolReportChg212GetPlainPackERj
0013ff68 g    DF .text	00000064 _ZN18ProtocolReportChg213InitSetClientEP10IHubClient
0013ffcc g    DF .text	00000084 _ZN18ProtocolReportChg2D2Ev
002e18e0 g    DO .data.rel.ro	00000030 _ZTV18ProtocolReportChg2
0013ffcc g    DF .text	00000084 _ZN18ProtocolReportChg2D1Ev
00140050 g    DF .text	0000001c _ZN18ProtocolReportChg2D0Ev
0014006c g    DF .text	00000004 _ZN18ProtocolReportChg213OnQueryFailedEi
00140070 g    DF .text	00000088 _ZN18ProtocolReportChg214OnPlainPackageEPKcj
001400f8 g    DF .text	000001b0 _ZN18ProtocolReportChg212GetHubClientEv
001402a8 g    DF .text	00000040 _ZN18ProtocolReportChg2C2EP14IQueryHubEvent
001402e8 g    DF .text	00000374 _ZN18ProtocolReportChg213SetQueryParamEP13ProtocolParam
00140790  w   DF .text	00000050 _ZN13UrlChangeInfoaSERKS_
001407e0  w   DF .text	00000028 _ZNSt12_Destroy_auxILb0EE9__destroyIP13UrlChangeInfoEEvT_S4_
00140808  w   DF .text	00000048 _ZN15ReportChg2ParamD2Ev
002e18d0 g    DO .data.rel.ro	0000000c _ZTV15ReportChg2Param
00140808  w   DF .text	00000048 _ZN15ReportChg2ParamD1Ev
00140850  w   DF .text	000001cc _ZNSt6vectorI13UrlChangeInfoSaIS0_EEaSERKS2_
002987c4 g    DO .rodata	00000012 _ZTS15ReportChg2Param
002e18b8 g    DO .data.rel.ro	0000000c _ZTI15ReportChg2Param
002987d8 g    DO .rodata	00000015 _ZTS18ProtocolReportChg2
002e18c4 g    DO .data.rel.ro	0000000c _ZTI18ProtocolReportChg2
001415a8  w   DF .text	00000004 _ZN20QueryTrackerResponse9OutputLogEv
00140a1c g    DF .text	00000048 _ZN20ProtocolQueryTracker13InitSetClientEP10IHubClient
00140a64 g    DF .text	00000010 _ZN20ProtocolQueryTracker12GetPlainPackERj
00140a74 g    DF .text	00000004 _ZN17QueryTrackerParam9OutputLogEv
00140a78 g    DF .text	000001b0 _ZN20ProtocolQueryTracker12GetHubClientEv
00140c28 g    DF .text	00000004 _ZN20ProtocolQueryTracker13OnQueryFailedEi
001415ac  w   DF .text	000000b0 _ZN20QueryTrackerResponseD2Ev
002e1920  w   DO .data.rel.ro	00000014 _ZTV20QueryTrackerResponse
001415ac  w   DF .text	000000b0 _ZN20QueryTrackerResponseD1Ev
0014165c  w   DF .text	0000001c _ZN20QueryTrackerResponseD0Ev
00140c2c g    DF .text	0000009c _ZN20ProtocolQueryTrackerD2Ev
002e1960 g    DO .data.rel.ro	00000030 _ZTV20ProtocolQueryTracker
00140c2c g    DF .text	0000009c _ZN20ProtocolQueryTrackerD1Ev
00140cc8 g    DF .text	0000001c _ZN20ProtocolQueryTrackerD0Ev
00140ce4 g    DF .text	00000044 _ZN20ProtocolQueryTrackerC2EP14IQueryHubEventj
002e1950 g    DO .data.rel.ro	0000000c _ZTV17QueryTrackerParam
00140f60 g    DF .text	000002ec _ZN20ProtocolQueryTracker13SetQueryParamEP13ProtocolParam
00170c44 g    DF .text	00000034 _Z23PeerCapability_set_upnpi
00141678  w   DF .text	00000120 _ZNSt6vectorIP12PeerResourceSaIS1_EE13_M_insert_auxEN9__gnu_cxx17__normal_iteratorIPS1_S3_EERKS1_
00141798  w   DF .text	00000038 _ZNSt6vectorIP12PeerResourceSaIS1_EE9push_backERKS1_
0014124c g    DF .text	000002a8 _ZN20ProtocolQueryTracker17ParsePlainPackageEPci
00146cec g    DF .text	00000030 _ZN13PackageHelper10IgnoreByteEi
00146cc4 g    DF .text	00000028 _ZN13PackageHelper7RetreatEi
00146a5c g    DF .text	0000002c _ZN13PackageHelper8PopValueERt
001414f4 g    DF .text	000000b4 _ZN20ProtocolQueryTracker14OnPlainPackageEPKcj
0029880c g    DO .rodata	00000014 _ZTS17QueryTrackerParam
002e1938 g    DO .data.rel.ro	0000000c _ZTI17QueryTrackerParam
002e1910  w   DO .data.rel.ro	0000000c _ZTI20QueryTrackerResponse
002987f0  w   DO .rodata	00000017 _ZTS20QueryTrackerResponse
00298820 g    DO .rodata	00000017 _ZTS20ProtocolQueryTracker
002e1944 g    DO .data.rel.ro	0000000c _ZTI20ProtocolQueryTracker
001417d0 g    DF .text	00000058 _ZN10DcdnMangerC2EP9DcdnEventj
002e19a0 g    DO .data.rel.ro	00000010 _ZTV10DcdnManger
00141828 g    DF .text	00000074 _ZN10DcdnMangerD2Ev
001418bc g    DF .text	00000210 _ZN10DcdnManger14DoQueryDcdnHubEv
00149874 g    DF .text	00000058 _ZN21ProtocolDcdnPeerQueryC1EP14IQueryHubEvent
001498cc g    DF .text	00000010 _ZN21ProtocolDcdnPeerQuery17PeerSetQueryRangeEyy
001498dc g    DF .text	00000228 _ZN21ProtocolDcdnPeerQuery9PeerQueryERKSsS1_y
00141b00 g    DF .text	00000160 _ZN10DcdnManger25QueryDcdnResourceCallBackEiRSt6vectorIP15P2PResourceInfoSaIS2_EEy
00141c60 g    DF .text	0000002c _ZN10DcdnManger14OnQuerySuccessEP12IHubProtocolP16ProtocolResponse
00141c8c g    DF .text	00000064 _ZN10DcdnManger13OnQueryFailedEP12IHubProtocoli
00298838 g    DO .rodata	0000000d _ZTS10DcdnManger
002e1990 g    DO .data.rel.ro	0000000c _ZTI10DcdnManger
00141cf0 g    DF .text	00000010 _ZN17ProtocolQueryBcid12GetPlainPackERj
00141d00 g    DF .text	00000064 _ZN17ProtocolQueryBcid13InitSetClientEP10IHubClient
00141d64 g    DF .text	00000004 _ZN14QueryBcidParam9OutputLogEv
00141d68 g    DF .text	00000004 _ZN17QueryBcidResponse9OutputLogEv
001424b4  w   DF .text	00000030 _ZN17QueryBcidResponseD2Ev
002e19e8 g    DO .data.rel.ro	00000014 _ZTV17QueryBcidResponse
001424b4  w   DF .text	00000030 _ZN17QueryBcidResponseD1Ev
001424e4  w   DF .text	0000001c _ZN17QueryBcidResponseD0Ev
00141d6c g    DF .text	00000004 _ZN17ProtocolQueryBcid13OnQueryFailedEi
00141d70 g    DF .text	00000234 _ZN17ProtocolQueryBcid12GetHubClientEv
00141fa4 g    DF .text	0000009c _ZN17ProtocolQueryBcidD2Ev
002e1a00 g    DO .data.rel.ro	00000030 _ZTV17ProtocolQueryBcid
00141fa4 g    DF .text	0000009c _ZN17ProtocolQueryBcidD1Ev
00142040 g    DF .text	0000001c _ZN17ProtocolQueryBcidD0Ev
0014205c g    DF .text	00000048 _ZN17ProtocolQueryBcidC2EP14IQueryHubEvent
002e19d8 g    DO .data.rel.ro	0000000c _ZTV14QueryBcidParam
0014219c g    DF .text	0000004c _ZN17ProtocolQueryBcid17ParsePlainPackageEPci
001421e8 g    DF .text	00000094 _ZN17ProtocolQueryBcid14OnPlainPackageEPKcj
0014227c g    DF .text	00000238 _ZN17ProtocolQueryBcid13SetQueryParamEP13ProtocolParam
00298850 g    DO .rodata	00000011 _ZTS14QueryBcidParam
002e19b0 g    DO .data.rel.ro	0000000c _ZTI14QueryBcidParam
00298864 g    DO .rodata	00000014 _ZTS17QueryBcidResponse
002e19bc g    DO .data.rel.ro	0000000c _ZTI17QueryBcidResponse
00298878 g    DO .rodata	00000014 _ZTS17ProtocolQueryBcid
002e19c8 g    DO .data.rel.ro	0000000c _ZTI17ProtocolQueryBcid
00142500 g    DF .text	00000010 _ZN16ProtocolQueryCdn12GetPlainPackERj
00142510 g    DF .text	00000004 _ZN13QueryCdnParam9OutputLogEv
00142514 g    DF .text	00000004 _ZN16QueryCdnResponse9OutputLogEv
00142518 g    DF .text	000001b0 _ZN16ProtocolQueryCdn12GetHubClientEv
001426c8 g    DF .text	000000ec _ZN16ProtocolQueryCdn13InitSetClientEP10IHubClient
001441f0 g    DF .text	00000014 _ZN22HubClientHttpHijackAes9SetAesKeyEPKh
002e1ab0 g    DO .data.rel.ro	00000020 _ZTI22HubClientHttpHijackAes
001427b4 g    DF .text	00000004 _ZN16ProtocolQueryCdn13OnQueryFailedEi
00143514  w   DF .text	00000080 _ZN16QueryCdnResponseD2Ev
002e1a68 g    DO .data.rel.ro	00000014 _ZTV16QueryCdnResponse
00143514  w   DF .text	00000080 _ZN16QueryCdnResponseD1Ev
00143594  w   DF .text	0000001c _ZN16QueryCdnResponseD0Ev
001427b8 g    DF .text	000000bc _ZN16ProtocolQueryCdnD2Ev
002e1a80 g    DO .data.rel.ro	00000030 _ZTV16ProtocolQueryCdn
001427b8 g    DF .text	000000bc _ZN16ProtocolQueryCdnD1Ev
00142874 g    DF .text	0000001c _ZN16ProtocolQueryCdnD0Ev
00142890 g    DF .text	0000007c _ZN16ProtocolQueryCdnC2EP14IQueryHubEvent
002e1a58 g    DO .data.rel.ro	0000000c _ZTV13QueryCdnParam
001429e8 g    DF .text	00000150 _ZN16ProtocolQueryCdn8MakeBodyERN4Json5ValueEP13QueryCdnParam
00179a3c g    DF .text	00000018 _ZN4Json5ValueC1Ei
00142b38 g    DF .text	00000108 _ZN16ProtocolQueryCdn11ValidateCdnERKN4Json5ValueE
00142c40 g    DF .text	000001a4 _ZN16ProtocolQueryCdn12ParseCdnInfoERKN4Json5ValueEP7CdnInfo
00142de4 g    DF .text	00000170 _ZN16ProtocolQueryCdn10MakeHeaderERN4Json5ValueE
001690b0 g    DF .text	00000014 _ZN19BasicTypeConversion10UShort2StrEt
00142f54 g    DF .text	000001ac _ZN16ProtocolQueryCdn13SetQueryParamEP13ProtocolParam
001435b0  w   DF .text	00000120 _ZNSt6vectorIP7CdnInfoSaIS1_EE13_M_insert_auxEN9__gnu_cxx17__normal_iteratorIPS1_S3_EERKS1_
00143100 g    DF .text	00000358 _ZN16ProtocolQueryCdn17ParsePlainPackageEPKci
00143458 g    DF .text	000000bc _ZN16ProtocolQueryCdn14OnPlainPackageEPKcj
0029889c g    DO .rodata	00000010 _ZTS13QueryCdnParam
002e1a30 g    DO .data.rel.ro	0000000c _ZTI13QueryCdnParam
002988ac g    DO .rodata	00000013 _ZTS16QueryCdnResponse
002e1a3c g    DO .data.rel.ro	0000000c _ZTI16QueryCdnResponse
002988c0 g    DO .rodata	00000013 _ZTS16ProtocolQueryCdn
002e1a48 g    DO .data.rel.ro	0000000c _ZTI16ProtocolQueryCdn
001436d0 g    DF .text	0000003c _ZN22HubClientHttpHijackAes8SetParamE18HubClientParamTypey
0014370c g    DF .text	00000008 _ZN22HubClientHttpHijackAes5RetryEii
00143714 g    DF .text	00000060 _ZN22HubClientHttpHijackAes4StopEv
00143774 g    DF .text	000000b4 _ZN22HubClientHttpHijackAesD2Ev
002e1ad0 g    DO .data.rel.ro	0000004c _ZTV22HubClientHttpHijackAes
00143774 g    DF .text	000000b4 _ZN22HubClientHttpHijackAesD1Ev
00143828 g    DF .text	0000001c _ZN22HubClientHttpHijackAesD0Ev
00143844 g    DF .text	00000050 _ZN22HubClientHttpHijackAes30OnHubHttpConnectionErrorStopedEP17HubHttpConnectioni
00143894 g    DF .text	00000008 _ZThn16_N22HubClientHttpHijackAes30OnHubHttpConnectionErrorStopedEP17HubHttpConnectioni
0014389c g    DF .text	00000124 _ZN22HubClientHttpHijackAes23OnHubHttpConnectionRecvEP17HubHttpConnectionPcj
001439c0 g    DF .text	00000008 _ZThn16_N22HubClientHttpHijackAes23OnHubHttpConnectionRecvEP17HubHttpConnectionPcj
001439c8 g    DF .text	000000e0 _ZN22HubClientHttpHijackAesC2EPKcty
001439c8 g    DF .text	000000e0 _ZN22HubClientHttpHijackAesC1EPKcty
00143aa8 g    DF .text	00000060 _ZN22HubClientHttpHijackAes16SendOutQueryPackEv
00143ec4 g    DF .text	00000024 _ZN22HubClientHttpHijackAes8sTimeoutEyPvS0_
00143da0 g    DF .text	0000005c _ZN22HubClientHttpHijackAes5StartEP12IHubProtocol
00143dfc g    DF .text	000000c8 _ZN22HubClientHttpHijackAes13HandleTimeoutEyPv
00143ee8 g    DF .text	00000308 _ZN22HubClientHttpHijackAes25ParsePlainPackCommonFieldEPPcPitP20PlainPackCommonField16ExtraSpecialType
00144204 g    DF .text	000001bc _ZN22HubClientHttpHijackAes29OnHubHttpConnectionHeaderRecvEP17HubHttpConnectionPcj
001443c0 g    DF .text	00000008 _ZThn16_N22HubClientHttpHijackAes29OnHubHttpConnectionHeaderRecvEP17HubHttpConnectionPcj
002988d4 g    DO .rodata	00000019 _ZTS22HubClientHttpHijackAes
001443c8 g    DF .text	00000048 _ZN19ProtocolQueryP2pRes13InitSetClientEP10IHubClient
00144410 g    DF .text	00000010 _ZN19ProtocolQueryP2pRes12GetPlainPackERj
00144420 g    DF .text	000001b0 _ZN19ProtocolQueryP2pRes12GetHubClientEv
001445d0 g    DF .text	00000004 _ZN19ProtocolQueryP2pRes13OnQueryFailedEi
001445d4 g    DF .text	00000374 _ZN16QueryP2pResParam9OutputLogEv
00144948 g    DF .text	000001f0 _ZN19QueryP2pResResponse9OutputLogEv
00145460  w   DF .text	00000080 _ZN19QueryP2pResResponseD2Ev
002e1b58 g    DO .data.rel.ro	00000014 _ZTV19QueryP2pResResponse
00145460  w   DF .text	00000080 _ZN19QueryP2pResResponseD1Ev
001454e0  w   DF .text	0000001c _ZN19QueryP2pResResponseD0Ev
00144b38 g    DF .text	0000036c _ZN19ProtocolQueryP2pRes13SetQueryParamEP13ProtocolParam
00144ea4 g    DF .text	0000009c _ZN19ProtocolQueryP2pResD2Ev
002e1b70 g    DO .data.rel.ro	00000030 _ZTV19ProtocolQueryP2pRes
00144ea4 g    DF .text	0000009c _ZN19ProtocolQueryP2pResD1Ev
00144f40 g    DF .text	0000001c _ZN19ProtocolQueryP2pResD0Ev
00144f5c g    DF .text	00000048 _ZN19ProtocolQueryP2pResC2EP14IQueryHubEvent
002e1b48 g    DO .data.rel.ro	0000000c _ZTV16QueryP2pResParam
001454fc  w   DF .text	00000120 _ZNSt6vectorIP15P2PResourceInfoSaIS1_EE13_M_insert_auxEN9__gnu_cxx17__normal_iteratorIPS1_S3_EERKS1_
0014514c g    DF .text	00000260 _ZN19ProtocolQueryP2pRes17ParsePlainPackageEPci
00146ab4 g    DF .text	0000002c _ZN13PackageHelper8PopValueERi
001453ac g    DF .text	000000b4 _ZN19ProtocolQueryP2pRes14OnPlainPackageEPKcj
002988f4 g    DO .rodata	00000013 _ZTS16QueryP2pResParam
002e1b20 g    DO .data.rel.ro	0000000c _ZTI16QueryP2pResParam
00298908 g    DO .rodata	00000016 _ZTS19QueryP2pResResponse
002e1b2c g    DO .data.rel.ro	0000000c _ZTI19QueryP2pResResponse
00298920 g    DO .rodata	00000016 _ZTS19ProtocolQueryP2pRes
002e1b38 g    DO .data.rel.ro	0000000c _ZTI19ProtocolQueryP2pRes
0014561c g    DF .text	00000010 _ZN22ProtocolQueryServerRes12GetPlainPackERj
0014562c g    DF .text	00000064 _ZN22ProtocolQueryServerRes13InitSetClientEP10IHubClient
00145690 g    DF .text	00000004 _ZN19QueryServerResParam9OutputLogEv
00145694 g    DF .text	00000004 _ZN22QueryServerResResponse9OutputLogEv
00145698 g    DF .text	00000004 _ZN22ProtocolQueryServerRes13OnQueryFailedEi
0014569c g    DF .text	000001e4 _ZN22ProtocolQueryServerRes12GetHubClientEv
0014611c  w   DF .text	00000080 _ZN22QueryServerResResponseD2Ev
002e1bd8 g    DO .data.rel.ro	00000014 _ZTV22QueryServerResResponse
0014611c  w   DF .text	00000080 _ZN22QueryServerResResponseD1Ev
0014619c  w   DF .text	0000001c _ZN22QueryServerResResponseD0Ev
00145880 g    DF .text	00000354 _ZN22ProtocolQueryServerRes13SetQueryParamEP13ProtocolParam
00145bd4 g    DF .text	0000009c _ZN22ProtocolQueryServerResD2Ev
002e1bf0 g    DO .data.rel.ro	00000030 _ZTV22ProtocolQueryServerRes
00145bd4 g    DF .text	0000009c _ZN22ProtocolQueryServerResD1Ev
00145c70 g    DF .text	0000001c _ZN22ProtocolQueryServerResD0Ev
00145c8c g    DF .text	00000048 _ZN22ProtocolQueryServerResC2EP14IQueryHubEvent
001461b8  w   DF .text	00000050 _ZN19QueryServerResParamD2Ev
002e1bc8 g    DO .data.rel.ro	0000000c _ZTV19QueryServerResParam
001461b8  w   DF .text	00000050 _ZN19QueryServerResParamD1Ev
00146208  w   DF .text	00000120 _ZNSt6vectorIP14ServerResourceSaIS1_EE13_M_insert_auxEN9__gnu_cxx17__normal_iteratorIPS1_S3_EERKS1_
00145e48 g    DF .text	00000220 _ZN22ProtocolQueryServerRes17ParsePlainPackageEPci
00146068 g    DF .text	000000b4 _ZN22ProtocolQueryServerRes14OnPlainPackageEPKcj
00298940 g    DO .rodata	00000016 _ZTS19QueryServerResParam
002e1ba0 g    DO .data.rel.ro	0000000c _ZTI19QueryServerResParam
00298958 g    DO .rodata	00000019 _ZTS22QueryServerResResponse
002e1bac g    DO .data.rel.ro	0000000c _ZTI22QueryServerResResponse
00298974 g    DO .rodata	00000019 _ZTS22ProtocolQueryServerRes
002e1bb8 g    DO .data.rel.ro	0000000c _ZTI22ProtocolQueryServerRes
00146328 g    DF .text	00000044 _ZN17HubClientsManagerC2Ev
002e1c48 g    DO .data.rel.ro	00000010 _ZTV17HubClientsManager
0014b39c g    DF .text	000000b4 _ZN13HubClientSHUBC1EPKcty
0014bf14 g    DF .text	0000003c _ZN14HubClientDPHUBC1EPKcty
0014c668 g    DF .text	00000210 _ZN19HubClientAntiHijackC1EPKcty
001466b8  w   DF .text	00000038 _ZNSt8_Rb_treeIP12IHubProtocolSt4pairIKS1_iESt10_Select1stIS4_ESt4lessIS1_ESaIS4_EE8_M_eraseEPSt13_Rb_tree_nodeIS4_E
00146480 g    DF .text	00000098 _ZN17HubClientsManagerD2Ev
001466f0  w   DF .text	00000058 _ZNSt8_Rb_treeIP12IHubProtocolSt4pairIKS1_iESt10_Select1stIS4_ESt4lessIS1_ESaIS4_EE4findERS3_
00146518 g    DF .text	00000060 _ZN17HubClientsManager14OnQuerySuccessEP12IHubProtocolP16ProtocolResponse
00146578 g    DF .text	00000060 _ZN17HubClientsManager13OnQueryFailedEP12IHubProtocoli
00146748  w   DF .text	00000090 _ZNSt8_Rb_treeIP12IHubProtocolSt4pairIKS1_iESt10_Select1stIS4_ESt4lessIS1_ESaIS4_EE24_M_get_insert_unique_posERS3_
001467d8  w   DF .text	000001a0 _ZNSt8_Rb_treeIP12IHubProtocolSt4pairIKS1_iESt10_Select1stIS4_ESt4lessIS1_ESaIS4_EE17_M_insert_unique_ESt23_Rb_tree_const_iteratorIS4_ERKS4_
002e1c20  w   DO .data.rel.ro	00000008 _ZTI11SingletonExI17HubClientsManagerE
00298990  w   DO .rodata	00000023 _ZTS11SingletonExI17HubClientsManagerE
002989b4 g    DO .rodata	00000014 _ZTS17HubClientsManager
002e1c28 g    DO .data.rel.ro	00000020 _ZTI17HubClientsManager
0016a5dc g    DF .text	0000008c sd_set_int64_to_lt
0016a288 g    DF .text	00000084 sd_get_int64_from_lt
00146b0c g    DF .text	00000008 _ZN13PackageHelperC2EPci
00146b48 g    DF .text	00000064 _ZN13PackageHelper8PushCStrEPKci
00146c40 g    DF .text	00000084 _ZN13PackageHelper7PopCStrEPcRi
00146d1c g    DF .text	00000040 _ZN13PackageHelper12IgnoreStringEv
00146d5c g    DF .text	00000010 _ZN12DPhubManager21GetDPhubRequestHeaderERj
00146d6c g    DF .text	0000003c _ZN12DPhubManager12DoOwnerQueryEv
00148e4c g    DF .text	00000048 _ZN23ProtocolDPhubOwnerQueryC1EP14IQueryHubEvent
00148e94 g    DF .text	000000a0 _ZN23ProtocolDPhubOwnerQuery14QueryOwnerNodeEj
00146e10 g    DF .text	0000003c _ZN12DPhubManager13HandleTimeoutEyPv
00146e4c g    DF .text	00000024 _ZN12DPhubManager8sTimeoutEyPvS0_
00146e70 g    DF .text	0000005c _ZN12DPhubManager20FindSessionByQuerierEP12IHubProtocol
00146ecc g    DF .text	00000074 _ZN12DPhubManager18OnOwnerNodeChangedEv
00148054  w   DF .text	00000028 _ZNSt4listIP11DPhubNodeRcSaIS1_EE9push_backERKS1_
00146f40 g    DF .text	00000154 _ZN12DPhubManager24UpdateDPhubRequestHeaderEv
0014807c  w   DF .text	00000038 _ZNSt8_Rb_treeIP14IQueryHubEventSt4pairIKS1_P17DPhubQuerySessionESt10_Select1stIS6_ESt4lessIS1_ESaIS6_EE8_M_eraseEPSt13_Rb_tree_nodeIS6_E
001480b4  w   DF .text	00000028 _ZNSt10_List_baseIP14IQueryHubEventSaIS1_EE8_M_clearEv
001480dc  w   DF .text	00000038 _ZNSt8_Rb_treeIjSt4pairIKjP17DPhubQuerySessionESt10_Select1stIS4_ESt4lessIjESaIS4_EE8_M_eraseEPSt13_Rb_tree_nodeIS4_E
00147094 g    DF .text	00000188 _ZN12DPhubManagerC2Ev
002e1c80 g    DO .data.rel.ro	00000010 _ZTV12DPhubManager
0014721c g    DF .text	000000d0 _ZN12DPhubManagerD2Ev
00148114  w   DF .text	00000058 _ZNSt8_Rb_treeIP14IQueryHubEventSt4pairIKS1_P17DPhubQuerySessionESt10_Select1stIS6_ESt4lessIS1_ESaIS6_EE4findERS3_
0014816c  w   DF .text	00000038 _ZNSt8_Rb_treeIjjSt9_IdentityIjESt4lessIjESaIjEE8_M_eraseEPSt13_Rb_tree_nodeIjE
001481a4  w   DF .text	00000058 _ZNSt8_Rb_treeIjjSt9_IdentityIjESt4lessIjESaIjEE4findERKj
001481fc  w   DF .text	0000012c _ZNSt8_Rb_treeIjSt4pairIKjP17DPhubQuerySessionESt10_Select1stIS4_ESt4lessIjESaIS4_EE5eraseERS1_
001472ec g    DF .text	00000108 _ZN12DPhubManager14DestroySessionEP17DPhubQuerySession
00148328  w   DF .text	00000090 _ZNSt8_Rb_treeIP14IQueryHubEventSt4pairIKS1_P17DPhubQuerySessionESt10_Select1stIS6_ESt4lessIS1_ESaIS6_EE24_M_get_insert_unique_posERS3_
001483b8  w   DF .text	000001a0 _ZNSt8_Rb_treeIP14IQueryHubEventSt4pairIKS1_P17DPhubQuerySessionESt10_Select1stIS6_ESt4lessIS1_ESaIS6_EE17_M_insert_unique_ESt23_Rb_tree_const_iteratorIS6_ERKS6_
00148558  w   DF .text	00000090 _ZNSt8_Rb_treeIjSt4pairIKjP17DPhubQuerySessionESt10_Select1stIS4_ESt4lessIjESaIS4_EE24_M_get_insert_unique_posERS1_
001485e8  w   DF .text	000001a0 _ZNSt8_Rb_treeIjSt4pairIKjP17DPhubQuerySessionESt10_Select1stIS4_ESt4lessIjESaIS4_EE17_M_insert_unique_ESt23_Rb_tree_const_iteratorIS4_ERKS4_
00148788  w   DF .text	00000078 _ZNSt3mapIjP17DPhubQuerySessionSt4lessIjESaISt4pairIKjS1_EEEixERS5_
00147464 g    DF .text	00000378 _ZN12DPhubManager14DoSessionQueryEP17DPhubQuerySession
0014deb8 g    DF .text	0000005c _ZN22ProtocolDPhubNodeQueryC1EP14IQueryHubEvent
0014df14 g    DF .text	000001cc _ZN22ProtocolDPhubNodeQuery11QueryRcNodeESstjRKSsS1_yttt
0014a920 g    DF .text	0000005c _ZN20ProtocolDPhubRcQueryC1EP14IQueryHubEvent
0014a97c g    DF .text	000001c8 _ZN20ProtocolDPhubRcQuery13QueryResourceESstjRKSsS1_yttt
001477dc g    DF .text	00000104 _ZN12DPhubManager12DoRcMixQueryEP14IQueryHubEvent
00147b78 g    DF .text	00000368 _ZN12DPhubManager14OnQuerySuccessEP12IHubProtocolP16ProtocolResponse
00147ee0 g    DF .text	00000174 _ZN12DPhubManager13OnQueryFailedEP12IHubProtocoli
002e1c58  w   DO .data.rel.ro	00000008 _ZTI11SingletonExI12DPhubManagerE
002989c8  w   DO .rodata	0000001e _ZTS11SingletonExI12DPhubManagerE
002989e8 g    DO .rodata	0000000f _ZTS12DPhubManager
002e1c60 g    DO .data.rel.ro	00000020 _ZTI12DPhubManager
00148800 g    DF .text	00000010 _ZN23ProtocolDPhubOwnerQuery12GetPlainPackERj
00148810 g    DF .text	00000064 _ZN23ProtocolDPhubOwnerQuery13InitSetClientEP10IHubClient
0014905c  w   DF .text	00000030 _ZN23DPhubOwnerQueryResponseD2Ev
002e1cc8 g    DO .data.rel.ro	00000014 _ZTV23DPhubOwnerQueryResponse
0014905c  w   DF .text	00000030 _ZN23DPhubOwnerQueryResponseD1Ev
0014908c  w   DF .text	0000001c _ZN23DPhubOwnerQueryResponseD0Ev
00148874 g    DF .text	0000017c _ZN23ProtocolDPhubOwnerQuery13SetQueryParamEP13ProtocolParam
001489f0 g    DF .text	00000004 _ZN23ProtocolDPhubOwnerQuery13OnQueryFailedEi
001489f4 g    DF .text	000001b0 _ZN23ProtocolDPhubOwnerQuery12GetHubClientEv
00148ba4 g    DF .text	00000080 _ZN20DPhubOwnerQueryParam9OutputLogEv
00148c24 g    DF .text	00000170 _ZN23DPhubOwnerQueryResponse9OutputLogEv
00148d94 g    DF .text	0000009c _ZN23ProtocolDPhubOwnerQueryD2Ev
002e1ce0 g    DO .data.rel.ro	00000030 _ZTV23ProtocolDPhubOwnerQuery
00148d94 g    DF .text	0000009c _ZN23ProtocolDPhubOwnerQueryD1Ev
00148e30 g    DF .text	0000001c _ZN23ProtocolDPhubOwnerQueryD0Ev
00148e4c g    DF .text	00000048 _ZN23ProtocolDPhubOwnerQueryC2EP14IQueryHubEvent
002e1cb8 g    DO .data.rel.ro	0000000c _ZTV20DPhubOwnerQueryParam
00148f34 g    DF .text	000000ac _ZN23ProtocolDPhubOwnerQuery17ParsePlainPackageEPci
00148fe0 g    DF .text	0000007c _ZN23ProtocolDPhubOwnerQuery14OnPlainPackageEPKcj
00298a00 g    DO .rodata	00000017 _ZTS20DPhubOwnerQueryParam
002e1c90 g    DO .data.rel.ro	0000000c _ZTI20DPhubOwnerQueryParam
00298a18 g    DO .rodata	0000001a _ZTS23DPhubOwnerQueryResponse
002e1c9c g    DO .data.rel.ro	0000000c _ZTI23DPhubOwnerQueryResponse
00298a34 g    DO .rodata	0000001a _ZTS23ProtocolDPhubOwnerQuery
002e1ca8 g    DO .data.rel.ro	0000000c _ZTI23ProtocolDPhubOwnerQuery
001490a8 g    DF .text	00000010 _ZN21ProtocolDcdnPeerQuery12GetPlainPackERj
001490b8 g    DF .text	00000064 _ZN21ProtocolDcdnPeerQuery13InitSetClientEP10IHubClient
0014911c g    DF .text	00000004 _ZN18DcdnPeerQueryParam9OutputLogEv
00149120 g    DF .text	00000004 _ZN21DcdnPeerQueryResponse9OutputLogEv
00149124 g    DF .text	00000004 _ZN21ProtocolDcdnPeerQuery13OnQueryFailedEi
00149128 g    DF .text	000002e8 _ZN21ProtocolDcdnPeerQuery12GetHubClientEv
00149d7c  w   DF .text	00000080 _ZN21DcdnPeerQueryResponseD2Ev
002e1d48 g    DO .data.rel.ro	00000014 _ZTV21DcdnPeerQueryResponse
00149d7c  w   DF .text	00000080 _ZN21DcdnPeerQueryResponseD1Ev
00149dfc  w   DF .text	0000001c _ZN21DcdnPeerQueryResponseD0Ev
00149410 g    DF .text	000003ac _ZN21ProtocolDcdnPeerQuery13SetQueryParamEP13ProtocolParam
001497bc g    DF .text	0000009c _ZN21ProtocolDcdnPeerQueryD2Ev
002e1d60 g    DO .data.rel.ro	00000030 _ZTV21ProtocolDcdnPeerQuery
001497bc g    DF .text	0000009c _ZN21ProtocolDcdnPeerQueryD1Ev
00149858 g    DF .text	0000001c _ZN21ProtocolDcdnPeerQueryD0Ev
00149874 g    DF .text	00000058 _ZN21ProtocolDcdnPeerQueryC2EP14IQueryHubEvent
00149e18  w   DF .text	00000058 _ZN18DcdnPeerQueryParamD2Ev
002e1d38 g    DO .data.rel.ro	0000000c _ZTV18DcdnPeerQueryParam
00149e18  w   DF .text	00000058 _ZN18DcdnPeerQueryParamD1Ev
00149b04 g    DF .text	000001fc _ZN21ProtocolDcdnPeerQuery17ParsePlainPackageEPci
00149d00 g    DF .text	0000007c _ZN21ProtocolDcdnPeerQuery14OnPlainPackageEPKcj
00298a58 g    DO .rodata	00000015 _ZTS18DcdnPeerQueryParam
002e1d10 g    DO .data.rel.ro	0000000c _ZTI18DcdnPeerQueryParam
00298a70 g    DO .rodata	00000018 _ZTS21DcdnPeerQueryResponse
002e1d1c g    DO .data.rel.ro	0000000c _ZTI21DcdnPeerQueryResponse
00298a88 g    DO .rodata	00000018 _ZTS21ProtocolDcdnPeerQuery
002e1d28 g    DO .data.rel.ro	0000000c _ZTI21ProtocolDcdnPeerQuery
00149e70 g    DF .text	00000048 _ZN20ProtocolDPhubRcQuery13InitSetClientEP10IHubClient
00149eb8 g    DF .text	00000010 _ZN20ProtocolDPhubRcQuery12GetPlainPackERj
00149ec8 g    DF .text	000002b8 _ZN20ProtocolDPhubRcQuery13SetQueryParamEP13ProtocolParam
0014a180 g    DF .text	00000038 _ZN20ProtocolDPhubRcQuery12GetHubClientEv
0014a1b8 g    DF .text	00000004 _ZN20ProtocolDPhubRcQuery13OnQueryFailedEi
0014a1bc g    DF .text	000003a8 _ZN17DPhubRcQueryParam9OutputLogEv
0014a564 g    DF .text	000002f0 _ZN20DPhubRcQueryResponse9OutputLogEv
0014aec8  w   DF .text	00000088 _ZN20DPhubRcQueryResponseD2Ev
002e1dc8 g    DO .data.rel.ro	00000014 _ZTV20DPhubRcQueryResponse
0014aec8  w   DF .text	00000088 _ZN20DPhubRcQueryResponseD1Ev
0014af50  w   DF .text	0000001c _ZN20DPhubRcQueryResponseD0Ev
0014a854 g    DF .text	000000b0 _ZN20ProtocolDPhubRcQueryD2Ev
002e1de0 g    DO .data.rel.ro	00000030 _ZTV20ProtocolDPhubRcQuery
0014a854 g    DF .text	000000b0 _ZN20ProtocolDPhubRcQueryD1Ev
0014a904 g    DF .text	0000001c _ZN20ProtocolDPhubRcQueryD0Ev
0014a920 g    DF .text	0000005c _ZN20ProtocolDPhubRcQueryC2EP14IQueryHubEvent
002e1db8 g    DO .data.rel.ro	0000000c _ZTV17DPhubRcQueryParam
0014af6c  w   DF .text	00000120 _ZNSt6vectorIP15DPhubPeerRcInfoSaIS1_EE13_M_insert_auxEN9__gnu_cxx17__normal_iteratorIPS1_S3_EERKS1_
0014ab44 g    DF .text	00000308 _ZN20ProtocolDPhubRcQuery17ParsePlainPackageEPci
0014ae4c g    DF .text	0000007c _ZN20ProtocolDPhubRcQuery14OnPlainPackageEPKcj
00298aa8 g    DO .rodata	00000014 _ZTS17DPhubRcQueryParam
002e1d90 g    DO .data.rel.ro	0000000c _ZTI17DPhubRcQueryParam
00298abc g    DO .rodata	00000017 _ZTS20DPhubRcQueryResponse
002e1d9c g    DO .data.rel.ro	0000000c _ZTI20DPhubRcQueryResponse
00298ad4 g    DO .rodata	00000017 _ZTS20ProtocolDPhubRcQuery
002e1da8 g    DO .data.rel.ro	0000000c _ZTI20ProtocolDPhubRcQuery
0014bd9c  w   DF .text	00000008 _ZN13HubClientSHUB14SupportRestartEv
0014b08c g    DF .text	00000090 _ZN13HubClientSHUB8SetParamE18HubClientParamTypey
0014b11c g    DF .text	00000030 _ZN13HubClientSHUB22GetCurStateDescriptionEv
002e842c g    DO .data	0000001c _ZN13HubClientSHUB21s_curStateDescriptionE
0014b14c g    DF .text	00000250 _ZN13HubClientSHUB25ParsePlainPackCommonFieldEPPcPitP20PlainPackCommonField16ExtraSpecialType
0014b39c g    DF .text	000000b4 _ZN13HubClientSHUBC2EPKcty
002e1e30 g    DO .data.rel.ro	00000048 _ZTV13HubClientSHUB
0014b450 g    DF .text	00000054 _ZN13HubClientSHUB15BuildHttpHeaderEPcjj
0014b4a4 g    DF .text	00000074 _ZN13HubClientSHUB16SendOutQueryPackEv
00171b04 g    DF .text	0000017c aes_encrypt_with_known_key
0014bce0 g    DF .text	00000024 _ZN13HubClientSHUB8sTimeoutEyPvS0_
0014b7f0 g    DF .text	0000004c _ZN13HubClientSHUB5StartEP12IHubProtocol
0014b83c g    DF .text	00000098 _ZN13HubClientSHUB5RetryEii
0014b8d4 g    DF .text	00000098 _ZN13HubClientSHUB20CloseHubHttpAfterUseEv
0014b96c g    DF .text	00000068 _ZN13HubClientSHUB4StopEv
0014b9d4 g    DF .text	00000088 _ZN13HubClientSHUBD2Ev
0014b9d4 g    DF .text	00000088 _ZN13HubClientSHUBD1Ev
0014ba5c g    DF .text	0000001c _ZN13HubClientSHUBD0Ev
0014ba78 g    DF .text	00000150 _ZN13HubClientSHUB23OnHubHttpConnectionRecvEP17HubHttpConnectionPcj
00171c80 g    DF .text	00000138 aes_decrypt_with_known_key
0014bbc8 g    DF .text	00000008 _ZThn16_N13HubClientSHUB23OnHubHttpConnectionRecvEP17HubHttpConnectionPcj
0014bbd0 g    DF .text	00000110 _ZN13HubClientSHUB13HandleTimeoutEyPv
0014bd04 g    DF .text	00000030 _ZN13HubClientSHUB17SetClientCurStateEi
0014bd34 g    DF .text	00000060 _ZN13HubClientSHUB30OnHubHttpConnectionErrorStopedEP17HubHttpConnectioni
0014bd94 g    DF .text	00000008 _ZThn16_N13HubClientSHUB30OnHubHttpConnectionErrorStopedEP17HubHttpConnectioni
00298aec g    DO .rodata	00000010 _ZTS13HubClientSHUB
002e1e10 g    DO .data.rel.ro	00000020 _ZTI13HubClientSHUB
0014bda4 g    DF .text	00000030 _ZN14HubClientDPHUBD2Ev
002e1e88 g    DO .data.rel.ro	00000048 _ZTV14HubClientDPHUB
0014bda4 g    DF .text	00000030 _ZN14HubClientDPHUBD1Ev
0014bdd4 g    DF .text	0000001c _ZN14HubClientDPHUBD0Ev
0014bdf0 g    DF .text	00000124 _ZN14HubClientDPHUB25ParsePlainPackCommonFieldEPPcPitP20PlainPackCommonField16ExtraSpecialType
0014bf14 g    DF .text	0000003c _ZN14HubClientDPHUBC2EPKcty
00298afc g    DO .rodata	00000011 _ZTS14HubClientDPHUB
002e1e78 g    DO .data.rel.ro	0000000c _ZTI14HubClientDPHUB
0014bf50 g    DF .text	0000003c _ZN19HubClientAntiHijack8SetParamE18HubClientParamTypey
0014bf8c g    DF .text	00000008 _ZN19HubClientAntiHijack5RetryEii
0014bf94 g    DF .text	00000060 _ZN19HubClientAntiHijack4StopEv
0014bff4 g    DF .text	00000128 _ZN19HubClientAntiHijackD2Ev
002e1ef0 g    DO .data.rel.ro	0000004c _ZTV19HubClientAntiHijack
0014bff4 g    DF .text	00000128 _ZN19HubClientAntiHijackD1Ev
0014c11c g    DF .text	0000001c _ZN19HubClientAntiHijackD0Ev
0014c138 g    DF .text	00000050 _ZN19HubClientAntiHijack30OnHubHttpConnectionErrorStopedEP17HubHttpConnectioni
0014c188 g    DF .text	00000008 _ZThn16_N19HubClientAntiHijack30OnHubHttpConnectionErrorStopedEP17HubHttpConnectioni
0014c190 g    DF .text	00000074 _ZN19HubClientAntiHijack23OnHubHttpConnectionRecvEP17HubHttpConnectionPcj
0014c204 g    DF .text	00000008 _ZThn16_N19HubClientAntiHijack23OnHubHttpConnectionRecvEP17HubHttpConnectionPcj
0014c20c g    DF .text	00000308 _ZN19HubClientAntiHijack25ParsePlainPackCommonFieldEPPcPitP20PlainPackCommonField16ExtraSpecialType
0014c514 g    DF .text	00000068 _ZN19HubClientAntiHijack16SendOutQueryPackEv
001934c0 g    DF .text	00000010 _ZN17HubHttpConnection8UseHttpsEv
0014c57c g    DF .text	000000c8 _ZN19HubClientAntiHijack13HandleTimeoutEyPv
0014c644 g    DF .text	00000024 _ZN19HubClientAntiHijack8sTimeoutEyPvS0_
0014c668 g    DF .text	00000210 _ZN19HubClientAntiHijackC2EPKcty
0014c878 g    DF .text	000001bc _ZN19HubClientAntiHijack29OnHubHttpConnectionHeaderRecvEP17HubHttpConnectionPcj
0014ca34 g    DF .text	00000008 _ZThn16_N19HubClientAntiHijack29OnHubHttpConnectionHeaderRecvEP17HubHttpConnectionPcj
0014ca3c g    DF .text	00000844 _ZN19HubClientAntiHijack9BuildPackEv
0014d280 g    DF .text	000000ac _ZN19HubClientAntiHijack5StartEP12IHubProtocol
00298b10 g    DO .rodata	00000016 _ZTS19HubClientAntiHijack
002e1ed0 g    DO .data.rel.ro	00000020 _ZTI19HubClientAntiHijack
0014d32c g    DF .text	00000048 _ZN22ProtocolDPhubNodeQuery13InitSetClientEP10IHubClient
0014d374 g    DF .text	00000010 _ZN22ProtocolDPhubNodeQuery12GetPlainPackERj
0014d384 g    DF .text	000002b8 _ZN22ProtocolDPhubNodeQuery13SetQueryParamEP13ProtocolParam
0014d63c g    DF .text	00000038 _ZN22ProtocolDPhubNodeQuery12GetHubClientEv
0014d674 g    DF .text	00000004 _ZN22ProtocolDPhubNodeQuery13OnQueryFailedEi
0014d678 g    DF .text	000003a8 _ZN19DPhubNodeQueryParam9OutputLogEv
0014da20 g    DF .text	000003cc _ZN22DPhubNodeQueryResponse9OutputLogEv
0014e3f0  w   DF .text	00000080 _ZN22DPhubNodeQueryResponseD2Ev
002e1f78 g    DO .data.rel.ro	00000014 _ZTV22DPhubNodeQueryResponse
0014e3f0  w   DF .text	00000080 _ZN22DPhubNodeQueryResponseD1Ev
0014e470  w   DF .text	0000001c _ZN22DPhubNodeQueryResponseD0Ev
0014ddec g    DF .text	000000b0 _ZN22ProtocolDPhubNodeQueryD2Ev
002e1f90 g    DO .data.rel.ro	00000030 _ZTV22ProtocolDPhubNodeQuery
0014ddec g    DF .text	000000b0 _ZN22ProtocolDPhubNodeQueryD1Ev
0014de9c g    DF .text	0000001c _ZN22ProtocolDPhubNodeQueryD0Ev
0014deb8 g    DF .text	0000005c _ZN22ProtocolDPhubNodeQueryC2EP14IQueryHubEvent
002e1f68 g    DO .data.rel.ro	0000000c _ZTV19DPhubNodeQueryParam
0014e48c  w   DF .text	00000120 _ZNSt6vectorIP11DPhubNodeRcSaIS1_EE13_M_insert_auxEN9__gnu_cxx17__normal_iteratorIPS1_S3_EERKS1_
0014e0e0 g    DF .text	00000294 _ZN22ProtocolDPhubNodeQuery17ParsePlainPackageEPci
0014e374 g    DF .text	0000007c _ZN22ProtocolDPhubNodeQuery14OnPlainPackageEPKcj
00298b30 g    DO .rodata	00000016 _ZTS19DPhubNodeQueryParam
002e1f40 g    DO .data.rel.ro	0000000c _ZTI19DPhubNodeQueryParam
00298b48 g    DO .rodata	00000019 _ZTS22DPhubNodeQueryResponse
002e1f4c g    DO .data.rel.ro	0000000c _ZTI22DPhubNodeQueryResponse
00298b64 g    DO .rodata	00000019 _ZTS22ProtocolDPhubNodeQuery
002e1f58 g    DO .data.rel.ro	0000000c _ZTI22ProtocolDPhubNodeQuery
0014e5ac g    DF .text	0000003c _ZN13TcpConnection15sConnectHandlerEiPvPKv
0014e5e8 g    DF .text	0000003c _ZN13TcpConnection12sSendHandlerEiPvPKv
0014e624 g    DF .text	0000003c _ZN13TcpConnection12sRecvHandlerEiPvPKv
0014e660 g    DF .text	0000003c _ZN13TcpConnection14sAcceptHandlerEiPvPKv
0014e69c g    DF .text	00000064 _ZN13TcpConnection6ListenEP14tagSD_SOCKADDRij
0015192c g    DF .text	00000004 _Z7xl_bindjP14tagSD_SOCKADDR
00151934 g    DF .text	00000004 _Z9xl_listenji
0014e700 g    DF .text	000000a4 _ZN13TcpConnection4BindEv
002e8448 g    DO .data	00000002 _ZN13TcpConnection20s_bindPortForFtpPipeE
0014e7a4 g    DF .text	000000d8 _ZN13TcpConnectionD2Ev
001b68b9 g    DF .text	00000018 BIO_free_all
00174c0c g    DF .text	00000044 sd_close_socket
002e2020 g    DO .data.rel.ro	00000040 _ZTV13TcpConnection
0014e7a4 g    DF .text	000000d8 _ZN13TcpConnectionD1Ev
0014e87c g    DF .text	0000001c _ZN13TcpConnectionD0Ev
0014e898 g    DF .text	000000b8 _ZN13TcpConnection4InitERK9SD_IPADDRtbj
00151ee8 g    DF .text	00000058 _Z13xl_socket_sslPP6bio_stb
0014e950 g    DF .text	00000028 _ZN13BufferManagerC2EP18IDataMemoryManagerP15IDataMemoryFree
002e2010 g    DO .data.rel.ro	00000010 _ZTV13BufferManager
0014e950 g    DF .text	00000028 _ZN13BufferManagerC1EP18IDataMemoryManagerP15IDataMemoryFree
0014e978 g    DF .text	00000064 _ZN13BufferManager13ReleaseBufferEv
0014e9dc g    DF .text	00000028 _ZN13BufferManagerD2Ev
0014e9dc g    DF .text	00000028 _ZN13BufferManagerD1Ev
0014ea04 g    DF .text	0000001c _ZN13BufferManagerD0Ev
0014ea20 g    DF .text	000000a8 _ZN13BufferManager11AllocBufferEj17BufferAllocType__PKci
0014eac8 g    DF .text	000000e4 _ZN13TcpConnectionC2EP18ConnectionListenerP18IDataMemoryManagerP15IDataMemoryFreeb
0014ebac g    DF .text	00000058 _ZN13TcpConnection10StartTimerEjNS_21CONNECTION_TIMER_TYPEE
0014f0c4 g    DF .text	00000004 _ZN13TcpConnection13HandleTimeOutEPvS0_
0014ec04 g    DF .text	00000078 _ZN13TcpConnection7ConnectEj
00151fd0 g    DF .text	00000048 _Z20xl_asyn_connect_ssl1P6bio_stjtPFviPvPKvES1_Py
0014ec7c g    DF .text	000000c0 _ZN13TcpConnection4SendEPKcij
00152018 g    DF .text	0000019c _Z16xl_asyn_send_sslP6bio_stPKcjPFviPvPKvES3_Py
0014ed3c g    DF .text	00000118 _ZN13TcpConnection4RecvEi13NET_RECV_FLAGj
001521b4 g    DF .text	000001a4 _Z16xl_asyn_recv_sslP6bio_stPcjPFviPvPKvES2_Pyj
0014ee54 g    DF .text	00000048 _ZN13TcpConnection6AcceptEj
00151d20 g    DF .text	00000160 _Z14xl_asyn_acceptjPFviPvPKvES_Py
0014ee9c g    DF .text	0000003c _ZN13TcpConnection11CancelTimerEv
0014eed8 g    DF .text	00000040 _ZN13TcpConnection5CloseEv
0014ef18 g    DF .text	0000003c _ZN13TcpConnection15ConnectCallBackEiPK25TAG_NET_CONNECT_RESP_DATA
0014ef54 g    DF .text	00000044 _ZN13TcpConnection12SendCallBackEiPK22TAG_NET_SEND_RESP_DATA
0014ef98 g    DF .text	00000064 _ZN13TcpConnection12RecvCallBackEiPK22TAG_NET_RECV_RESP_DATA
0014effc g    DF .text	0000003c _ZN13TcpConnection14AcceptCallBackEiPK24TAG_NET_ACCEPT_RESP_DATA
0014f038 g    DF .text	0000008c _ZN13TcpConnection21HandleTimeOutInternalENS_21CONNECTION_TIMER_TYPEE
0014f0f4 g    DF .text	00000008 _ZN13TcpConnection7GetSockEv
00152358 g    DF .text	00000004 _Z14xl_getsocknamejP14tagSD_SOCKADDR
00298b90 g    DO .rodata	00000010 _ZTS13BufferManager
002e1ff8 g    DO .data.rel.ro	00000008 _ZTI13BufferManager
002e1fc0  w   DO .data.rel.ro	00000008 _ZTI11IConnection
00298b80  w   DO .rodata	0000000e _ZTS11IConnection
00298ba0 g    DO .rodata	00000010 _ZTS13TcpConnection
002e2000 g    DO .data.rel.ro	0000000c _ZTI13TcpConnection
002e1fc8  w   DO .data.rel.ro	00000030 _ZTV11IConnection
0014f498 g    DF .text	00000048 _ZN12SpeedLimitor16StartUpdateTimerEv
0015007c g    DF .text	00000008 _ZN12SpeedLimitor6UpdateEyPvS0_
0014f510 g    DF .text	0000003c _ZN12SpeedLimitor15StopUpdateTimerEv
0014f54c g    DF .text	00000040 _ZN12SpeedLimitor21calcRelativeSubScriptExx
0014f58c g    DF .text	0000011c _ZN12SpeedLimitor20CalcSubScriptBySpeedEx
0014f6a8 g    DF .text	00000048 _ZN12SpeedLimitor17CalcRelativeSpeedEix
0014f6f0 g    DF .text	00000084 _ZN12SpeedLimitor20CalcSpeedBySubscriptEi
0014f774 g    DF .text	00000048 _ZN12SpeedLimitor13CalcStatCountEi
00000000      DF *UND*	00000000 __aeabi_idiv
0014f7bc g    DF .text	0000006c _ZN12SpeedLimitor12CalcMaxSpeedEi
0014f828 g    DF .text	00000018 _ZN12SpeedLimitor13GetLimitSpeedERxS0_
0014f8ac g    DF .text	0000006c _ZN12SpeedLimitor24GetDownloadStateFileNameEv
0014f918 g    DF .text	0000013c _ZN12SpeedLimitor16SaveDownloadStatEv
0014fa54 g    DF .text	0000023c _ZN12SpeedLimitor16LoadDownloadStatEv
0014fc90 g    DF .text	000003ec _ZN12SpeedLimitor6UpdateEv
00172958 g    DF .text	0000003c _ZN16speed_calculator5clearEv
00000000      DF *UND*	00000000 strnlen
00150084 g    DF .text	00000120 _ZN12SpeedLimitorC2Ev
001501a4 g    DF .text	00000034 _ZN12SpeedLimitorD2Ev
00150208 g    DF .text	00000004 _Z11xl_net_pollPv
0016cb5c g    DF .text	0000019c _Z24pop_msg_info_from_threadyPPv
001736f8 g    DF .text	00000048 _Z11sd_msg_freeP7TAG_MSG
001b66b9 g    DF .text	00000084 BIO_ctrl
00199ba1 g    DF .text	00000108 SSL_ctrl
00173684 g    DF .text	00000074 _Z12sd_msg_allocv
0016ca94 g    DF .text	00000050 _Z23push_msg_info_to_threadyPv
0016c5f4 g    DF .text	00000068 _Z12post_messagelPv
0016c7cc g    DF .text	00000028 _Z22get_wait_container_ptrv
001754bc g    DF .text	0000001c _Z25create_waitable_containerPPv
0016c81c g    DF .text	00000028 _Z11get_wait_fdv
0016c77c g    DF .text	00000028 _Z24get_thread_user_data_ptrv
0016c7a4 g    DF .text	00000028 _Z20get_thread_user_datav
00174488 g    DF .text	00000024 map_init
0015e8b4 g    DF .text	00000018 sd_ignore_signal
0019ede1 g    DF .text	00000148 SSL_library_init
0019a80d g    DF .text	0000000e SSL_load_error_strings
001c4889 g    DF .text	00000012 OPENSSL_add_all_algorithms_noconf
0019351d g    DF .text	0000000c SSLv23_client_method
00198f2d g    DF .text	00000334 SSL_CTX_new
00199d11 g    DF .text	00000006 SSL_CTX_set_default_verify_paths
00199d19 g    DF .text	00000006 SSL_CTX_load_verify_locations
00199271 g    DF .text	0000000a SSL_CTX_set_verify
002f1e70 g    DO .bss	00000004 gp_ssl_ctx
002f1e6c g    DO .bss	00000004 gp_ssl_ctx_verify_peer
0017459c g    DF .text	000000dc map_erase_node
0017476c g    DF .text	00000098 map_find_node
001744b4 g    DF .text	000000e8 map_insert_node
00175058 g    DF .text	00000068 sd_send
00174f40 g    DF .text	00000068 sd_recv
00174d20 g    DF .text	000000d8 sd_accept
00199dd9 g    DF .text	00000006 SSL_get_verify_result
001b63f5 g    DF .text	00000008 BIO_test_flags
001b64c1 g    DF .text	0000009c BIO_write
001c4431 g    DF .text	0000001a ERR_peek_last_error
001b6425 g    DF .text	0000009c BIO_read
00175304 g    DF .text	00000044 get_socket_error
00174df8 g    DF .text	00000098 sd_connect
00175584 g    DF .text	00000020 _Z26destory_waitable_containerPv
00174360 g    DF .text	0000003c map_clear
00198e25 g    DF .text	00000108 SSL_CTX_free
001c3c81 g    DF .text	0000005c ERR_free_strings
001c815d g    DF .text	0000003c EVP_cleanup
001b0129 g    DF .text	00000058 CRYPTO_cleanup_all_ex_data
0015182c g    DF .text	00000040 _Z15xl_net_msg_pollv
00000000      DF *UND*	00000000 ev_run1
0016cae4 g    DF .text	00000078 _Z24get_msg_info_from_threadyPPv
00174b38 g    DF .text	000000b8 sd_socket_bind
00174c50 g    DF .text	000000d0 sd_create_socket
00174bf0 g    DF .text	0000001c sd_socket_listen
0016c724 g    DF .text	00000034 _Z12alloc_msg_idv
00151c1c g    DF .text	000000bc _Z15xl_asyn_connectjPKctPFviPvPKvES1_Py
00151e80 g    DF .text	00000048 _Z16xl_net_wrap_initv
00151ec8 g    DF .text	00000020 _Z18xl_net_wrap_uninitv
0019f5f1 g    DF .text	0000002e BIO_new_ssl_connect
00151f40 g    DF .text	00000090 _Z19xl_asyn_connect_sslP6bio_stPKctPFviPvPKvES3_Py
001751d8 g    DF .text	00000074 sd_getsockname
0015235c g    DF .text	00000038 _ZN12DnsNewParser16sDnsParserThreadEPv
00169878 g    DF .text	000000fc _ZN6jevent4waitEm
00153c48  w   DF .text	00000034 _ZN21TAG_DNS_RESPONSE_DATAD2Ev
00153c48  w   DF .text	00000034 _ZN21TAG_DNS_RESPONSE_DATAD1Ev
00153c7c  w   DF .text	00000040 _ZN13DnsResultPostD2Ev
002e2088  w   DO .data.rel.ro	00000014 _ZTV13DnsResultPost
00153c7c  w   DF .text	00000040 _ZN13DnsResultPostD1Ev
00153cbc  w   DF .text	0000001c _ZN13DnsResultPostD0Ev
00153cd8  w   DF .text	0000002c _ZN17DnsNewParserShareD2Ev
001697f4 g    DF .text	00000020 _ZN6jeventD1Ev
0017345c g    DF .text	00000014 _ZN6jmutexD1Ev
00153cd8  w   DF .text	0000002c _ZN17DnsNewParserShareD1Ev
00153d04  w   DF .text	00000028 _ZN21TAG_DNS_RESPONSE_DATAC2Ev
00153d04  w   DF .text	00000028 _ZN21TAG_DNS_RESPONSE_DATAC1Ev
00000000      DF *UND*	00000000 gethostbyname_r
00169814 g    DF .text	0000003c _ZN6jevent3setEv
00173470 g    DF .text	00000004 _ZN6jmutex4lockEv
00173474 g    DF .text	00000004 _ZN6jmutex6unlockEv
00000000      DF *UND*	00000000 free
0015255c g    DF .text	0000004c _ZN12DnsNewParser16sDnsWorkerThreadEPv
001525a8 g    DF .text	00000164 _ZN12DnsNewParser11TryHitCacheEPKcPP21TAG_DNS_RESPONSE_DATA
0015498c g    DF .text	0000022c _ZN13DnsParseCache3GetEPKcP9SD_IPADDRPj
002f1e88  w   DO .bss	00000004 _ZZN11SingletonExI13DnsParseCacheE9_instanceEvE1p
0015270c g    DF .text	00000114 _ZN12DnsNewParser14TryGetIdleTaskEb
00000000      DF *UND*	00000000 malloc
00169758 g    DF .text	00000018 _ZN6jeventC1Ev
00169770 g    DF .text	0000004c _ZN6jevent4initEb
00152820 g    DF .text	00000118 _ZN12DnsNewParser6UninitEv
0015e914 g    DF .text	00000028 sd_detach_task
00000000      DF *UND*	00000000 pthread_join
00154d44 g    DF .text	00000250 _ZN13DnsParseCache20NotifyIpAddressValidEPKcRK9SD_IPADDRb
00152a00 g    DF .text	00000024 _Z17xl_dns_from_cachePKcR9SD_IPADDR
00153d2c  w   DF .text	00000038 _ZNSt8_Rb_treeIySt4pairIKyP18DuplicateParseInfoESt10_Select1stIS4_ESt4lessIyESaIS4_EE8_M_eraseEPSt13_Rb_tree_nodeIS4_E
00153d64  w   DF .text	00000038 _ZNSt8_Rb_treeIySt4pairIKyP14DnsStruTypeTipESt10_Select1stIS4_ESt4lessIyESaIS4_EE8_M_eraseEPSt13_Rb_tree_nodeIS4_E
00152a24 g    DF .text	00000200 _ZN12DnsNewParser4InitEv
00173494 g    DF .text	00000014 _ZN6jmutexC1Ev
00153c40 g    DF .text	00000008 _ZN12DnsNewParser11sAwakeByDnsEP7ev_loopP8ev_asynci
00153d9c  w   DF .text	000000b0 _ZN11SingletonExI13DnsParseCacheE6_mutexEv
002f1e98  w   DO .bss	00000004 _ZGVZN11SingletonExI13DnsParseCacheE6_mutexEvE1m
002f1e8c  w   DO .bss	00000008 _ZZN11SingletonExI13DnsParseCacheE6_mutexEvE1m
00152c24 g    DF .text	00000168 _ZN12DnsNewParserC2Ev
00154774 g    DF .text	0000001c _ZN13DnsParseCacheC1Ev
002f1e84  w   DO .bss	00000004 _ZZN11SingletonExI13DnsParseCacheE4_refEvE3ref
00152c24 g    DF .text	00000168 _ZN12DnsNewParserC1Ev
00152d8c g    DF .text	000000f8 _ZN12DnsNewParserD2Ev
00154874 g    DF .text	0000005c _ZN13DnsParseCacheD1Ev
00152d8c g    DF .text	000000f8 _ZN12DnsNewParserD1Ev
00153e4c  w   DF .text	0000013c _ZNSt8_Rb_treeIySt4pairIKyP14DnsStruTypeTipESt10_Select1stIS4_ESt4lessIyESaIS4_EE5eraseERS1_
00152e84 g    DF .text	0000001c _ZN12DnsNewParser16NotifyResultPostEy
00153f88  w   DF .text	0000003c _ZN13DnsResultPost10do_executeEv
00153fc4  w   DF .text	00000060 _ZNSt8_Rb_treeIySt4pairIKyP18DuplicateParseInfoESt10_Select1stIS4_ESt4lessIyESaIS4_EE4findERS1_
00154024  w   DF .text	00000028 _ZNSt10_List_baseIP15DNS_PARSER_DATASaIS1_EE8_M_clearEv
0015404c  w   DF .text	000000b0 _ZN11SingletonExI12DnsNewParserE6_mutexEv
002f1e94  w   DO .bss	00000004 _ZGVZN11SingletonExI12DnsNewParserE6_mutexEvE1m
002f1e7c  w   DO .bss	00000008 _ZZN11SingletonExI12DnsNewParserE6_mutexEvE1m
002f1e78  w   DO .bss	00000004 _ZZN11SingletonExI12DnsNewParserE4_refEvE3ref
001540fc  w   DF .text	00000028 _ZNSt8_Rb_treeIySt4pairIKyP18DuplicateParseInfoESt10_Select1stIS4_ESt4lessIyESaIS4_EE12_M_erase_auxESt23_Rb_tree_const_iteratorIS4_E
00154124  w   DF .text	0000012c _ZNSt8_Rb_treeIySt4pairIKyP18DuplicateParseInfoESt10_Select1stIS4_ESt4lessIyESaIS4_EE5eraseERS1_
00154250  w   DF .text	0000009c _ZNSt8_Rb_treeIySt4pairIKyP14DnsStruTypeTipESt10_Select1stIS4_ESt4lessIyESaIS4_EE24_M_get_insert_unique_posERS1_
001542ec  w   DF .text	000001b4 _ZNSt8_Rb_treeIySt4pairIKyP14DnsStruTypeTipESt10_Select1stIS4_ESt4lessIyESaIS4_EE17_M_insert_unique_ESt23_Rb_tree_const_iteratorIS4_ERKS4_
001544a0  w   DF .text	00000084 _ZNSt3mapIyP14DnsStruTypeTipSt4lessIyESaISt4pairIKyS1_EEEixERS5_
00152fcc g    DF .text	000002b8 _ZN12DnsNewParser6CancelEy
00154f94 g    DF .text	00000074 _Z9keyHash64PKcj
001532ac g    DF .text	000000bc _ZN12DnsNewParser14SignToIdleTaskEP10WorkerInfoPKcPFviPvPKvES4_y
00154524  w   DF .text	0000009c _ZNSt8_Rb_treeIySt4pairIKyP18DuplicateParseInfoESt10_Select1stIS4_ESt4lessIyESaIS4_EE24_M_get_insert_unique_posERS1_
001545c0  w   DF .text	000001b4 _ZNSt8_Rb_treeIySt4pairIKyP18DuplicateParseInfoESt10_Select1stIS4_ESt4lessIyESaIS4_EE17_M_insert_unique_ESt23_Rb_tree_const_iteratorIS4_ERKS4_
00153368 g    DF .text	000002bc _ZN12DnsNewParser10AssignWorkEPKcPFviPvPKvES2_by
00153624 g    DF .text	00000124 _ZN12DnsNewParser5ParseEPKcPFviPvPKvES2_bPy
001537f0 g    DF .text	000000fc _ZN12DnsNewParser9TrackHostEPKcP9SD_IPADDRj
001538ec g    DF .text	00000354 _ZN12DnsNewParser15CheckDoneWorkerEv
00154bb8 g    DF .text	0000018c _ZN13DnsParseCache3SetEPKcP9SD_IPADDRj
002e2060  w   DO .data.rel.ro	00000008 _ZTI14DnsStruTypeTip
00298bb0  w   DO .rodata	00000011 _ZTS14DnsStruTypeTip
002e2068  w   DO .data.rel.ro	00000020 _ZTI13DnsResultPost
00298bc4  w   DO .rodata	00000010 _ZTS13DnsResultPost
00154774 g    DF .text	0000001c _ZN13DnsParseCacheC2Ev
00154790 g    DF .text	00000008 _ZN13DnsParseCache4InitEv
00154798 g    DF .text	00000008 _ZN13DnsParseCache6UninitEv
001547a0 g    DF .text	000000d4 _ZN13DnsParseCache14washTimeExpireEjj
00154874 g    DF .text	0000005c _ZN13DnsParseCacheD2Ev
001548d0 g    DF .text	0000003c _Z7keyHashPKcj
0015490c g    DF .text	00000080 _ZN13DnsParseCache4findEPKcRj
00155008 g    DF .text	000000b0 _Z19xl_init_file_systemPv
0016aac0 g    DF .text	00000140 _Z10sd_write_vjP21TAG_SD_FS_WRITEV_INFOjPj
0015e94c g    DF .text	00000018 sd_sleep
00155ad0 g    DF .text	00000098 _Z19xl_file_system_pollPv
00175520 g    DF .text	0000000c _Z15wait_for_noticePviPij
001565b0  w   DF .text	00000064 _ZN19TAG_FS_OPERATE_DATAC2Ev
001565b0  w   DF .text	00000064 _ZN19TAG_FS_OPERATE_DATAC1Ev
00156614 g    DF .text	00000034 _ZN10RangeQueueD2Ev
00156648 g    DF .text	0000001c _ZN10RangeQueueD0Ev
001589a4  w   DF .text	00000054 _ZNK5range10is_containERKS_
001566b4 g    DF .text	00000028 _ZN10RangeQueueC2Ev
001566ec g    DF .text	00000044 _ZN10RangeQueue4SwapERS_
00156784 g    DF .text	00000054 _ZNK10RangeQueue7MaxSizeEv
001567d8 g    DF .text	00000064 _ZNK10RangeQueue7MinSizeEv
0015683c g    DF .text	000000e0 _ZNK10RangeQueue11FirstSameToERK5rangeRS0_
00156a64 g    DF .text	000000b8 _ZNK10RangeQueue15IsCompleteRangeERK5rangey
00156bc8 g    DF .text	000000fc _ZNK10RangeQueue8ToStringERSs
00156cc4 g    DF .text	000000f8 _ZNK10RangeQueue8ToStringEj
00156dbc g    DF .text	000000c0 _ZNK10RangeQueue12ToStringLineEv
00156f14 g    DF .text	000000cc _ZNK10RangeQueue9IsContainERKS_R5range
00157058 g    DF .text	0000005c _ZN10RangeQueue9IncOffsetEy
001570b4 g    DF .text	0000005c _ZN10RangeQueue9DecOffsetEy
001589f8  w   DF .text	0000004c _ZNSt11__copy_moveILb0ELb0ESt26random_access_iterator_tagE8__copy_mIP5rangeS4_EET0_T_S6_S5_
00158a44  w   DF .text	00000134 _ZNSt6vectorI5rangeSaIS0_EEaSERKS2_
00158b78  w   DF .text	00000038 _ZNSt6vectorI5rangeSaIS0_EE8_M_eraseEN9__gnu_cxx17__normal_iteratorIPS0_S2_EE
00158bb0  w   DF .text	00000054 _ZSt25__unguarded_linear_insertIN9__gnu_cxx17__normal_iteratorIP5rangeSt6vectorIS2_SaIS2_EEEENS0_5__ops14_Val_less_iterEEvT_T0_
0015714c g    DF .text	0000004c _ZN10RangeQueueC2ERK5range
001571b8 g    DF .text	00000208 _ZNK10RangeQueue5AddToERKS_RSt6vectorI5rangeSaIS3_EE
001573c0 g    DF .text	0000002c _ZNK10RangeQueue5AddToERKS_RS_
00157440 g    DF .text	000001c4 _ZNK10RangeQueue5SubToERKS_RSt6vectorI5rangeSaIS3_EE
00157604 g    DF .text	0000002c _ZNK10RangeQueue5SubToERKS_RS_
00157684 g    DF .text	00000138 _ZNK10RangeQueue6SameToERKS_RSt6vectorI5rangeSaIS3_EE
001577e8 g    DF .text	00000084 _ZN10RangeQueue4SameERKS_
0015786c g    DF .text	00000164 _ZNK10RangeQueue6SameToERKS_jRSt6vectorI5rangeSaIS3_EE
001579d0 g    DF .text	00000034 _ZNK10RangeQueue6SameToERKS_jRS_
00157a04 g    DF .text	00000138 _ZNK10RangeQueue6SameToERK5rangeRSt6vectorIS0_SaIS0_EE
00157b3c g    DF .text	00000084 _ZN10RangeQueue4SameERK5range
00157bec g    DF .text	00000280 _ZN10RangeQueue9SubSameToERKS_RS_S2_
00157e6c g    DF .text	00000320 _ZN10RangeQueue8AddNewToERKS_RS_S2_
0015818c g    DF .text	00000134 _Z18RangeSubRangeQueueRK5rangeRK10RangeQueueRS2_
00158c04  w   DF .text	00000058 _ZNSt6vectorI5rangeSaIS0_EE6insertEN9__gnu_cxx17__normal_iteratorIPS0_S2_EERKS0_
00158464 g    DF .text	00000038 _ZN10RangeQueuemIERKSt6vectorI5rangeSaIS1_EE
00158604 g    DF .text	00000038 _ZN10RangeQueuepLERKSt6vectorI5rangeSaIS1_EE
00158c5c  w   DF .text	00000078 _ZSt16__insertion_sortIN9__gnu_cxx17__normal_iteratorIP5rangeSt6vectorIS2_SaIS2_EEEENS0_5__ops15_Iter_less_iterEEvT_SA_T0_
00158cd4  w   DF .text	00000100 _ZSt13__adjust_heapIN9__gnu_cxx17__normal_iteratorIP5rangeSt6vectorIS2_SaIS2_EEEEiS2_NS0_5__ops15_Iter_less_iterEEvT_T0_SB_T1_T2_
00158840 g    DF .text	0000010c _ZN10RangeQueue4InitERKSt6vectorI5rangeSaIS1_EE
0015894c g    DF .text	00000044 _ZN10RangeQueueC2ERKSt6vectorI5rangeSaIS1_EE
0015894c g    DF .text	00000044 _ZN10RangeQueueC1ERKSt6vectorI5rangeSaIS1_EE
00158990 g    DF .text	00000014 _ZN10RangeQueueaSERKSt6vectorI5rangeSaIS1_EE
00298bd4 g    DO .rodata	0000000d _ZTS10RangeQueue
002e20a0 g    DO .data.rel.ro	00000008 _ZTI10RangeQueue
00158dd4 g    DF .text	0000002c _ZN17ThunderResBuilderC2Ev
00159764  w   DF .text	00000044 _ZNSt6vectorI5TWINSSaIS0_EED2Ev
00159764  w   DF .text	00000044 _ZNSt6vectorI5TWINSSaIS0_EED1Ev
001597a8  w   DF .text	00000028 _ZNSt12_Destroy_auxILb0EE9__destroyIPSsEEvT_S3_
00158e1c g    DF .text	00000034 _ZN17ThunderResBuilder6UnInitEv
00158e50 g    DF .text	00000060 _ZN17ThunderResBuilderD2Ev
00158eb0 g    DF .text	00000208 _ZN17ThunderResBuilder5ParseERSsS0_Ss
002f1ea0 g    DO .bss	00000004 g_async_msg_looper_new
0015985c g    DF .text	00000050 _Z19vt_allocate_msg_newPP6VT_MSGi
001598ac g    DF .text	00000028 _Z21vt_deallocate_msg_newP6VT_MSG
00159b0c g    DF .text	00000050 _Z16sd_binary_searchPKtti
00159b5c g    DF .text	00000080 _Z24sd_binary_search_partialPKttii
00159bdc g    DF .text	00000038 _Z20sd_one_by_one_searchPKttii
00159c14 g    DF .text	000000a0 _Z18sd_unicode_to_uft8tPh
00159cb4 g    DF .text	00000080 _Z18sd_uft8_to_unicodePh
00159d34 g    DF .text	000001a4 _Z21sd_get_gbk_char_indext
00159ed8 g    DF .text	00000160 _Z21sd_get_gbk_char_valuei
0015a038 g    DF .text	00000030 _Z11is_gbk_chart
0015a068 g    DF .text	00000190 _Z29sd_get_gbk_unicode_char_indext
0015a1f8 g    DF .text	00000034 _Z29sd_get_gbk_unicode_char_valuei
0015a22c g    DF .text	00000034 _Z18sd_gbk_2_utf8_charPhS_
0015a260 g    DF .text	00000038 _Z21sd_gbk_2_unicode_charPhPt
0015a298 g    DF .text	00000044 _Z18sd_utf8_2_gbk_charPhS_
0015a2dc g    DF .text	00000048 _Z20sd_unidoe_2_gbk_chartPh
0015a324 g    DF .text	000000f0 _Z17sd_gbk_2_utf8_strPKcjPcPj
0015a414 g    DF .text	000000f8 _Z20sd_gbk_2_unicode_strPKcjPtPj
0015a50c g    DF .text	000000fc _Z17sd_utf8_2_gbk_strPKcjPcPj
0015a608 g    DF .text	000000e0 _Z20sd_unicode_2_gbk_strPKtjPcPj
0015a6e8 g    DF .text	000000c8 _Z22sd_get_big5_char_indext
0015a7b0 g    DF .text	00000070 _Z22sd_get_big5_char_valuei
0015a820 g    DF .text	00000030 _Z12is_big5_chart
0015a850 g    DF .text	00000024 _Z30sd_get_big5_unicode_char_indext
0015a874 g    DF .text	00000034 _Z30sd_get_big5_unicode_char_valuei
0015a8a8 g    DF .text	00000034 _Z19sd_big5_2_utf8_charPhS_
0015a8dc g    DF .text	00000044 _Z19sd_utf8_2_big5_charPhS_
0015a920 g    DF .text	000000f0 _Z18sd_big5_2_utf8_strPKcjPcPj
0015aa10 g    DF .text	00000038 _Z22sd_big5_2_unicode_charPhPt
0015aa48 g    DF .text	000000f8 _Z21sd_big5_2_unicode_strPKcjPtPj
0015ab40 g    DF .text	000000fc _Z18sd_utf8_2_big5_strPKcjPcPj
0015ac3c g    DF .text	00000190 sd_utf8_2_unicode
0015adcc g    DF .text	000000e4 sd_unicode_2_utf8
0015aeb0 g    DF .text	00000060 _Z18sd_big5_2_gbk_charPhS_
0015af10 g    DF .text	000000f0 _Z17sd_big5_2_gbk_strPKcjPcPj
0015b000 g    DF .text	000000f4 sd_get_gbk_type
0015b0f4 g    DF .text	00000010 sd_is_gbk_type
0015b104 g    DF .text	00000580 _Z28sd_conjecture_code_page_implPKc
0015b684 g    DF .text	00000020 sd_unicode_2_gbk
0015b6a4 g    DF .text	00000020 sd_gbk_2_unicode
0015b6c4 g    DF .text	00000020 _Z17sd_big5_2_unicodePKcjPtPj
0015b6e4 g    DF .text	00000098 _Z22sd_icu_ucnv_convert_exPKcS0_S0_jPcPj
0015b77c g    DF .text	00000038 sd_is_acp_page_code
0015b7b4 g    DF .text	000000a0 _Z21sd_is_support_charsetPKc
00169c98 g    DF .text	00000004 sd_strnicmp
0015b854 g    DF .text	000001b8 _Z24sd_detect_page_code_namePKciPci
0015ba0c g    DF .text	000000bc _Z19sd_icu_ucnv_convertPKcS0_jPcPj
0015bac8 g    DF .text	000000e4 _Z23sd_icu_code_page_detectPKci
0015bbac g    DF .text	000003bc _Z20sd_load_icu_functionv
00000000      DF *UND*	00000000 dlopen
00000000      DF *UND*	00000000 dlclose
00000000      DF *UND*	00000000 dlsym
0015bf68 g    DF .text	00000038 sd_conjecture_code_page
0015bfa0 g    DF .text	000000ac sd_any_format_to_unicode
0015c04c g    DF .text	00000088 sd_utf8_2_gbk
0015c0d4 g    DF .text	00000088 sd_gbk_2_utf8
0015c15c g    DF .text	00000088 sd_big5_2_gbk
0015c1e4 g    DF .text	00000080 sd_special_format_to_gbk
0015c264 g    DF .text	00000088 sd_utf8_2_big5
0015c2ec g    DF .text	00000078 sd_special_format_to_big5
0015c364 g    DF .text	00000088 sd_big5_2_utf8
0015c3ec g    DF .text	00000080 sd_special_format_to_utf8
0015c53c g    DF .text	00000118 sd_any_format_to_gbk
0015c654 g    DF .text	00000118 sd_any_format_to_utf8
0015c808 g    DF .text	000000c0 _ZN12StringHelper5UpperESs
0015c8c8 g    DF .text	000000c0 _ZN12StringHelper5LowerESs
0015c988 g    DF .text	00000080 _ZN12StringHelper7NFormatEiPKcz
00000000      DF *UND*	00000000 vsnprintf
0015ca08 g    DF .text	00000078 _ZN12StringHelper6FormatEPKcz
0015ca80 g    DF .text	000000fc _ZN12StringHelper12FormatTimeMSEy
00000000      DF *UND*	00000000 localtime_r
0016b5e0 g    DF .text	00000050 _Z16sd_get_file_namePKc
00000000      DF *UND*	00000000 strcat
0015cd00 g    DF .text	0000001c _ZN12StringHelper5ToHexERKSs
0015cd1c g    DF .text	00000030 VodNewByteBuffer_init
0015cd4c g    DF .text	00000084 VodNewByteBuffer_get_int64_from_bg
0015cdd0 g    DF .text	00000084 VodNewByteBuffer_get_int32_from_bg
0015ce54 g    DF .text	00000080 VodNewByteBuffer_get_int16_from_bg
0015d090 g    DF .text	0000008c VodNewByteBuffer_set_int64_to_bg
0015d11c g    DF .text	00000088 VodNewByteBuffer_set_int32_to_bg
0015d1a4 g    DF .text	00000084 VodNewByteBuffer_set_int16_to_bg
0015d4e4 g    DF .text	0000018c _ZN7xlTimer14put_into_timerEjPvPi
0015d670 g    DF .text	000000b0 _ZN7xlTimer18pop_a_expire_timerEiiP7tagLIST
00172cd0 g    DF .text	00000050 list_cat_and_clear
0015d720 g    DF .text	00000190 _ZN7xlTimer20pop_all_expire_timerEP7tagLIST
0015d8b0 g    DF .text	000000ec _ZN7xlTimer33erase_from_timer_with_valid_indexEPvPFiS0_S0_EiPS0_
0015d99c g    DF .text	00000068 _ZN7xlTimer29erase_from_timer_with_timeoutEPvPFiS0_S0_EPS0_
0015da04 g    DF .text	00000088 _ZN7xlTimer31erase_from_timer_with_all_indexEPvPFiS0_S0_EPS0_
0015da8c g    DF .text	0000005c _ZN7xlTimer16erase_from_timerEPvPFiS0_S0_EiPS0_
0015dae8 g    DF .text	000000d4 _ZN7xlTimer13refresh_timerEv
0015e2ec  w   DF .text	00000038 _ZNSt8_Rb_treeIPvSt4pairIKS0_iESt10_Select1stIS3_ESt4lessIS0_ESaIS3_EE8_M_eraseEPSt13_Rb_tree_nodeIS3_E
0015e324  w   DF .text	00000038 _ZNSt8_Rb_treeIySt4pairIKyP8TimerMSGESt10_Select1stIS4_ESt4lessIyESaIS4_EE8_M_eraseEPSt13_Rb_tree_nodeIS4_E
0015dbbc g    DF .text	0000005c _ZN7xlTimerD2Ev
0015dbbc g    DF .text	0000005c _ZN7xlTimerD1Ev
0015dc18 g    DF .text	000000f4 _ZN7xlTimerC2Ev
0015dc18 g    DF .text	000000f4 _ZN7xlTimerC1Ev
0015e35c  w   DF .text	00000060 _ZNSt8_Rb_treeIySt4pairIKyP8TimerMSGESt10_Select1stIS4_ESt4lessIyESaIS4_EE4findERS1_
0015e3bc  w   DF .text	0000009c _ZNSt8_Rb_treeIySt4pairIKyP8TimerMSGESt10_Select1stIS4_ESt4lessIyESaIS4_EE24_M_get_insert_unique_posERS1_
0015e458  w   DF .text	000001b4 _ZNSt8_Rb_treeIySt4pairIKyP8TimerMSGESt10_Select1stIS4_ESt4lessIyESaIS4_EE17_M_insert_unique_ESt23_Rb_tree_const_iteratorIS4_ERKS4_
0015dec0 g    DF .text	000000e4 _ZN7xlTimer11start_timerEP8TimerMSG
0015e60c  w   DF .text	00000090 _ZNSt8_Rb_treeIPvSt4pairIKS0_iESt10_Select1stIS3_ESt4lessIS0_ESaIS3_EE24_M_get_insert_unique_posERS2_
0015e69c  w   DF .text	000001a0 _ZNSt8_Rb_treeIPvSt4pairIKS0_iESt10_Select1stIS3_ESt4lessIS0_ESaIS3_EE17_M_insert_unique_ESt23_Rb_tree_const_iteratorIS3_ERKS3_
0015e83c g    DF .text	00000008 sd_get_task_ids
00000000      DF *UND*	00000000 pthread_attr_init
00000000      DF *UND*	00000000 pthread_attr_setstacksize
00000000      DF *UND*	00000000 pthread_create
00000000      DF *UND*	00000000 pthread_attr_destroy
00000000      DF *UND*	00000000 bsd_signal
0015e8dc g    DF .text	00000004 sd_task_trylock
00000000      DF *UND*	00000000 pthread_mutex_trylock
00000000      DF *UND*	00000000 pthread_self
0015e8e8 g    DF .text	0000002c sd_finish_task
00000000      DF *UND*	00000000 pthread_detach
00000000      DF *UND*	00000000 usleep
00000000      DF *UND*	00000000 pthread_cond_init
00000000      DF *UND*	00000000 pthread_cond_destroy
00000000      DF *UND*	00000000 pthread_cond_signal
00000000      DF *UND*	00000000 pthread_cond_wait
00000000      DF *UND*	00000000 calloc
0015ea2c g    DF .text	00000004 _Z17sd_debug_mem_initv
0015ea30 g    DF .text	00000004 _Z19sd_debug_mem_uninitv
0015ec38  w   DF .text	00000040 _ZNSt8_Rb_treeISsSt4pairIKSs16_PermissionLevelESt10_Select1stIS3_ESt4lessISsESaIS3_EE8_M_eraseEPSt13_Rb_tree_nodeIS3_E
0015ea74 g    DF .text	0000001c _ZN14PermissionCtrlD2Ev
0015ec78  w   DF .text	000000a4 _ZNSt8_Rb_treeISsSt4pairIKSs16_PermissionLevelESt10_Select1stIS3_ESt4lessISsESaIS3_EE24_M_get_insert_unique_posERS1_
0015ed1c  w   DF .text	000001bc _ZNSt8_Rb_treeISsSt4pairIKSs16_PermissionLevelESt10_Select1stIS3_ESt4lessISsESaIS3_EE17_M_insert_unique_ESt23_Rb_tree_const_iteratorIS3_ERKS3_
0015eed8  w   DF .text	000000b4 _ZNSt3mapISs16_PermissionLevelSt4lessISsESaISt4pairIKSsS0_EEEixERS4_
0015ea90 g    DF .text	0000012c _ZN14PermissionCtrl4InitEv
0015ebbc g    DF .text	00000054 _ZN14PermissionCtrlC2Ev
00000000      DF *UND*	00000000 vfprintf
00000000      DF *UND*	00000000 fflush
00000000      DF *UND*	00000000 abort
00000000      DF *UND*	00000000 putc
00000000      DF *UND*	00000000 fprintf
00000000      DF *UND*	00000000 fputs
00000000      DF *UND*	00000000 fputc
002f2440 g    DO .bss	00000004 next_blacklisted
00161e34 g    DF .text	000000d0 _Z9dht_nodesiPiS_S_S_
00161f04 g    DF .text	0000047c _Z15dht_dump_tablesP7__sFILE
00000000      DF *UND*	00000000 gettimeofday
00000000      DF *UND*	00000000 strtol
00000000      DF *UND*	00000000 realloc
001644ac g    DF .text	00000038 _Z15dht_insert_nodePKhP8sockaddri
00164a10 g    DF .text	00000040 mpi_init
00164a50 g    DF .text	00000078 mpi_free
00164ac8 g    DF .text	00000084 mpi_grow
00164b4c g    DF .text	00000098 mpi_copy
00164be4 g    DF .text	0000005c mpi_swap
00164c40 g    DF .text	00000058 mpi_lset
00164c98 g    DF .text	00000058 mpi_lsb
00164d4c g    DF .text	00000014 mpi_size
00164d60 g    DF .text	000000a8 mpi_read_binary
00164e08 g    DF .text	00000078 mpi_write_binary
00164e80 g    DF .text	00000108 mpi_shift_l
00164f88 g    DF .text	000000c4 mpi_shift_r
0016504c g    DF .text	000000c8 mpi_cmp_abs
0016522c g    DF .text	00000104 mpi_cmp_mpi
00165330 g    DF .text	0000003c mpi_cmp_int
0016536c g    DF .text	00000134 mpi_add_abs
001654a0 g    DF .text	000000d4 mpi_sub_abs
00165574 g    DF .text	00000078 mpi_add_mpi
001655ec g    DF .text	0000007c mpi_sub_mpi
00165668 g    DF .text	0000003c mpi_add_int
001656a4 g    DF .text	0000003c mpi_sub_int
001656e0 g    DF .text	00000170 mpi_mul_mpi
00165850 g    DF .text	00000028 mpi_mul_int
00165a24 g    DF .text	000000f0 mpi_read_file
00000000      DF *UND*	00000000 fgets
00165b14 g    DF .text	0000056c mpi_div_mpi
00166080 g    DF .text	0000003c mpi_div_int
001660bc g    DF .text	00000098 mpi_mod_mpi
00166154 g    DF .text	000000b4 mpi_mod_int
001662c4 g    DF .text	00000178 mpi_write_string
0016643c g    DF .text	00000114 mpi_write_file
00166550 g    DF .text	00000574 mpi_exp_mod
00166ac4 g    DF .text	00000174 mpi_gcd
00166c38 g    DF .text	0000042c mpi_inv_mod
00167064 g    DF .text	00000350 mpi_is_prime
001673b4 g    DF .text	000001d0 mpi_gen_prime
00167bc4 g    DF .text	0000012c _Z17range_minus_rangeRK5rangeS1_RSt6vectorIS_SaIS_EE
00167cf0 g    DF .text	000000b4 _Z24range_vector_minus_rangeRKSt6vectorI5rangeSaIS0_EERKS0_RS2_
00167e8c g    DF .text	00000030 vod_bitmap_init_with_bit_count
00167f54 g    DF .text	00000038 vod_bitmap_all_none
00168030 g    DF .text	0000007c vod_bitmap_adjust
001680ac g    DF .text	00000004 vod_bitmap_print
001680b0 g    DF .text	000000e0 vod_bitmap_range_is_all_set
00168190 g    DF .text	000000c0 vod_bitmap_xor
00168250 g    DF .text	0000007c vod_bitmap_is_equal
001682cc g    DF .text	00000058 vod_bitmap_copy
00168324 g    DF .text	00000008 vod_bitmap_get_bits
0016832c g    DF .text	00000094 vod_bitmap_compare
00168400 g    DF .text	00000044 md5_encode
00168444 g    DF .text	00000044 md5_decode
00168488 g    DF .text	000009f4 md5_handle
00168ff0 g    DF .text	00000014 _ZN19BasicTypeConversion8Char2StrEc
00169004 g    DF .text	00000014 _ZN19BasicTypeConversion9Short2StrEs
00169018 g    DF .text	00000040 _ZN19BasicTypeConversion12LongLong2StrEx
0016909c g    DF .text	00000014 _ZN19BasicTypeConversion9UChar2StrEh
00000000      DF *UND*	00000000 atol
0016910c g    DF .text	00000010 _ZN19BasicTypeConversion8Str2CharERKSs
0016911c g    DF .text	00000010 _ZN19BasicTypeConversion9Str2ShortERKSs
00169134 g    DF .text	00000010 _ZN19BasicTypeConversion9Str2UCharERKSs
00169144 g    DF .text	00000010 _ZN19BasicTypeConversion10Str2UShortERKSs
00169154 g    DF .text	00000008 _ZN19BasicTypeConversion9Str2ULongERKSs
0016915c g    DF .text	00000008 _ZN19BasicTypeConversion13Str2ULongLongERKSs
00169198 g    DF .text	0000003c _ZN19BasicTypeConversion16IsHexStringVaildERKSs
001691d4 g    DF .text	0000002c _ZN19BasicTypeConversion15ConvertHexDigitEc
00000000      DF *UND*	00000000 pow
00169330 g    DF .text	00000024 _ZN19BasicTypeConversion13IsHexNumValidEPc
00169434 g    DF .text	000000e8 _ZN19BasicTypeConversion10TrimHelperEiRKSs
00169758 g    DF .text	00000018 _ZN6jeventC2Ev
00000000      DF *UND*	00000000 pthread_mutexattr_init
001697bc g    DF .text	00000038 _ZN6jevent5closeEv
00000000      DF *UND*	00000000 pthread_mutexattr_destroy
001697f4 g    DF .text	00000020 _ZN6jeventD2Ev
00169850 g    DF .text	00000028 _ZN6jevent5resetEv
00000000      DF *UND*	00000000 pthread_cond_timedwait
001699c8 g    DF .text	00000010 sd_strcat
00000000      DF *UND*	00000000 strncat
001699e0 g    DF .text	0000028c sd_vsnprintf
0016dddc g    DF .text	00000028 sd_i32toa
0016de04 g    DF .text	00000028 sd_u32toa
0016dd78 g    DF .text	00000064 sd_i64toa
0016dc54 g    DF .text	00000124 sd_u64toa
00000000      DF *UND*	00000000 strcasecmp
00000000      DF *UND*	00000000 strncasecmp
00169ca4 g    DF .text	00000044 sd_strichr
00169cf0 g    DF .text	00000064 sd_stristr
00169d54 g    DF .text	00000004 sd_strrchr
00000000      DF *UND*	00000000 strrchr
00169d58 g    DF .text	00000058 sd_strirchr
00169e50 g    DF .text	00000070 sd_trim_prefix_lws
00169ec0 g    DF .text	00000070 sd_trim_postfix_lws
00169f30 g    DF .text	0000001c sd_toupper
00169f4c g    DF .text	0000001c sd_tolower
00000000      DO *UND*	00000000 _tolower_tab_
00169f68 g    DF .text	0000002c sd_strtolower
00169f94 g    DF .text	0000006c sd_get_sub_utf8_str_len
0016a000 g    DF .text	0000004c sd_vfprintf
0016a04c g    DF .text	00000028 sd_fprintf
0016a0d0 g    DF .text	00000030 bytebuffer_init
0016a100 g    DF .text	00000084 sd_get_int64_from_bg
0016a184 g    DF .text	00000084 sd_get_int32_from_bg
0016a208 g    DF .text	00000080 sd_get_int16_from_bg
0016a444 g    DF .text	0000008c sd_set_int64_to_bg
0016a4d0 g    DF .text	00000088 sd_set_int32_to_bg
0016a558 g    DF .text	00000084 sd_set_int16_to_bg
0016a868 g    DF .text	00000094 sd_get_string
0016a8fc g    DF .text	0000003c sd_set_string
00000000      DF *UND*	00000000 lseek64
00000000      DF *UND*	00000000 fstat
00000000      DF *UND*	00000000 open
00000000      DF *UND*	00000000 fchmod
0016aa60 g    DF .text	00000004 _Z27sd_check_file_id_all_closedv
00000000      DF *UND*	00000000 writev
00000000      DF *UND*	00000000 fsync
0016ac68 g    DF .text	00000108 _Z12sd_copy_filePKcS0_
00000000      DF *UND*	00000000 lstat
00000000      DF *UND*	00000000 unlink
0016adcc g    DF .text	0000004c _Z14sd_rename_filePKcS0_
00000000      DF *UND*	00000000 rename
0016ae18 g    DF .text	0000004c _Z12sd_dir_existPKc
0016ae64 g    DF .text	00000144 _Z15recursive_rmdirPcjj
00000000      DF *UND*	00000000 opendir
00000000      DF *UND*	00000000 readdir
00000000      DF *UND*	00000000 closedir
00000000      DF *UND*	00000000 rmdir
0016afa8 g    DF .text	000000a0 _Z23sd_write_save_to_bufferjPcjPjS_j
0016b048 g    DF .text	000000e8 _Z18sd_format_filepathPKcPcjPj
0016b130 g    DF .text	00000084 _Z17sd_format_dirpathPKcPcjPj
0016b1b4 g    DF .text	00000028 _Z12sd_conv_pathPKcjPcPj
0016b1dc g    DF .text	000000e8 _Z15recursive_mkdirPKc
00000000      DF *UND*	00000000 mkdir
0016b404 g    DF .text	000000cc _Z22sd_format_conv_dirpathPKcPcjPj
0016b4d0 g    DF .text	0000006c _Z18sd_recursive_rmdirPKc
00000000      DF *UND*	00000000 truncate
0016b630 g    DF .text	00000104 _Z6i64toaxPci
0016b734 g    DF .text	0000008c _Z6atoi64PKcj
0016b820 g    DF .text	00000058 bencode_free_node
0016b8a0 g    DF .text	00000390 _Z15_bencode_decodeP6_BNodePKcPjPxPS0_Rj
0016bc68 g    DF .text	00000174 _Z15_bencode_createcxPKcPP6_BNode
0016be4c g    DF .text	0000008c _Z20_bencode_node_lengthP6_BNode
0016bf24 g    DF .text	000000e4 _Z15_bencode_encodeP6_BNodePcPi
0017439c g    DF .text	00000084 map_alloctor_init
00172994 g    DF .text	00000060 list_alloctor_init
00173b28 g    DF .text	00000064 set_alloctor_init
00175b78 g    DF .text	00000060 queue_alloctor_init
00175d0c g    DF .text	0000007c queue_uninit
00175bd8 g    DF .text	0000003c queue_alloctor_uninit
00173b8c g    DF .text	0000003c set_alloctor_uninit
001729f4 g    DF .text	0000003c list_alloctor_uninit
00174420 g    DF .text	00000068 map_alloctor_uninit
00175414 g    DF .text	00000058 _Z20create_notice_handlePPvS0_
00175c14 g    DF .text	000000f8 queue_init
00175d9c g    DF .text	000000d8 queue_push
00175ebc g    DF .text	00000110 queue_pop
0016c758 g    DF .text	00000024 _Z13get_notice_fdl
001755a4 g    DF .text	00000034 _ZN14TaskDataMemroyC1Ev
0016ccf8  w   DF .text	00000038 _ZNSt8_Rb_treeIySt4pairIKyyESt10_Select1stIS2_ESt4lessIyESaIS2_EE8_M_eraseEPSt13_Rb_tree_nodeIS2_E
0016cd30  w   DF .text	00000060 _ZNSt8_Rb_treeIySt4pairIKyyESt10_Select1stIS2_ESt4lessIyESaIS2_EE4findERS1_
0016cd90  w   DF .text	0000009c _ZNSt8_Rb_treeIySt4pairIKyyESt10_Select1stIS2_ESt4lessIyESaIS2_EE24_M_get_insert_unique_posERS1_
0016ce2c  w   DF .text	000001b4 _ZNSt8_Rb_treeIySt4pairIKyyESt10_Select1stIS2_ESt4lessIyESaIS2_EE17_M_insert_unique_ESt23_Rb_tree_const_iteratorIS2_ERKS2_
0016cfe0  w   DF .text	00000088 _ZNSt3mapIyySt4lessIyESaISt4pairIKyyEEEixERS3_
0016d068 g    DF .text	000000a8 _ZN18SdAsynEventManager13HandleMessageEy
0016d110 g    DF .text	00000050 _ZN18SdAsynEventManager13HandleMessageEPv
0016d2ec  w   DF .text	00000038 _ZNSt8_Rb_treeIySt4pairIKyP10IAsynEventESt10_Select1stIS4_ESt4lessIyESaIS4_EE8_M_eraseEPSt13_Rb_tree_nodeIS4_E
0016d1f0 g    DF .text	00000030 _ZN18SdAsynEventManagerD2Ev
0016d324  w   DF .text	0000009c _ZNSt8_Rb_treeIySt4pairIKyP10IAsynEventESt10_Select1stIS4_ESt4lessIyESaIS4_EE24_M_get_insert_unique_posERS1_
0016d3c0  w   DF .text	000001b4 _ZNSt8_Rb_treeIySt4pairIKyP10IAsynEventESt10_Select1stIS4_ESt4lessIyESaIS4_EE17_M_insert_unique_ESt23_Rb_tree_const_iteratorIS4_ERKS4_
00000000      DF *UND*	00000000 inet_ntoa
00000000      DF *UND*	00000000 srand48
0016d624 g    DF .text	0000007c char2hex
0016d70c g    DF .text	00000040 sd_hex_2_int
0016d7b0 g    DF .text	00000090 sd_hexstr_2_int
0016d840 g    DF .text	0000005c sd_is_bcid_equal
0016d89c g    DF .text	00000040 sd_is_cid_equal
0016d8dc g    DF .text	00000044 sd_is_cid_valid
0016d920 g    DF .text	00000034 sd_is_bcid_valid
0016d954 g    DF .text	00000034 sd_elf_hashvalue
0016d9f8 g    DF .text	00000028 sd_u64_to_str
0016da48 g    DF .text	00000038 sd_data_cmp
0016da80 g    DF .text	000000e0 sd_string_to_cid
0016db60 g    DF .text	000000f4 sd_string_to_hex
0016de2c g    DF .text	00000038 sd_digit_bit_count
0016de64 g    DF .text	000000f0 is_cmwap_prompt_page
0016df54 g    DF .text	00000008 sd_exit
00000000      DF *UND*	00000000 exit
0016dffc g    DF .text	0000009c sd_gm_time
00000000      DF *UND*	00000000 gmtime
0016e098 g    DF .text	000000ac sd_str_to_i64_v2
0016e1e0 g    DF .text	00000044 sd_is_lan_ip
00000000      DF *UND*	00000000 ioctl
002f2468 g    DO .bss	00000004 s_local_ip
0016e7d8 g    DF .text	0000002c sd_inet6_pton
00000000      DF *UND*	00000000 inet_pton
0016e968 g    DF .text	00000290 _Z19sd_get_linux_peeridPci
00000000      DF *UND*	00000000 perror
00000000      DF *UND*	00000000 strerror
0016ebf8 g    DF .text	00000044 _ZN8ThunderzD2Ev
0016ecac g    DF .text	00000074 _ZN8Thunderz8keyMatchEPKcS1_j
0016ed20 g    DF .text	000000cc _ZN8Thunderz12rootDictWalkEPKc
0016edec g    DF .text	000000d8 _ZN8Thunderz12nodeDictWalkEPKcP6_BNodeb
0016eec4 g    DF .text	000000e4 _ZN8Thunderz7getInfoE16ThunderzInfoType
0016f094 g    DF .text	000000a8 _ZN8Thunderz12fileListWalkEi
0016f1fc g    DF .text	00000128 _ZN8Thunderz11getFileNameEi
0016f5cc g    DF .text	000000b0 _ZN8Thunderz13getAllSubPathEiPcjc
0016f7ac g    DF .text	000000b0 _ZN8Thunderz20getAllSubPathAndNameEiPcjc
001702cc  w   DF .text	00000040 _ZNSt8_Rb_treeISsSt4pairIKSsiESt10_Select1stIS2_ESt4lessISsESaIS2_EE8_M_eraseEPSt13_Rb_tree_nodeIS2_E
0017030c  w   DF .text	00000068 _ZNSt8_Rb_treeISsSt4pairIKSsiESt10_Select1stIS2_ESt4lessISsESaIS2_EE4findERS1_
00170374  w   DF .text	000000a0 _ZNSt8_Rb_treeISsSt4pairIKSsiESt10_Select1stIS2_ESt4lessISsESaIS2_EE24_M_get_insert_unique_posERS1_
00170414  w   DF .text	000001bc _ZNSt8_Rb_treeISsSt4pairIKSsiESt10_Select1stIS2_ESt4lessISsESaIS2_EE17_M_insert_unique_ESt23_Rb_tree_const_iteratorIS2_ERKS2_
001705d0  w   DF .text	000000b4 _ZNSt3mapISsiSt4lessISsESaISt4pairIKSsiEEEixERS3_
0016fa04 g    DF .text	0000059c _ZN8Thunderz18fileNameValidCheckEP6_BNode
0016ffa0 g    DF .text	000001b0 _ZN8Thunderz17fileListValidWalkEv
00170150 g    DF .text	00000058 _ZN8Thunderz4initEPKvj
001701a8 g    DF .text	000000e0 _ZN8ThunderzC2EPKc
00000000      DF *UND*	00000000 fseek
00000000      DF *UND*	00000000 ftell
00170288 g    DF .text	00000044 _ZN8ThunderzC2EPKvj
00170684 g    DF .text	0000000c _ZN5SdDirC2Ev
00170690 g    DF .text	00000060 _ZN5SdDir4cdUpEv
00170740 g    DF .text	000001c8 _ZN5SdDir2cdEPKcPS1_
00000000      DF *UND*	00000000 readlink
001709e4 g    DF .text	00000168 _ZN5SdDir8FromPathEPKcPS1_
002f246c g    DO .bss	00000200 _ZN5SdDir11sCurrDirSetE
00170b4c g    DF .text	00000028 _ZN5SdDirC2EPKc
00170b74 g    DF .text	00000038 _ZN5SdDirC2EPKcPS1_
00170b74 g    DF .text	00000038 _ZN5SdDirC1EPKcPS1_
00170bc0 g    DF .text	00000048 _ZN5SdDir11sSetCurrDirEPKc
002f2678 g    DO .bss	00000004 g_support_new_p2p_upload
002f267c g    DO .bss	00000004 g_vod_peer_capability
002f2674 g    DO .bss	00000004 g_support_upnp
002e86cc g    DO .data	00000004 g_self_is_in_nat
00170cdc g    DF .text	00000078 _Z34PeerCapability_set_peer_capabilityPjiiiiiii
00170dbc g    DF .text	00000008 _Z34PeerCapability_is_support_intranetj
00170dc4 g    DF .text	00000008 _Z26PeerCapability_is_same_natj
00170dcc g    DF .text	00000008 _Z33PeerCapability_is_support_new_p2pj
00170dd4 g    DF .text	00000008 _Z21PeerCapability_is_cdnj
00170ddc g    DF .text	00000008 _Z29PeerCapability_is_support_ptlj
00170de4 g    DF .text	00000008 _Z33PeerCapability_is_support_new_udtj
002f2670 g    DO .bss	00000004 g_vod_p2p_capability
00170fe8 g    DF .text	00000048 SetNbNkNr
00171030 g    DF .text	00000054 AddRoundKey
00171084 g    DF .text	00000048 SubBytes
001710cc g    DF .text	00000058 InvSubBytes
00171124 g    DF .text	00000098 ShiftRows
001711bc g    DF .text	00000090 InvShiftRows
0017124c g    DF .text	00000004 gfmultby01
00171250 g    DF .text	00000014 gfmultby02
00171264 g    DF .text	00000018 gfmultby03
0017127c g    DF .text	00000164 MixColumns
00171500 g    DF .text	00000020 gfmultby09
00171520 g    DF .text	00000030 gfmultby0b
00171550 g    DF .text	00000034 gfmultby0d
00171584 g    DF .text	00000040 gfmultby0e
001715c4 g    DF .text	00000164 InvMixColumns
00171844 g    DF .text	00000040 SubWord
00171884 g    DF .text	00000024 RotWord
001718a8 g    DF .text	000001d4 KeyExpansion
00171aac g    DF .text	00000058 gen_aes_key_by_ptr
00171db8 g    DF .text	00000220 sd_aes_encrypt
00171fd8 g    DF .text	000001d0 sd_aes_decrypt
001721a8 g    DF .text	0000035c sd_aes_decrypt_file
00172504 g    DF .text	000000e0 em_aes_encrypt
001725e4 g    DF .text	000000b4 em_aes_decrypt
00172698 g    DF .text	00000034 _ZN16speed_calculatorD2Ev
002e20c0 g    DO .data.rel.ro	00000010 _ZTV16speed_calculator
001726cc g    DF .text	0000001c _ZN16speed_calculatorD0Ev
001726e8 g    DF .text	00000074 _ZN16speed_calculatorC2Eyy
0017275c g    DF .text	00000084 _ZN16speed_calculator5cleanEyy
001727e0 g    DF .text	00000064 _ZN16speed_calculator6updateEy
002ab028 g    DO .rodata	00000013 _ZTS16speed_calculator
002e20b8 g    DO .data.rel.ro	00000008 _ZTI16speed_calculator
00172a5c g    DF .text	00000098 list_insert
00172bb4 g    DF .text	00000088 list_clear
00172c3c g    DF .text	00000094 list_swap
00172d20 g    DF .text	0000006c _ZN10GlobalInfoC2Ev
00172d8c g    DF .text	000000a8 _ZN10GlobalInfoD2Ev
00172fe4 g    DF .text	00000008 _ZN10GlobalInfo6GetMacEv
00173010 g    DF .text	00000008 _ZN10GlobalInfo7GetImeiEv
001733c4 g    DF .text	00000008 _ZN10GlobalInfo19GetStatReportSwitchEv
002f2684 g    DO .bss	00000004 g_ref_mutex
0017345c g    DF .text	00000014 _ZN6jmutexD2Ev
00173478 g    DF .text	00000014 _ZN6jmutex7tryLockEv
0017348c g    DF .text	00000008 _ZN6jmutex4initEv
00173494 g    DF .text	00000014 _ZN6jmutexC2Ev
00173740  w   DF .text	00000028 _ZNSt4listIP7TAG_MSGSaIS1_EED2Ev
00173740  w   DF .text	00000028 _ZNSt4listIP7TAG_MSGSaIS1_EED1Ev
002f2694 g    DO .bss	00000008 g_list_msg_pool
002f2690 g    DO .bss	00000004 g_msg_pool_init_thread_id
001735c0 g    DF .text	0000005c _Z19alloc_msg_from_poolPP7TAG_MSG
0017361c g    DF .text	00000068 _Z16free_msg_to_poolP7TAG_MSG
002f2688 g    DO .bss	00000008 g_msg_count_test
00173768 g    DF .text	0000001c _Z14map_comparatorPvS_
00173ae0 g    DF .text	00000048 predecessor
00173d20 g    DF .text	00000058 set_find_iterator
00173dc4 g    DF .text	00000050 set_find_iterator_by_custom_compare_function
00173e14 g    DF .text	00000048 set_find_node_by_custom_compare_function
00173e5c g    DF .text	00000324 set_erase_it_without_free
00174230 g    DF .text	000000dc set_insert_setnode
0017430c g    DF .text	00000054 set_clear
002f26ac g    DO .bss	00000004 g_global_map_lock
001744ac g    DF .text	00000008 map_size
00174678 g    DF .text	000000f4 map_erase_node_1
00174804 g    DF .text	00000060 map_erase_iterator
00174864 g    DF .text	00000074 map_find_iterator
001748d8 g    DF .text	0000009c map_find_node_by_custom_compare_function
00174974 g    DF .text	00000064 map_find_iterator_by_custom_compare_function
00000000      DF *UND*	00000000 pthread_once
00174b00 g    DF .text	00000014 _Z16get_sockaddr_lenP25__kernel_sockaddr_storage
00174e90 g    DF .text	000000b0 sd_asyn_proxy_connect
00000000      DF *UND*	00000000 recv
00174fa8 g    DF .text	000000b0 sd_recvfrom
00000000      DF *UND*	00000000 send
001750c0 g    DF .text	000000a4 sd_sendto
00175164 g    DF .text	00000074 sd_getpeername
00000000      DF *UND*	00000000 getpeername
00000000      DF *UND*	00000000 getsockname
0017524c g    DF .text	0000005c sd_set_snd_timeout
001752a8 g    DF .text	0000005c sd_set_rcv_timeout
00175348 g    DF .text	0000003c sd_set_socket_ttl
00175384 g    DF .text	00000008 sd_gethostbyname
00175410 g    DF .text	00000004 _Z9notice_cbP7ev_loopP8ev_asynci
00000000      DF *UND*	00000000 ev_loop_new
00000000      DF *UND*	00000000 ev_break
00000000      DF *UND*	00000000 ev_loop_destroy
001755a4 g    DF .text	00000034 _ZN14TaskDataMemroyC2Ev
00175874  w   DF .text	00000038 _ZNSt8_Rb_treeIySt4pairIKyN14TaskDataMemroy18TaskDataMemroyNodeEESt10_Select1stIS4_ESt4lessIyESaIS4_EE8_M_eraseEPSt13_Rb_tree_nodeIS4_E
001755d8 g    DF .text	00000018 _ZN14TaskDataMemroyD2Ev
001758ac  w   DF .text	0000009c _ZNSt8_Rb_treeIySt4pairIKyN14TaskDataMemroy18TaskDataMemroyNodeEESt10_Select1stIS4_ESt4lessIyESaIS4_EE24_M_get_insert_unique_posERS1_
00175948  w   DF .text	00000198 _ZNSt8_Rb_treeIySt4pairIKyN14TaskDataMemroy18TaskDataMemroyNodeEESt10_Select1stIS4_ESt4lessIyESaIS4_EE17_M_insert_unique_ESt23_Rb_tree_const_iteratorIS4_ERKS4_
00175ae0  w   DF .text	00000098 _ZNSt3mapIyN14TaskDataMemroy18TaskDataMemroyNodeESt4lessIyESaISt4pairIKyS1_EEEixERS5_
00175d88 g    DF .text	00000014 queue_size
00175e74 g    DF .text	00000010 queue_get_tail_ptr
00175e84 g    DF .text	00000038 queue_peek
00175fcc g    DF .text	00000058 queue_push_without_alloc
00176024 g    DF .text	00000058 queue_pop_without_dealloc
0017607c g    DF .text	000000c8 queue_recycle
00176144 g    DF .text	000000d4 queue_reserved
00176218 g    DF .text	00000164 queue_check_full
0017637c g    DF .text	000000b4 queue_check_empty
001768d4 g    DF .text	000000e8 sd_base64_decode_v2
001769bc g    DF .text	0000009c sd_localtime
00000000      DF *UND*	00000000 localtime
00176a58 g    DF .text	000000a4 sd_local_time
00176b94 g    DF .text	00000028 test_cpu_frq
00000000      DF *UND*	00000000 sysconf
00176bbc g    DF .text	00000090 time_int_to_str
00176c4c g    DF .text	00000154 time_str_to_int
00000000      DF *UND*	00000000 mktime
00176dd8 g    DF .text	00000084 rsa_check_pubkey
00176e5c g    DF .text	000001c8 rsa_check_privkey
00177024 g    DF .text	000000d0 rsa_public
001770f4 g    DF .text	00000184 rsa_private
00177278 g    DF .text	000000e0 rsa_pkcs1_encrypt
00177358 g    DF .text	000000d4 rsa_pkcs1_decrypt
001776c8 g    DF .text	000001b0 rsa_pkcs1_verify
001778e0 g    DF .text	000002a0 rsa_gen_key
00177b80 g    DF .text	00000004 _ZN4GzipC2Ev
00177b80 g    DF .text	00000004 _ZN4GzipC1Ev
00000000      DF *UND*	00000000 inflateInit2_
00000000      DF *UND*	00000000 inflate
00000000      DF *UND*	00000000 inflateEnd
00177d60 g    DF .text	0000147c sha1_handle
0017bb20  w   DF .text	00000010 _ZN4Json21DefaultValueAllocator14makeMemberNameEPKc
0017bb30  w   DF .text	0000000c _ZN4Json21DefaultValueAllocator17releaseMemberNameEPc
0017bb3c  w   DF .text	0000000c _ZN4Json21DefaultValueAllocator18releaseStringValueEPc
0017bb48  w   DF .text	00000040 _ZN4Json21DefaultValueAllocator20duplicateStringValueEPKcj
002e20e0  w   DO .data.rel.ro	00000020 _ZTVN4Json21DefaultValueAllocatorE
0017bb88  w   DF .text	00000028 _ZN4Json21DefaultValueAllocatorD1Ev
00179468 g    DF .text	00000004 _ZN4Json14ValueAllocatorD2Ev
00179468 g    DF .text	00000004 _ZN4Json14ValueAllocatorD1Ev
0017bb88  w   DF .text	00000028 _ZN4Json21DefaultValueAllocatorD2Ev
0017bbb0  w   DF .text	0000001c _ZN4Json21DefaultValueAllocatorD0Ev
0017946c g    DF .text	0000001c _ZN4Json14ValueAllocatorD0Ev
00179488 g    DF .text	00000014 _ZN4Json17ValueIteratorBaseC2Ev
00179488 g    DF .text	00000014 _ZN4Json17ValueIteratorBaseC1Ev
0017949c g    DF .text	00000014 _ZN4Json17ValueIteratorBaseC2ERKSt17_Rb_tree_iteratorISt4pairIKNS_5Value8CZStringES3_EE
0017949c g    DF .text	00000014 _ZN4Json17ValueIteratorBaseC1ERKSt17_Rb_tree_iteratorISt4pairIKNS_5Value8CZStringES3_EE
001794b0 g    DF .text	0000000c _ZNK4Json17ValueIteratorBase5derefEv
001794bc g    DF .text	00000018 _ZN4Json17ValueIteratorBase9incrementEv
001794d4 g    DF .text	00000018 _ZN4Json17ValueIteratorBase9decrementEv
001794ec g    DF .text	0000004c _ZNK4Json17ValueIteratorBase15computeDistanceERKS0_
00179538 g    DF .text	00000024 _ZNK4Json17ValueIteratorBase7isEqualERKS0_
0017955c g    DF .text	0000000c _ZN4Json17ValueIteratorBase4copyERKS0_
00179568 g    DF .text	00000014 _ZN4Json18ValueConstIteratorC2Ev
00179568 g    DF .text	00000014 _ZN4Json18ValueConstIteratorC1Ev
0017957c g    DF .text	00000014 _ZN4Json18ValueConstIteratorC2ERKSt17_Rb_tree_iteratorISt4pairIKNS_5Value8CZStringES3_EE
0017957c g    DF .text	00000014 _ZN4Json18ValueConstIteratorC1ERKSt17_Rb_tree_iteratorISt4pairIKNS_5Value8CZStringES3_EE
00179590 g    DF .text	00000014 _ZN4Json18ValueConstIteratoraSERKNS_17ValueIteratorBaseE
001795a4 g    DF .text	00000014 _ZN4Json13ValueIteratorC2Ev
001795a4 g    DF .text	00000014 _ZN4Json13ValueIteratorC1Ev
001795b8 g    DF .text	00000014 _ZN4Json13ValueIteratorC2ERKSt17_Rb_tree_iteratorISt4pairIKNS_5Value8CZStringES3_EE
001795b8 g    DF .text	00000014 _ZN4Json13ValueIteratorC1ERKSt17_Rb_tree_iteratorISt4pairIKNS_5Value8CZStringES3_EE
001795cc g    DF .text	00000030 _ZN4Json13ValueIteratorC2ERKNS_18ValueConstIteratorE
001795cc g    DF .text	00000030 _ZN4Json13ValueIteratorC1ERKNS_18ValueConstIteratorE
001795fc g    DF .text	00000030 _ZN4Json13ValueIteratorC2ERKS0_
001795fc g    DF .text	00000030 _ZN4Json13ValueIteratorC1ERKS0_
0017962c g    DF .text	00000014 _ZN4Json13ValueIteratoraSERKS0_
00179640 g    DF .text	0000000c _ZN4Json5Value11CommentInfoC2Ev
00179640 g    DF .text	0000000c _ZN4Json5Value11CommentInfoC1Ev
0017964c g    DF .text	00000034 _ZN4Json5Value11CommentInfoD2Ev
0017964c g    DF .text	00000034 _ZN4Json5Value11CommentInfoD1Ev
00179680 g    DF .text	00000054 _ZN4Json5Value11CommentInfo10setCommentEPKc
001796d4 g    DF .text	00000010 _ZN4Json5Value8CZStringC2Ei
001796d4 g    DF .text	00000010 _ZN4Json5Value8CZStringC1Ei
001796e4 g    DF .text	00000040 _ZN4Json5Value8CZStringC2EPKcNS1_17DuplicationPolicyE
001796e4 g    DF .text	00000040 _ZN4Json5Value8CZStringC1EPKcNS1_17DuplicationPolicyE
00179724 g    DF .text	0000006c _ZN4Json5Value8CZStringC2ERKS1_
00179724 g    DF .text	0000006c _ZN4Json5Value8CZStringC1ERKS1_
00179790 g    DF .text	00000040 _ZN4Json5Value8CZStringD2Ev
00179790 g    DF .text	00000040 _ZN4Json5Value8CZStringD1Ev
001797d0 g    DF .text	00000024 _ZN4Json5Value8CZString4swapERS1_
001797f4 g    DF .text	00000040 _ZN4Json5Value8CZStringaSERKS1_
00179834 g    DF .text	0000003c _ZNK4Json5Value8CZStringltERKS1_
001798b0 g    DF .text	00000040 _ZNK4Json5Value8CZStringeqERKS1_
001798f0 g    DF .text	00000008 _ZNK4Json5Value8CZString5indexEv
001798f8 g    DF .text	00000008 _ZNK4Json5Value8CZString5c_strEv
00179900 g    DF .text	0000005c _ZNK4Json17ValueIteratorBase5indexEv
0017995c g    DF .text	00000028 _ZNK4Json17ValueIteratorBase10memberNameEv
00179984 g    DF .text	00000010 _ZNK4Json5Value8CZString14isStaticStringEv
00179994 g    DF .text	000000a8 _ZN4Json5ValueC2ENS_9ValueTypeE
00179a3c g    DF .text	00000018 _ZN4Json5ValueC2Ei
00179a54 g    DF .text	00000018 _ZN4Json5ValueC2Ej
00179a6c g    DF .text	00000018 _ZN4Json5ValueC2Ed
00179a6c g    DF .text	00000018 _ZN4Json5ValueC1Ed
00179a84 g    DF .text	00000050 _ZN4Json5ValueC2EPKc
00179ad4 g    DF .text	00000054 _ZN4Json5ValueC2EPKcS2_
00179ad4 g    DF .text	00000054 _ZN4Json5ValueC1EPKcS2_
00179b28 g    DF .text	00000050 _ZN4Json5ValueC2ERKSs
00179b78 g    DF .text	00000028 _ZN4Json5ValueC2ERKNS_12StaticStringE
00179b78 g    DF .text	00000028 _ZN4Json5ValueC1ERKNS_12StaticStringE
00179ba0 g    DF .text	000000a4 _ZNK4Json17ValueIteratorBase3keyEv
00179c44 g    DF .text	00000018 _ZN4Json5ValueC2Eb
00179c44 g    DF .text	00000018 _ZN4Json5ValueC1Eb
00179c5c g    DF .text	00000054 _ZN4Json5Value4swapERS0_
00179cb8 g    DF .text	00000008 _ZN4Json5Value7compareERKS0_
00179cc0 g    DF .text	0000012c _ZNK4Json5ValueeqERKS0_
00179dec g    DF .text	00000014 _ZNK4Json5ValueneERKS0_
00179e00 g    DF .text	00000008 _ZNK4Json5Value9asCStringEv
00179efc g    DF .text	00000050 _ZNK4Json5Value6asUIntEv
00179f4c g    DF .text	00000074 _ZNK4Json5Value8asDoubleEv
0017a054 g    DF .text	000001fc _ZNK4Json5Value15isConvertibleToENS_9ValueTypeE
0017a2a4 g    DF .text	0000001c _ZNK4Json5Value12isValidIndexEj
0017a2d0 g    DF .text	00000004 _ZNK4Json5ValuentEv
0017a2d4 g    DF .text	00000014 _ZNK4Json5Value6isBoolEv
0017a2e8 g    DF .text	00000014 _ZNK4Json5Value5isIntEv
0017a2fc g    DF .text	00000014 _ZNK4Json5Value6isUIntEv
0017a310 g    DF .text	0000001c _ZNK4Json5Value10isIntegralEv
0017a32c g    DF .text	00000014 _ZNK4Json5Value8isDoubleEv
0017a340 g    DF .text	00000020 _ZNK4Json5Value9isNumericEv
0017a360 g    DF .text	00000014 _ZNK4Json5Value8isStringEv
0017a374 g    DF .text	00000018 _ZNK4Json5Value7isArrayEv
0017a38c g    DF .text	00000018 _ZNK4Json5Value8isObjectEv
0017a3a4 g    DF .text	00000048 _ZNK4Json5Value5emptyEv
0017a3ec g    DF .text	000000b8 _ZN4Json5Value10setCommentEPKcNS_16CommentPlacementE
0017a4a4 g    DF .text	00000008 _ZN4Json5Value10setCommentERKSsNS_16CommentPlacementE
0017a4ac g    DF .text	0000001c _ZNK4Json5Value10hasCommentENS_16CommentPlacementE
0017a4c8 g    DF .text	00000050 _ZNK4Json5Value10getCommentENS_16CommentPlacementE
0017a518 g    DF .text	0000004c _ZNK4Json5Value5beginEv
0017a564 g    DF .text	0000004c _ZNK4Json5Value3endEv
0017a5b0 g    DF .text	0000004c _ZN4Json5Value5beginEv
0017a5fc g    DF .text	0000004c _ZN4Json5Value3endEv
0017a648 g    DF .text	00000020 _ZN4Json12PathArgumentC2Ev
0017a648 g    DF .text	00000020 _ZN4Json12PathArgumentC1Ev
0017a668 g    DF .text	00000024 _ZN4Json12PathArgumentC2Ej
0017a668 g    DF .text	00000024 _ZN4Json12PathArgumentC1Ej
0017a68c g    DF .text	00000024 _ZN4Json12PathArgumentC2EPKc
0017a68c g    DF .text	00000024 _ZN4Json12PathArgumentC1EPKc
0017a6b0 g    DF .text	00000028 _ZN4Json12PathArgumentC2ERKSs
0017a6b0 g    DF .text	00000028 _ZN4Json12PathArgumentC1ERKSs
0017a6d8 g    DF .text	00000004 _ZN4Json4Path11invalidPathERKSsi
0017bbcc  w   DF .text	00000040 _ZNSt8_Rb_treeIN4Json5Value8CZStringESt4pairIKS2_S1_ESt10_Select1stIS5_ESt4lessIS2_ESaIS5_EE8_M_eraseEPSt13_Rb_tree_nodeIS5_E
0017bc0c  w   DF .text	0000002c _ZNSt4pairIKN4Json5Value8CZStringES1_ED1Ev
0017a6dc g    DF .text	00000040 _ZN4Json5Value5clearEv
0017a71c g    DF .text	000000b4 _ZN4Json5ValueD2Ev
0017bc0c  w   DF .text	0000002c _ZNSt4pairIKN4Json5Value8CZStringES1_ED2Ev
0017bc38  w   DF .text	0000004c _ZNSt8_Rb_treeIN4Json5Value8CZStringESt4pairIKS2_S1_ESt10_Select1stIS5_ESt4lessIS2_ESaIS5_EE4findERS4_
0017a7d0 g    DF .text	0000007c _ZNK4Json5ValueixEj
002f2710 g    DO .bss	00000010 _ZN4Json5Value4nullE
0017a8d4 g    DF .text	00000084 _ZNK4Json4Path7resolveERKNS_5ValueE
0017a958 g    DF .text	00000020 _ZNK4Json5Value8isMemberEPKc
0017a978 g    DF .text	00000008 _ZNK4Json5Value8isMemberERKSs
0017bc84  w   DF .text	00000120 _ZNSt6vectorIPKN4Json12PathArgumentESaIS3_EE13_M_insert_auxEN9__gnu_cxx17__normal_iteratorIPS3_S5_EERKS3_
0017bda4  w   DF .text	00000038 _ZNSt6vectorIPKN4Json12PathArgumentESaIS3_EE9push_backERKS3_
0017bddc  w   DF .text	000000d4 _ZNSt8_Rb_treeIN4Json5Value8CZStringESt4pairIKS2_S1_ESt10_Select1stIS5_ESt4lessIS2_ESaIS5_EE7_M_copyEPKSt13_Rb_tree_nodeIS5_EPSD_
0017a980 g    DF .text	000001f0 _ZN4Json5ValueC2ERKS0_
0017abb4 g    DF .text	00000040 _ZNK4Json5Value3getEjRKS0_
0017abf4 g    DF .text	00000040 _ZNK4Json5Value3getEPKcRKS0_
0017ac34 g    DF .text	00000018 _ZNK4Json5Value3getERKSsRKS0_
0017ac4c g    DF .text	00000100 _ZN4Json5Value12removeMemberEPKc
0017ad4c g    DF .text	00000018 _ZN4Json5Value12removeMemberERKSs
0017ad64 g    DF .text	000000d0 _ZNK4Json4Path7resolveERKNS_5ValueES3_
0017beb0  w   DF .text	00000040 _ZN4Json12StyledWriterD2Ev
0017c9a0 g    DF .text	00000004 _ZN4Json6WriterD2Ev
002e2178 g    DO .data.rel.ro	00000014 _ZTVN4Json12StyledWriterE
0017beb0  w   DF .text	00000040 _ZN4Json12StyledWriterD1Ev
0017ca00 g    DF .text	00000050 _ZN4Json12StyledWriterC1Ev
0017da08 g    DF .text	0000008c _ZN4Json12StyledWriter5writeERKNS_5ValueE
0017bef0  w   DF .text	0000001c _ZN4Json12StyledWriterD0Ev
0017bf0c  w   DF .text	000000a0 _ZNSt8_Rb_treeIN4Json5Value8CZStringESt4pairIKS2_S1_ESt10_Select1stIS5_ESt4lessIS2_ESaIS5_EE24_M_get_insert_unique_posERS4_
0017bfac  w   DF .text	00000190 _ZNSt8_Rb_treeIN4Json5Value8CZStringESt4pairIKS2_S1_ESt10_Select1stIS5_ESt4lessIS2_ESaIS5_EE17_M_insert_unique_ESt23_Rb_tree_const_iteratorIS5_ERKS5_
0017b000 g    DF .text	000001ec _ZN4Json5Value6resizeEj
0017b1ec g    DF .text	00000028 _ZN4Json5Value6appendERKS0_
0017b214 g    DF .text	0000012c _ZN4Json5Value16resolveReferenceEPKcb
0017b348 g    DF .text	00000008 _ZN4Json5ValueixERKSs
0017b350 g    DF .text	00000070 _ZNK4Json4Path4makeERNS_5ValueE
0017b3c0 g    DF .text	0000000c _ZN4Json5ValueixERKNS_12StaticStringE
0017c13c  w   DF .text	0000007c _ZNSt20__uninitialized_copyILb0EE13__uninit_copyIPN4Json12PathArgumentES4_EET0_T_S6_S5_
0017c1b8  w   DF .text	00000254 _ZNSt6vectorIN4Json12PathArgumentESaIS1_EE13_M_insert_auxEN9__gnu_cxx17__normal_iteratorIPS1_S3_EERKS1_
0017c40c  w   DF .text	0000005c _ZNSt6vectorIN4Json12PathArgumentESaIS1_EE9push_backERKS1_
0017b604 g    DF .text	00000028 _ZN4Json4Path12addPathInArgERKSsRKSt6vectorIPKNS_12PathArgumentESaIS6_EERN9__gnu_cxx17__normal_iteratorIPKS6_S8_EENS4_4KindE
0017b62c g    DF .text	00000234 _ZN4Json4Path8makePathERKSsRKSt6vectorIPKNS_12PathArgumentESaIS6_EE
0017b860 g    DF .text	000000fc _ZN4Json4PathC2ERKSsRKNS_12PathArgumentES5_S5_S5_S5_
0017b860 g    DF .text	000000fc _ZN4Json4PathC1ERKSsRKNS_12PathArgumentES5_S5_S5_S5_
0017c468  w   DF .text	00000044 _ZStltIKN4Json5Value8CZStringES1_EbRKSt4pairIT_T0_ES9_
0017b95c g    DF .text	0000017c _ZNK4Json5ValueltERKS0_
0017bad8 g    DF .text	00000014 _ZNK4Json5ValuegeERKS0_
0017baec g    DF .text	00000010 _ZNK4Json5ValuegtERKS0_
0017bafc g    DF .text	00000020 _ZNK4Json5ValueleERKS0_
002ab20c g    DO .rodata	00000018 _ZTSN4Json14ValueAllocatorE
002e2100 g    DO .data.rel.ro	00000008 _ZTIN4Json14ValueAllocatorE
002e20d0  w   DO .data.rel.ro	0000000c _ZTIN4Json21DefaultValueAllocatorE
002ab1ec  w   DO .rodata	0000001f _ZTSN4Json21DefaultValueAllocatorE
002e2108 g    DO .data.rel.ro	00000020 _ZTVN4Json14ValueAllocatorE
002ab224 g    DO .rodata	00000004 _ZN4Json5Value7maxUIntE
002ab228 g    DO .rodata	00000004 _ZN4Json5Value6maxIntE
002ab22c g    DO .rodata	00000004 _ZN4Json5Value6minIntE
0017e334  w   DF .text	00000010 _ZSt9uppercaseRSt8ios_base
0017e344  w   DF .text	00000014 _ZSt3hexRSt8ios_base
0017c4ac g    DF .text	0000007c _ZN4Json13valueToStringEi
0017c528 g    DF .text	0000005c _ZN4Json13valueToStringEj
0017c584 g    DF .text	000000bc _ZN4Json13valueToStringEd
0017c640 g    DF .text	0000003c _ZN4Json13valueToStringEb
0017c67c g    DF .text	00000324 _ZN4Json19valueToQuotedStringEPKc
00000000      DF *UND*	00000000 strpbrk
0017c9a0 g    DF .text	00000004 _ZN4Json6WriterD1Ev
0017e358  w   DF .text	00000030 _ZN4Json10FastWriterD2Ev
002e2160 g    DO .data.rel.ro	00000014 _ZTVN4Json10FastWriterE
0017e358  w   DF .text	00000030 _ZN4Json10FastWriterD1Ev
0017e388  w   DF .text	0000001c _ZN4Json10FastWriterD0Ev
0017c9a4 g    DF .text	0000001c _ZN4Json6WriterD0Ev
0017c9c0 g    DF .text	00000034 _ZN4Json10FastWriterC2Ev
0017c9c0 g    DF .text	00000034 _ZN4Json10FastWriterC1Ev
0017c9f4 g    DF .text	0000000c _ZN4Json10FastWriter23enableYAMLCompatibilityEv
0017ca00 g    DF .text	00000050 _ZN4Json12StyledWriterC2Ev
0017ca50 g    DF .text	0000005c _ZN4Json12StyledWriter11writeIndentEv
0017caac g    DF .text	00000020 _ZN4Json12StyledWriter15writeWithIndentERKSs
0017cacc g    DF .text	00000048 _ZN4Json12StyledWriter6indentEv
0017cb14 g    DF .text	00000018 _ZN4Json12StyledWriter8unindentEv
0017cb2c g    DF .text	00000048 _ZN4Json12StyledWriter18hasCommentForValueERKNS_5ValueE
0017cb74 g    DF .text	00000088 _ZN4Json12StyledWriter12normalizeEOLERKSs
0017cbfc g    DF .text	0000009c _ZN4Json12StyledWriter23writeCommentBeforeValueERKNS_5ValueE
0017cc98 g    DF .text	00000020 _ZN4Json18StyledStreamWriter11writeIndentEv
0017ccb8 g    DF .text	00000020 _ZN4Json18StyledStreamWriter15writeWithIndentERKSs
0017ccd8 g    DF .text	00000010 _ZN4Json18StyledStreamWriter6indentEv
0017cce8 g    DF .text	0000001c _ZN4Json18StyledStreamWriter8unindentEv
0017cd04 g    DF .text	00000048 _ZN4Json18StyledStreamWriter18hasCommentForValueERKNS_5ValueE
0017cd4c g    DF .text	00000088 _ZN4Json18StyledStreamWriter12normalizeEOLERKSs
0017cdd4 g    DF .text	0000009c _ZN4Json18StyledStreamWriter23writeCommentBeforeValueERKNS_5ValueE
0017ce70 g    DF .text	00000144 _ZN4Json12StyledWriter32writeCommentAfterValueOnSameLineERKNS_5ValueE
0017cfb4 g    DF .text	00000144 _ZN4Json18StyledStreamWriter32writeCommentAfterValueOnSameLineERKNS_5ValueE
0017d0f8 g    DF .text	0000005c _ZN4Json18StyledStreamWriterC2ESs
0017d0f8 g    DF .text	0000005c _ZN4Json18StyledStreamWriterC1ESs
0017d154 g    DF .text	000002f8 _ZN4Json10FastWriter10writeValueERKNS_5ValueE
0017d44c g    DF .text	0000005c _ZN4Json10FastWriter5writeERKNS_5ValueE
0017e3a4  w   DF .text	000000bc _ZNSt6vectorISsSaISsEE7reserveEj
0017d4a8 g    DF .text	0000001c _ZN4Json12StyledWriter9pushValueERKSs
0017d4c4 g    DF .text	00000210 _ZN4Json12StyledWriter15writeArrayValueERKNS_5ValueE
0017da94 g    DF .text	00000120 _ZN4Json12StyledWriter14isMultineArrayERKNS_5ValueE
0017d6d4 g    DF .text	00000334 _ZN4Json12StyledWriter10writeValueERKNS_5ValueE
0017dbb4 g    DF .text	00000018 _ZN4Json18StyledStreamWriter9pushValueERKSs
0017dbcc g    DF .text	00000204 _ZN4Json18StyledStreamWriter15writeArrayValueERKNS_5ValueE
0017e214 g    DF .text	00000120 _ZN4Json18StyledStreamWriter14isMultineArrayERKNS_5ValueE
0017ddd0 g    DF .text	00000330 _ZN4Json18StyledStreamWriter10writeValueERKNS_5ValueE
0017e100 g    DF .text	0000006c _ZN4Json18StyledStreamWriter5writeERSoRKNS_5ValueE
0017e16c g    DF .text	000000a8 _ZN4JsonlsERSoRKNS_5ValueE
002ab230 g    DO .rodata	0000000f _ZTSN4Json6WriterE
002e2128 g    DO .data.rel.ro	00000008 _ZTIN4Json6WriterE
002ab240 g    DO .rodata	00000014 _ZTSN4Json10FastWriterE
002e2130 g    DO .data.rel.ro	0000000c _ZTIN4Json10FastWriterE
002ab254 g    DO .rodata	00000016 _ZTSN4Json12StyledWriterE
002e213c g    DO .data.rel.ro	0000000c _ZTIN4Json12StyledWriterE
002e2148 g    DO .data.rel.ro	00000014 _ZTVN4Json6WriterE
0017e48c g    DF .text	00000014 _ZN4Json8FeaturesC2Ev
0017e48c g    DF .text	00000014 _ZN4Json8FeaturesC1Ev
0017e4a0 g    DF .text	0000002c _ZN4Json8Features3allEv
0017e4cc g    DF .text	00000038 _ZN4Json8Features10strictModeEv
0017e504 g    DF .text	0000003c _ZN4Json6Reader10skipSpacesEv
0017e540 g    DF .text	0000005c _ZN4Json6Reader5matchEPKci
0017e59c g    DF .text	00000060 _ZN4Json6Reader10readNumberEv
0017e5fc g    DF .text	00000020 _ZN4Json6Reader12currentValueEv
0017e61c g    DF .text	00000020 _ZN4Json6Reader11getNextCharEv
0017e63c g    DF .text	00000050 _ZN4Json6Reader17readCStyleCommentEv
0017e68c g    DF .text	00000034 _ZN4Json6Reader19readCppStyleCommentEv
0017e6c0 g    DF .text	00000054 _ZN4Json6Reader10readStringEv
0017e714 g    DF .text	00000084 _ZNK4Json6Reader24getLocationLineAndColumnEPKcRiS3_
0017e798 g    DF .text	00000058 _ZNK4Json6Reader24getLocationLineAndColumnEPKc
0018080c  w   DF .text	0000004c _ZNSt5dequeIPN4Json5ValueESaIS2_EED2Ev
0018080c  w   DF .text	0000004c _ZNSt5dequeIPN4Json5ValueESaIS2_EED1Ev
0017e7f0 g    DF .text	00000210 _ZNK4Json6Reader24getFormatedErrorMessagesEv
00180858  w   DF .text	00000050 _ZNKSt5dequeIN4Json6Reader9ErrorInfoESaIS2_EE4sizeEv
001808a8  w   DF .text	00000024 _ZNSt15_Deque_iteratorIN4Json6Reader9ErrorInfoERS2_PS2_EC2ERKS5_
001808a8  w   DF .text	00000024 _ZNSt15_Deque_iteratorIN4Json6Reader9ErrorInfoERS2_PS2_EC1ERKS5_
001808cc  w   DF .text	0000004c _ZNSt5dequeIPN4Json5ValueESaIS2_EE8pop_backEv
00180918  w   DF .text	00000194 _ZNSt5dequeIPN4Json5ValueESaIS2_EE9push_backERKS2_
00180aac  w   DF .text	000000f8 _ZNSt11_Deque_baseIPN4Json5ValueESaIS2_EE17_M_initialize_mapEj
00180ba4  w   DF .text	000000fc _ZNSt5dequeIPN4Json5ValueESaIS2_EEC2ERKS4_
00180ba4  w   DF .text	000000fc _ZNSt5dequeIPN4Json5ValueESaIS2_EEC1ERKS4_
00180ca0  w   DF .text	00000104 _ZNSt11_Deque_baseIN4Json6Reader9ErrorInfoESaIS2_EE17_M_initialize_mapEj
0017ea00 g    DF .text	000000d4 _ZN4Json6ReaderC2ERKNS_8FeaturesE
0017ea00 g    DF .text	000000d4 _ZN4Json6ReaderC1ERKNS_8FeaturesE
00180da4  w   DF .text	000000b0 _ZNSt5dequeIN4Json6Reader9ErrorInfoESaIS2_EE19_M_destroy_data_auxESt15_Deque_iteratorIS2_RS2_PS2_ES8_
00180e54  w   DF .text	00000080 _ZNSt5dequeIN4Json6Reader9ErrorInfoESaIS2_EE15_M_erase_at_endESt15_Deque_iteratorIS2_RS2_PS2_E
00180ed4  w   DF .text	00000088 _ZNSt5dequeIN4Json6Reader9ErrorInfoESaIS2_EED2Ev
00180ed4  w   DF .text	00000088 _ZNSt5dequeIN4Json6Reader9ErrorInfoESaIS2_EED1Ev
0017ead4 g    DF .text	000000ec _ZN4Json6ReaderC2Ev
00180f5c  w   DF .text	0000009c _ZNSt15_Deque_iteratorIN4Json6Reader9ErrorInfoERS2_PS2_EpLEi
00180ff8  w   DF .text	00000038 _ZNKSt15_Deque_iteratorIN4Json6Reader9ErrorInfoERS2_PS2_EplEi
0017ebc0 g    DF .text	000000bc _ZN4Json6Reader10addCommentEPKcS2_NS_16CommentPlacementE
0017ec7c g    DF .text	000000d4 _ZN4Json6Reader11readCommentEv
0017ed50 g    DF .text	00000190 _ZN4Json6Reader9readTokenERNS0_5TokenE
0017eee0 g    DF .text	0000003c _ZN4Json6Reader17skipCommentTokensERNS0_5TokenE
001810b8  w   DF .text	00000134 _ZNSt5dequeIN4Json6Reader9ErrorInfoESaIS2_EE17_M_reallocate_mapEjb
0017ef1c g    DF .text	00000154 _ZN4Json6Reader8addErrorERKSsRNS0_5TokenEPKc
0017f070 g    DF .text	00000080 _ZN4Json6Reader11expectTokenENS0_9TokenTypeERNS0_5TokenEPKc
0017f0f0 g    DF .text	000001a4 _ZN4Json6Reader12decodeDoubleERNS0_5TokenE
0017f294 g    DF .text	0000029c _ZN4Json6Reader12decodeNumberERNS0_5TokenE
0017f530 g    DF .text	0000012c _ZN4Json6Reader27decodeUnicodeEscapeSequenceERNS0_5TokenERPKcS4_Rj
0017f65c g    DF .text	0000013c _ZN4Json6Reader22decodeUnicodeCodePointERNS0_5TokenERPKcS4_Rj
0017f798 g    DF .text	00000370 _ZN4Json6Reader12decodeStringERNS0_5TokenERSs
0017fb08 g    DF .text	00000094 _ZN4Json6Reader12decodeStringERNS0_5TokenE
001811ec  w   DF .text	000000d4 _ZNSt5dequeIN4Json6Reader9ErrorInfoESaIS2_EE24_M_new_elements_at_frontEj
001812c0  w   DF .text	00000038 _ZNKSt15_Deque_iteratorIN4Json6Reader9ErrorInfoERS2_PS2_EmiEi
001812f8  w   DF .text	000000d0 _ZNSt5dequeIN4Json6Reader9ErrorInfoESaIS2_EE23_M_new_elements_at_backEj
001813c8  w   DF .text	0000003c _ZNSt15_Deque_iteratorIN4Json6Reader9ErrorInfoERS2_PS2_EppEv
00181404  w   DF .text	00000058 _ZSt8_DestroyISt15_Deque_iteratorIN4Json6Reader9ErrorInfoERS3_PS3_EEvT_S7_
0018145c  w   DF .text	0000009c _ZNSt15_Deque_iteratorIN4Json6Reader9ErrorInfoERKS2_PS3_EpLEi
001814f8  w   DF .text	00000030 _ZN4Json6Reader9ErrorInfoaSERKS1_
00181528  w   DF .text	000000c4 _ZSt4fillIN4Json6Reader9ErrorInfoEEvRKSt15_Deque_iteratorIT_RS4_PS4_ES9_RKS4_
001815ec  w   DF .text	00000838 _ZNSt5dequeIN4Json6Reader9ErrorInfoESaIS2_EE13_M_insert_auxESt15_Deque_iteratorIS2_RS2_PS2_EjRKS2_
00181e24  w   DF .text	00000184 _ZNSt5dequeIN4Json6Reader9ErrorInfoESaIS2_EE14_M_fill_insertESt15_Deque_iteratorIS2_RS2_PS2_EjRKS2_
00181fa8  w   DF .text	00000088 _ZNSt5dequeIN4Json6Reader9ErrorInfoESaIS2_EE6resizeEjS2_
0017fdb8 g    DF .text	000000ec _ZN4Json6Reader16recoverFromErrorENS0_9TokenTypeE
0017fea4 g    DF .text	00000024 _ZN4Json6Reader18addErrorAndRecoverERKSsRNS0_5TokenENS0_9TokenTypeE
0017fec8 g    DF .text	000002b0 _ZN4Json6Reader10readObjectERNS0_5TokenE
00180178 g    DF .text	00000210 _ZN4Json6Reader9readValueEv
00180388 g    DF .text	00000154 _ZN4Json6Reader9readArrayERNS0_5TokenE
001804dc g    DF .text	00000188 _ZN4Json6Reader5parseEPKcS2_RNS_5ValueEb
001806a0 g    DF .text	00000070 _ZN4Json6Reader5parseERSiRNS_5ValueEb
00180710 g    DF .text	000000fc _ZN4JsonrsERSiRNS_5ValueE
00000000      DF *UND*	00000000 __cxa_free_exception
00182fe0 g    DF .text	000000b8 _ZN19DcdnAccountsStorage14AddBytesRecordERKSsR15DownBytesRecord
001820c8 g    DF .text	00000040 _ZN19DcdnAccountsManager14GetReportBytesEv
00182108 g    DF .text	00000050 _ZN19DcdnAccountsManager16StartReportTimerEj
001822fc g    DF .text	00000004 _ZN19DcdnAccountsManager13ReportTimeOutEPvS0_
00182d80 g    DF .text	00000260 _ZN19DcdnAccountsStorage4LoadEv
0018218c g    DF .text	0000003c _ZN19DcdnAccountsManager15StopReportTimerEv
0018244c  w   DF .text	00000048 _ZNSt8_Rb_treeISsSt4pairIKSs15DownBytesRecordESt10_Select1stIS3_ESt4lessISsESaIS3_EE8_M_eraseEPSt13_Rb_tree_nodeIS3_E
001821c8 g    DF .text	00000064 _ZN19DcdnAccountsManager31SaveSendingBytesRecordToStorageEv
001829b0 g    DF .text	0000017c _ZN19DcdnAccountsStorage4SaveEv
00182590 g    DF .text	000000a0 _ZN18DcdnAccountsReport14CheckCanReportEv
00183098 g    DF .text	00000110 _ZN19DcdnAccountsStorage15LoadBytesRecordERSt3mapISs15DownBytesRecordSt4lessISsESaISt4pairIKSsS1_EEE
001824fc g    DF .text	00000094 _ZN18DcdnAccountsReport6ReportERSt3mapISs15DownBytesRecordSt4lessISsESaISt4pairIKSsS1_EEEP22IReportCallbackHandler
001822d4 g    DF .text	00000028 _ZN19DcdnAccountsManager11ReportTimerEv
00182300 g    DF .text	0000005c _ZN19DcdnAccountsManager16OnReportCallbackEj
00182914 g    DF .text	00000054 _ZN19DcdnAccountsStorage18GetStorageFilePathEv
0018235c g    DF .text	00000090 _ZN19DcdnAccountsManagerC2Ev
00182494 g    DF .text	00000024 _ZN18DcdnAccountsReportC1Ev
0018269c g    DF .text	00000034 _ZN19DcdnAccountsStorageC1Ev
001824b8 g    DF .text	00000044 _ZN18DcdnAccountsReportD1Ev
002e21d0 g    DO .data.rel.ro	0000000c _ZTV19DcdnAccountsManager
001823ec g    DF .text	00000060 _ZN19DcdnAccountsManagerD2Ev
00182968 g    DF .text	00000048 _ZN19DcdnAccountsStorageD1Ev
002e2190  w   DO .data.rel.ro	00000008 _ZTI11SingletonExI19DcdnAccountsManagerE
002ab26c  w   DO .rodata	00000025 _ZTS11SingletonExI19DcdnAccountsManagerE
002e2198  w   DO .data.rel.ro	00000008 _ZTI22IReportCallbackHandler
002ab294  w   DO .rodata	00000019 _ZTS22IReportCallbackHandler
002ab2b0 g    DO .rodata	00000016 _ZTS19DcdnAccountsManager
002e21b0 g    DO .data.rel.ro	00000020 _ZTI19DcdnAccountsManager
002e21a0  w   DO .data.rel.ro	0000000c _ZTV22IReportCallbackHandler
00182494 g    DF .text	00000024 _ZN18DcdnAccountsReportC2Ev
002e21f0 g    DO .data.rel.ro	00000010 _ZTV18DcdnAccountsReport
001824b8 g    DF .text	00000044 _ZN18DcdnAccountsReportD2Ev
0019250c g    DF .text	00000038 _ZN22ProtocolDcdnUploadStatC1EP14IQueryHubEvent
00192544 g    DF .text	000001ec _ZN22ProtocolDcdnUploadStat10UploadStatERSt3mapISs15DownBytesRecordSt4lessISsESaISt4pairIKSsS1_EEE
00182630 g    DF .text	00000044 _ZN18DcdnAccountsReport14ReportCallbackEj
00182674 g    DF .text	00000014 _ZN18DcdnAccountsReport14OnQuerySuccessEP12IHubProtocolP16ProtocolResponse
00182688 g    DF .text	00000014 _ZN18DcdnAccountsReport13OnQueryFailedEP12IHubProtocoli
002ab2c8 g    DO .rodata	00000015 _ZTS18DcdnAccountsReport
002e21e0 g    DO .data.rel.ro	0000000c _ZTI18DcdnAccountsReport
0018269c g    DF .text	00000034 _ZN19DcdnAccountsStorageC2Ev
001826d0 g    DF .text	00000244 _ZN19DcdnAccountsStorage8PackJsonERKSt3mapISs15DownBytesRecordSt4lessISsESaISt4pairIKSsS1_EEERSs
00182968 g    DF .text	00000048 _ZN19DcdnAccountsStorageD2Ev
001831a8  w   DF .text	000000a0 _ZNSt8_Rb_treeISsSt4pairIKSs15DownBytesRecordESt10_Select1stIS3_ESt4lessISsESaIS3_EE24_M_get_insert_unique_posERS1_
00183248  w   DF .text	000001e8 _ZNSt8_Rb_treeISsSt4pairIKSs15DownBytesRecordESt10_Select1stIS3_ESt4lessISsESaIS3_EE17_M_insert_unique_ESt23_Rb_tree_const_iteratorIS3_ERKS3_
00183430  w   DF .text	00000120 _ZNSt3mapISs15DownBytesRecordSt4lessISsESaISt4pairIKSsS0_EEEixERS4_
00182b2c g    DF .text	00000254 _ZN19DcdnAccountsStorage9ParseJsonERN4Json5ValueERSt3mapISs15DownBytesRecordSt4lessISsESaISt4pairIKSsS4_EEE
00000000      DF *UND*	00000000 strtoull
00183580 g    DF .text	00000044 _Z21agip_pipe_response_cbiPcyyPv
00184d4c g    DF .text	0000003c get_global_cond
00184c64 g    DF .text	0000003c get_global_lock
0018406c g    DF .text	00000024 send_break
00184dbc g    DF .text	00000004 task_cond_wait
00184ca0 g    DF .text	0000003c get_global_interface_lock
00184d38 g    DF .text	00000004 task_lock
00184d40 g    DF .text	00000004 task_unlock
001844c4 g    DF .text	00000068 proto_client_init
001859c8 g    DF .text	00000074 pipe_close
00184600 g    DF .text	00000068 proto_client_exit
00184ce0 g    DF .text	0000002c uninit_global_lock
00184d8c g    DF .text	0000002c uninit_global_cond
00184d0c g    DF .text	0000002c uninit_global_interface_lock
00183780 g    DF .text	00000090 _Z25agip_pipe_create_internalPv
001852e4 g    DF .text	000000c4 pipe_open
00183810 g    DF .text	00000038 _Z21agip_pipe_create_asynPv
00184db8 g    DF .text	00000004 task_cond_signal
00183ec8 g    DF .text	00000004 ut_calloc
00184dc4 g    DF .text	00000034 get_global_threadid
00184dc0 g    DF .text	00000004 task_get_self_taskid
00184ae8 g    DF .text	00000020 push_msg_without_queue
001838fc g    DF .text	00000098 _Z26agip_pipe_request_internalPv
00185840 g    DF .text	0000012c pipe_request
00183994 g    DF .text	00000038 _Z22agip_pipe_request_asynPv
00183a9c g    DF .text	0000008c _Z27agip_pipe_response_internalPv
00185970 g    DF .text	00000058 pipe_response
00183b28 g    DF .text	00000038 _Z23agip_pipe_response_asynPv
00183ca0 g    DF .text	00000064 _Z26agip_pipe_destroy_internalPv
00183d04 g    DF .text	00000038 _Z22agip_pipe_destroy_asynPv
00183dd0 g    DF .text	00000060 agip_pipe_getinfo
00185a3c g    DF .text	00000048 pipe_get_info
00183e30 g    DF .text	00000024 create_probnet_task
00184ff4 g    DF .text	000000b4 create_ping_task
00183e54 g    DF .text	00000024 close_probnet_task
00184e00 g    DF .text	00000074 close_ping_task
00183e78 g    DF .text	00000030 get_probnet_task_info
001851ac g    DF .text	00000088 get_ping_info
00183ea8 g    DF .text	00000004 get_sdk_version
00184668 g    DF .text	00000014 client_get_version
00183eac g    DF .text	00000004 ut_inetaddr
00183eb0 g    DF .text	00000004 ut_memset
00183eb4 g    DF .text	00000014 ut_malloc
00183ecc g    DF .text	0000000c ut_memcpy
00183ed8 g    DF .text	0000002c ut_strncpy
00183f04 g    DF .text	00000004 ut_strlen
00183f08 g    DF .text	00000024 set_nonblock
00183f2c g    DF .text	00000004 ut_strdup
00000000      DF *UND*	00000000 strdup
00183f30 g    DF .text	00000048 _Z9epoll_addiii
00000000      DF *UND*	00000000 epoll_ctl
00183f78 g    DF .text	000000ac init_io
00000000      DF *UND*	00000000 epoll_create
00184024 g    DF .text	00000048 _Z12epoll_modifyiii
00184090 g    DF .text	00000024 _Z10stop_breakv
001840b4 g    DF .text	00000164 process_io
00000000      DF *UND*	00000000 epoll_wait
00184218 g    DF .text	00000048 _Z9epoll_deliii
00184260 g    DF .text	000000dc fini_io
0018433c g    DF .text	00000058 event_io_init
00184394 g    DF .text	00000060 event_io_start
001843f4 g    DF .text	00000060 event_io_stop
00184454 g    DF .text	00000070 event_io_uinit
00184bd8 g    DF .text	00000038 msg_queue_init
00184578 g    DF .text	00000088 _Z12protocol_runPv
0018452c g    DF .text	0000004c _Z11thread_exitPv
00184dfc g    DF .text	00000004 uinit_ping
00184934 g    DF .text	00000094 uninit_timer
00184914 g    DF .text	00000020 init_timer
00184df8 g    DF .text	00000004 init_ping
00184754 g    DF .text	000000d4 calc_timeout
00184828 g    DF .text	000000c4 process_timeout
00184b70 g    DF .text	00000068 process_async_msg
00184c10 g    DF .text	0000002c msg_queue_uninit
00184c3c g    DF .text	00000020 uninit_global_threadid
0018467c g    DF .text	000000d8 add_timer
001848ec g    DF .text	00000008 add_second_timer
001848f4 g    DF .text	0000000c add_multi_second_timer
00184900 g    DF .text	00000014 init_single_timer
001849c8 g    DF .text	0000000c _Z8init_msgP9async_msgPFvPvES1_
001849d4 g    DF .text	00000060 init_async_msg_queue
00184a34 g    DF .text	00000054 uninit_async_msg_queue
00184a88 g    DF .text	00000060 push_msg
00184b08 g    DF .text	00000068 _Z7pop_msgP15async_msg_queueP9async_msg
00184c5c g    DF .text	00000008 init_task_lock
00184cdc g    DF .text	00000004 uninit_task_lock
00184d3c g    DF .text	00000004 task_trylock
00184d44 g    DF .text	00000008 init_task_cond
00184d88 g    DF .text	00000004 uninit_task_cond
00186e64 g    DF .text	0000003c socketproxy_udp_close
00184e74 g    DF .text	00000028 _Z20recv_reflect_packageP9udp_proxyP9task_ping
00186c7c g    DF .text	00000020 socketproxy_udp_recvfrom
00184e9c g    DF .text	000000f8 _Z12send_packageP9udp_proxyP9task_pingi
00186b6c g    DF .text	00000064 socketproxy_udp_sendto_singleip
00184f94 g    DF .text	00000038 _Z20send_reflect_packageP9udp_proxyP9task_ping
00184fcc g    DF .text	00000018 _Z11udp_send_cbiPvS_S_
00184fe4 g    DF .text	00000010 _Z17ping_send_timeoutPv
00186a7c g    DF .text	000000f0 socketproxy_udp_create_singleip
00185180 g    DF .text	0000002c _Z11udp_recv_cbiPvPcS_jt
001850a8 g    DF .text	00000090 _Z23process_reflect_packageP9udp_proxyPcjt
00185138 g    DF .text	00000048 _Z19process_udp_packageP9udp_proxyiPcjt
00185234 g    DF .text	00000008 _Z16session_error_cbiPv
0018523c g    DF .text	00000020 _Z18session_request_cbiPv
0018525c g    DF .text	00000088 _Z18session_connect_cbiPv
00185c80 g    DF .text	0000009c session_request
00185b48 g    DF .text	000000a8 session_create
001853a8 g    DF .text	00000028 _Z20asyn_session_destroyPv
00185bf0 g    DF .text	0000005c session_destroy
001853d0 g    DF .text	00000074 _Z25range_buffer_write_updateP19cyclic_range_bufferPKcy
00185444 g    DF .text	000000c4 _Z17buffer_write_dataP19cyclic_range_bufferPKcy
00185508 g    DF .text	000000d0 _Z15pipe_responsecbP9agip_pipei
001855d8 g    DF .text	000000bc _Z24range_buffer_read_updateP9agip_pipeP19cyclic_range_bufferPcy
00185694 g    DF .text	000000fc _Z16buffer_read_dataP9agip_pipe
00185c4c g    DF .text	00000034 session_connect
0018596c g    DF .text	00000004 _Z21buffer_read_data_asynPv
00185a84 g    DF .text	00000028 _Z14task_reqest_cbiPv
00185aac g    DF .text	0000009c _Z17task_recv_data_cbiPKcyyPv
00186c54 g    DF .text	00000028 socketproxy_udp_recvfrom_singleip
00185e70 g    DF .text	0000001c session_init_timer
00186150 g    DF .text	000000a4 socket_udp_recv_cb
00186080 g    DF .text	00000054 session_send_reset
00185d68 g    DF .text	00000088 transfer_task_destroy
00185e9c g    DF .text	0000004c session_send_syn
00185e8c g    DF .text	00000010 session_add_timer
00185d1c g    DF .text	0000004c transfer_task_create
00185df0 g    DF .text	00000080 transfer_request
001861f4 g    DF .text	00000018 transfer_init_timer
001863cc g    DF .text	0000003c transfer_send_finish
00187388 g    DF .text	00000088 transfer_order_fini
00186f78 g    DF .text	00000010 release_bitmap
00187170 g    DF .text	0000004c transfer_order_init
00186250 g    DF .text	00000068 transfer_send_request
00185f3c g    DF .text	00000014 _Z15session_timeoutPv
0018749c g    DF .text	00000030 encode_session_common_cmd
00185ee8 g    DF .text	00000054 _Z26session_syn_timeout_handleP12agip_session
00185f50 g    DF .text	0000004c _Z20session_send_ack_ackP12agip_session
00185f9c g    DF .text	00000050 _Z29session_recv_keepalive_handleP12agip_sessionPc
001874cc g    DF .text	00000048 encode_session_keepalive_cmd
00185fec g    DF .text	00000040 _Z25session_common_cmd_handleP12agip_sessionPKc
0018602c g    DF .text	00000054 _Z26session_recv_synack_handleP12agip_sessionPc
001860d4 g    DF .text	0000002c _Z25session_recv_reset_handleP12agip_session
00186100 g    DF .text	00000050 _Z21session_header_handleP12agip_sessionPc
00186918 g    DF .text	0000008c transfer_process
001862b8 g    DF .text	00000038 _Z16transfer_timeoutPv
0018620c g    DF .text	00000044 _Z21transfer_send_packageP13transfer_task
00187448 g    DF .text	00000044 encode_session_header_datacmd
00187514 g    DF .text	000000a8 encode_request_package
001862f0 g    DF .text	0000006c transfer_send_needed
001875bc g    DF .text	0000007c encode_need_package
0018635c g    DF .text	00000070 _Z23transfer_send_probe_rspP13transfer_taskxjjjj
00187638 g    DF .text	00000078 encode_probe_rsp
001876b0 g    DF .text	00000058 encode_finish_package
00186f54 g    DF .text	00000024 test_bit
0018655c g    DF .text	00000168 _Z25transfer_process_responseP13transfer_taskPKcij
00186ea0 g    DF .text	0000002c create_bitmap
001866c4 g    DF .text	0000001c _Z20transfer_process_finP13transfer_taskPKcij
001866e0 g    DF .text	00000238 _Z20transfer_process_cmdP13transfer_taskiPcij
00186ecc g    DF .text	00000044 set_bit
001871bc g    DF .text	000000a0 transfer_prepare_link_buffer
0018725c g    DF .text	00000058 transfer_order_add_list
001872b4 g    DF .text	000000d4 transfer_order_recv_list
001869ac g    DF .text	000000d0 socketproxy_udp_create
00186bd0 g    DF .text	00000018 _Z26socketproxy_open_udp_writeP9udp_proxy
00186be8 g    DF .text	00000054 socketproxy_udp_sendto
00186c3c g    DF .text	00000018 _Z25socketproxy_open_udp_readP9udp_proxy
00186c9c g    DF .text	00000038 _Z34socketproxy_notify_udp_send_resultP9udp_proxyi
00186cd4 g    DF .text	00000068 _Z25socketproxy_udp_send_dataP9udp_proxy
00186d58 g    DF .text	00000054 _Z34socketproxy_notify_udp_recv_resultP9udp_proxyi
00186dac g    DF .text	00000080 _Z25socketproxy_udp_recv_dataP9udp_proxy
00186f10 g    DF .text	00000044 clear_bit
00186f88 g    DF .text	000000f4 next_bit
0018707c g    DF .text	00000094 _Z22transfer_order_timeoutPv
0018714c g    DF .text	00000024 _Z25transfer_order_init_timerP13transfer_task
00187410 g    DF .text	00000038 _Z21encode_session_headerP14session_headerth
0018748c g    DF .text	00000010 _Z25encode_session_seq_headerP10seq_headerjj
00188008 g    DF .text	00000008 _ZN14SessionManager13sCheckSessionEyPvS0_
00188254 g    DF .text	000000a4 _ZN10HttpDecode11IsVedioMimeESs
00187998 g    DF .text	000000a4 _ZN14SessionManager9GetSwitchEv
00187a3c g    DF .text	0000010c _ZN14SessionManager13CreateSessionEj
0018b6bc g    DF .text	00000174 _ZN7SessionC1Ej
0018b50c g    DF .text	000001b0 _ZN7Session4InitEv
00189e80 g    DF .text	000000e4 _ZN7Session6UninitEv
0018b830 g    DF .text	0000013c _ZN7SessionD1Ev
00187b48 g    DF .text	00000064 _ZN14SessionManager9sAcceptCbEP7ev_loopP5ev_ioi
0018a2c0 g    DF .text	00000020 _ZN7Session5StartEv
00187bac g    DF .text	00000114 _ZN14SessionManager14DestroySessionEPP7Session
00187cc0 g    DF .text	000000b0 _ZN14SessionManager5UinitEv
00187f8c g    DF .text	00000024 _ZN14SessionManager7sSendCbEP7ev_loopP5ev_ioi
00187fb0 g    DF .text	00000058 _ZN14SessionManager12CheckSessionEv
0018afd0 g    DF .text	00000038 _ZN7Session6UpdateEv
00188010 g    DF .text	00000104 _ZN14SessionManager18GetFileNameFromUriERKSsRSs
00188114 g    DF .text	00000058 _ZN14SessionManager14GetTaskFromUriERKSsPP4TaskRSs
0018820c  w   DF .text	00000028 _ZNSt10_List_baseIP7SessionSaIS1_EE8_M_clearEv
0018816c g    DF .text	00000074 _ZN14SessionManagerC2Ev
001881e0 g    DF .text	0000002c _ZN14SessionManagerD2Ev
00188234 g    DF .text	00000018 _ZN10HttpDecode7GetBodyEv
0018824c g    DF .text	00000008 _ZN10HttpDecode7GetHeadEv
002e8728 g    DO .data	0000009c _ZN10HttpDecode13msc_videoMIMEE
001882f8 g    DF .text	00000028 _ZN10HttpDecode13BuildNotFoundEv
00188320 g    DF .text	00000044 _ZN10HttpDecode5ResetEv
00188364 g    DF .text	00000050 _ZN10HttpDecodeD2Ev
00188364 g    DF .text	00000050 _ZN10HttpDecodeD1Ev
001883b4 g    DF .text	00000074 _ZN10HttpDecodeC2Ev
001883b4 g    DF .text	00000074 _ZN10HttpDecodeC1Ev
00188428 g    DF .text	000000c8 _ZN10HttpDecode11GetKeyValueESs
001884f0 g    DF .text	00000068 _ZN10HttpDecode16GetContentLengthEv
00188558 g    DF .text	00000484 _ZN10HttpDecode8GetRangeERxS0_
001889dc g    DF .text	000002a0 _ZN10HttpDecode7GetMIMEEv
00188c7c g    DF .text	0000018c _ZN10HttpDecode12GetConectionEv
00188e08 g    DF .text	00000050 _ZN10HttpDecode11isKeepAliveEv
00188e58 g    DF .text	000000d0 _ZN10HttpDecode7BuildOkEx
00188f28 g    DF .text	000000f4 _ZN10HttpDecode19BuildPartialContentExxx
0018901c g    DF .text	000000e8 _ZN10HttpDecode9BuildHeadEx
00189104 g    DF .text	00000054 _ZN10HttpDecode6GetUriEv
00189158 g    DF .text	0000009c _ZN10HttpDecode9GetMethodEv
001891f4 g    DF .text	00000198 _ZN10HttpDecode19DecodeRequestHeaderESs
0018938c g    DF .text	00000220 _ZN10HttpDecode17DecodeRequestLineESs
001895ac g    DF .text	00000188 _ZN10HttpDecode6DecodeESs
00189734 g    DF .text	00000264 _ZN10HttpDecode5WriteEPKci
0018bdf8  w   DF .text	00000018 _ZN7Session20GetNeedDownloadRangeEv
0018be10  w   DF .text	00000008 _ZN7Session11GetReportIdEv
00189998 g    DF .text	00000008 _ZN7Session12GetSessionIdEv
0018be18  w   DF .text	00000008 _ZN7Session17GetDownloadBufferEv
0018bec4 g    DF .text	00000008 _ZN12BufferHelper7GetDataEv
001899a0 g    DF .text	00000248 _ZN7Session18DoGetMethodResponeEy
00189be8 g    DF .text	00000018 _ZN7Session19DoHeadMethodResponeEy
00189c00 g    DF .text	00000100 _ZN7Session8PopRangeER5range
00189d00 g    DF .text	00000038 _ZN7Session10DoDownloadEv
00189d38 g    DF .text	00000094 _ZN7Session10DoReadFileEv
0018bf2c g    DF .text	00000078 _ZN12BufferHelper5AllocEi
0018be20  w   DF .text	0000008c _ZN8AsynFile16ReadFileCallbackI7SessionXadL_ZNS1_14HandleReadFileEiP19TAG_FS_OPERATE_DATAEEEEviPvPKv
00189dcc g    DF .text	000000b4 _ZN7Session22DestroyVodTaskListenerEv
0018bfbc g    DF .text	0000001c _ZN12BufferHelper5ClearEv
00189f64 g    DF .text	000001f0 _ZN7Session21CreateVodTaskListenerEPKc
0018a154 g    DF .text	00000084 _ZN7Session30IsClientSocketActiveDisconnectEv
0018a1d8 g    DF .text	0000006c _ZN7Session6DoSendEv
0018bdf0 g    DF .text	00000008 _ZN7Session7sSendCbEP7ev_loopP5ev_ioi
0018a244 g    DF .text	00000054 _ZN7Session6DoSendEPKci
0018a298 g    DF .text	00000020 _ZN7Session6DoRecvEv
0018a2b8 g    DF .text	00000008 _ZN7Session8SetStateENS_13ESessionStateE
0018a2e0 g    DF .text	00000014 _ZN7Session10DoFileSizeEv
